
rvm64.exe:     file format pei-x86-64


Disassembly of section .text:

0000000140001000 <__mingw_invalidParameterHandler>:
   140001000:	c3                   	ret
   140001001:	66 66 2e 0f 1f 84 00 	data16 cs nop WORD PTR [rax+rax*1+0x0]
   140001008:	00 00 00 00 
   14000100c:	0f 1f 40 00          	nop    DWORD PTR [rax+0x0]

0000000140001010 <pre_c_init>:
   140001010:	55                   	push   rbp
   140001011:	48 89 e5             	mov    rbp,rsp
   140001014:	48 83 ec 20          	sub    rsp,0x20
   140001018:	48 8b 05 a1 0c 01 00 	mov    rax,QWORD PTR [rip+0x10ca1]        # 140011cc0 <.refptr.__mingw_initltsdrot_force>
   14000101f:	31 c9                	xor    ecx,ecx
   140001021:	c7 00 01 00 00 00    	mov    DWORD PTR [rax],0x1
   140001027:	48 8b 05 a2 0c 01 00 	mov    rax,QWORD PTR [rip+0x10ca2]        # 140011cd0 <.refptr.__mingw_initltsdyn_force>
   14000102e:	c7 00 01 00 00 00    	mov    DWORD PTR [rax],0x1
   140001034:	48 8b 05 a5 0c 01 00 	mov    rax,QWORD PTR [rip+0x10ca5]        # 140011ce0 <.refptr.__mingw_initltssuo_force>
   14000103b:	c7 00 01 00 00 00    	mov    DWORD PTR [rax],0x1
   140001041:	48 8b 05 28 0c 01 00 	mov    rax,QWORD PTR [rip+0x10c28]        # 140011c70 <.refptr.__image_base__>
   140001048:	66 81 38 4d 5a       	cmp    WORD PTR [rax],0x5a4d
   14000104d:	75 0f                	jne    14000105e <pre_c_init+0x4e>
   14000104f:	48 63 50 3c          	movsxd rdx,DWORD PTR [rax+0x3c]
   140001053:	48 01 d0             	add    rax,rdx
   140001056:	81 38 50 45 00 00    	cmp    DWORD PTR [rax],0x4550
   14000105c:	74 6a                	je     1400010c8 <pre_c_init+0xb8>
   14000105e:	48 8b 05 4b 0c 01 00 	mov    rax,QWORD PTR [rip+0x10c4b]        # 140011cb0 <.refptr.__mingw_app_type>
   140001065:	89 0d a1 3f 01 00    	mov    DWORD PTR [rip+0x13fa1],ecx        # 14001500c <managedapp>
   14000106b:	8b 00                	mov    eax,DWORD PTR [rax]
   14000106d:	85 c0                	test   eax,eax
   14000106f:	74 47                	je     1400010b8 <pre_c_init+0xa8>
   140001071:	b9 02 00 00 00       	mov    ecx,0x2
   140001076:	e8 2d c2 00 00       	call   14000d2a8 <__set_app_type>
   14000107b:	e8 a0 c1 00 00       	call   14000d220 <__p__fmode>
   140001080:	48 8b 15 f9 0c 01 00 	mov    rdx,QWORD PTR [rip+0x10cf9]        # 140011d80 <.refptr._fmode>
   140001087:	8b 12                	mov    edx,DWORD PTR [rdx]
   140001089:	89 10                	mov    DWORD PTR [rax],edx
   14000108b:	e8 a0 c1 00 00       	call   14000d230 <__p__commode>
   140001090:	48 8b 15 c9 0c 01 00 	mov    rdx,QWORD PTR [rip+0x10cc9]        # 140011d60 <.refptr._commode>
   140001097:	8b 12                	mov    edx,DWORD PTR [rdx]
   140001099:	89 10                	mov    DWORD PTR [rax],edx
   14000109b:	e8 50 b1 00 00       	call   14000c1f0 <_setargv>
   1400010a0:	48 8b 05 79 0b 01 00 	mov    rax,QWORD PTR [rip+0x10b79]        # 140011c20 <.refptr._MINGW_INSTALL_DEBUG_MATHERR>
   1400010a7:	83 38 01             	cmp    DWORD PTR [rax],0x1
   1400010aa:	74 54                	je     140001100 <pre_c_init+0xf0>
   1400010ac:	31 c0                	xor    eax,eax
   1400010ae:	48 83 c4 20          	add    rsp,0x20
   1400010b2:	5d                   	pop    rbp
   1400010b3:	c3                   	ret
   1400010b4:	0f 1f 40 00          	nop    DWORD PTR [rax+0x0]
   1400010b8:	b9 01 00 00 00       	mov    ecx,0x1
   1400010bd:	e8 e6 c1 00 00       	call   14000d2a8 <__set_app_type>
   1400010c2:	eb b7                	jmp    14000107b <pre_c_init+0x6b>
   1400010c4:	0f 1f 40 00          	nop    DWORD PTR [rax+0x0]
   1400010c8:	0f b7 50 18          	movzx  edx,WORD PTR [rax+0x18]
   1400010cc:	66 81 fa 0b 01       	cmp    dx,0x10b
   1400010d1:	74 45                	je     140001118 <pre_c_init+0x108>
   1400010d3:	66 81 fa 0b 02       	cmp    dx,0x20b
   1400010d8:	75 84                	jne    14000105e <pre_c_init+0x4e>
   1400010da:	83 b8 84 00 00 00 0e 	cmp    DWORD PTR [rax+0x84],0xe
   1400010e1:	0f 86 77 ff ff ff    	jbe    14000105e <pre_c_init+0x4e>
   1400010e7:	8b 90 f8 00 00 00    	mov    edx,DWORD PTR [rax+0xf8]
   1400010ed:	31 c9                	xor    ecx,ecx
   1400010ef:	85 d2                	test   edx,edx
   1400010f1:	0f 95 c1             	setne  cl
   1400010f4:	e9 65 ff ff ff       	jmp    14000105e <pre_c_init+0x4e>
   1400010f9:	0f 1f 80 00 00 00 00 	nop    DWORD PTR [rax+0x0]
   140001100:	48 8b 0d 99 0c 01 00 	mov    rcx,QWORD PTR [rip+0x10c99]        # 140011da0 <.refptr._matherr>
   140001107:	e8 54 b8 00 00       	call   14000c960 <__mingw_setusermatherr>
   14000110c:	31 c0                	xor    eax,eax
   14000110e:	48 83 c4 20          	add    rsp,0x20
   140001112:	5d                   	pop    rbp
   140001113:	c3                   	ret
   140001114:	0f 1f 40 00          	nop    DWORD PTR [rax+0x0]
   140001118:	83 78 74 0e          	cmp    DWORD PTR [rax+0x74],0xe
   14000111c:	0f 86 3c ff ff ff    	jbe    14000105e <pre_c_init+0x4e>
   140001122:	44 8b 80 e8 00 00 00 	mov    r8d,DWORD PTR [rax+0xe8]
   140001129:	31 c9                	xor    ecx,ecx
   14000112b:	45 85 c0             	test   r8d,r8d
   14000112e:	0f 95 c1             	setne  cl
   140001131:	e9 28 ff ff ff       	jmp    14000105e <pre_c_init+0x4e>
   140001136:	66 2e 0f 1f 84 00 00 	cs nop WORD PTR [rax+rax*1+0x0]
   14000113d:	00 00 00 

0000000140001140 <pre_cpp_init>:
   140001140:	55                   	push   rbp
   140001141:	48 89 e5             	mov    rbp,rsp
   140001144:	48 83 ec 30          	sub    rsp,0x30
   140001148:	48 8b 05 61 0c 01 00 	mov    rax,QWORD PTR [rip+0x10c61]        # 140011db0 <.refptr._newmode>
   14000114f:	4c 8d 05 c2 3e 01 00 	lea    r8,[rip+0x13ec2]        # 140015018 <envp>
   140001156:	48 8d 15 c3 3e 01 00 	lea    rdx,[rip+0x13ec3]        # 140015020 <argv>
   14000115d:	48 8d 0d c4 3e 01 00 	lea    rcx,[rip+0x13ec4]        # 140015028 <argc>
   140001164:	8b 00                	mov    eax,DWORD PTR [rax]
   140001166:	89 05 98 3e 01 00    	mov    DWORD PTR [rip+0x13e98],eax        # 140015004 <startinfo>
   14000116c:	48 8b 05 fd 0b 01 00 	mov    rax,QWORD PTR [rip+0x10bfd]        # 140011d70 <.refptr._dowildcard>
   140001173:	44 8b 08             	mov    r9d,DWORD PTR [rax]
   140001176:	48 8d 05 87 3e 01 00 	lea    rax,[rip+0x13e87]        # 140015004 <startinfo>
   14000117d:	48 89 44 24 20       	mov    QWORD PTR [rsp+0x20],rax
   140001182:	e8 11 c1 00 00       	call   14000d298 <__getmainargs>
   140001187:	90                   	nop
   140001188:	48 83 c4 30          	add    rsp,0x30
   14000118c:	5d                   	pop    rbp
   14000118d:	c3                   	ret
   14000118e:	66 90                	xchg   ax,ax

0000000140001190 <__tmainCRTStartup>:
   140001190:	55                   	push   rbp
   140001191:	41 55                	push   r13
   140001193:	41 54                	push   r12
   140001195:	57                   	push   rdi
   140001196:	56                   	push   rsi
   140001197:	53                   	push   rbx
   140001198:	48 83 ec 28          	sub    rsp,0x28
   14000119c:	48 8d 6c 24 20       	lea    rbp,[rsp+0x20]
   1400011a1:	48 8b 1d 58 0b 01 00 	mov    rbx,QWORD PTR [rip+0x10b58]        # 140011d00 <.refptr.__native_startup_lock>
   1400011a8:	4c 8b 25 f9 50 01 00 	mov    r12,QWORD PTR [rip+0x150f9]        # 1400162a8 <__imp_Sleep>
   1400011af:	31 ff                	xor    edi,edi
   1400011b1:	65 48 8b 04 25 30 00 	mov    rax,QWORD PTR gs:0x30
   1400011b8:	00 00 
   1400011ba:	48 8b 70 08          	mov    rsi,QWORD PTR [rax+0x8]
   1400011be:	eb 11                	jmp    1400011d1 <__tmainCRTStartup+0x41>
   1400011c0:	48 39 c6             	cmp    rsi,rax
   1400011c3:	0f 84 6f 01 00 00    	je     140001338 <__tmainCRTStartup+0x1a8>
   1400011c9:	b9 e8 03 00 00       	mov    ecx,0x3e8
   1400011ce:	41 ff d4             	call   r12
   1400011d1:	48 89 f8             	mov    rax,rdi
   1400011d4:	f0 48 0f b1 33       	lock cmpxchg QWORD PTR [rbx],rsi
   1400011d9:	48 85 c0             	test   rax,rax
   1400011dc:	75 e2                	jne    1400011c0 <__tmainCRTStartup+0x30>
   1400011de:	48 8b 35 2b 0b 01 00 	mov    rsi,QWORD PTR [rip+0x10b2b]        # 140011d10 <.refptr.__native_startup_state>
   1400011e5:	31 ff                	xor    edi,edi
   1400011e7:	8b 06                	mov    eax,DWORD PTR [rsi]
   1400011e9:	83 f8 01             	cmp    eax,0x1
   1400011ec:	0f 84 5d 01 00 00    	je     14000134f <__tmainCRTStartup+0x1bf>
   1400011f2:	8b 06                	mov    eax,DWORD PTR [rsi]
   1400011f4:	85 c0                	test   eax,eax
   1400011f6:	0f 84 b4 01 00 00    	je     1400013b0 <__tmainCRTStartup+0x220>
   1400011fc:	c7 05 02 3e 01 00 01 	mov    DWORD PTR [rip+0x13e02],0x1        # 140015008 <has_cctor>
   140001203:	00 00 00 
   140001206:	8b 06                	mov    eax,DWORD PTR [rsi]
   140001208:	83 f8 01             	cmp    eax,0x1
   14000120b:	0f 84 53 01 00 00    	je     140001364 <__tmainCRTStartup+0x1d4>
   140001211:	85 ff                	test   edi,edi
   140001213:	0f 84 6c 01 00 00    	je     140001385 <__tmainCRTStartup+0x1f5>
   140001219:	48 8b 05 40 0a 01 00 	mov    rax,QWORD PTR [rip+0x10a40]        # 140011c60 <.refptr.__dyn_tls_init_callback>
   140001220:	48 8b 00             	mov    rax,QWORD PTR [rax]
   140001223:	48 85 c0             	test   rax,rax
   140001226:	74 0c                	je     140001234 <__tmainCRTStartup+0xa4>
   140001228:	45 31 c0             	xor    r8d,r8d
   14000122b:	ba 02 00 00 00       	mov    edx,0x2
   140001230:	31 c9                	xor    ecx,ecx
   140001232:	ff d0                	call   rax
   140001234:	e8 87 b3 00 00       	call   14000c5c0 <_pei386_runtime_relocator>
   140001239:	48 8b 0d 50 0b 01 00 	mov    rcx,QWORD PTR [rip+0x10b50]        # 140011d90 <.refptr._gnu_exception_handler>
   140001240:	ff 15 5a 50 01 00    	call   QWORD PTR [rip+0x1505a]        # 1400162a0 <__imp_SetUnhandledExceptionFilter>
   140001246:	48 8b 15 a3 0a 01 00 	mov    rdx,QWORD PTR [rip+0x10aa3]        # 140011cf0 <.refptr.__mingw_oldexcpt_handler>
   14000124d:	48 8d 0d ac fd ff ff 	lea    rcx,[rip+0xfffffffffffffdac]        # 140001000 <__mingw_invalidParameterHandler>
   140001254:	48 89 02             	mov    QWORD PTR [rdx],rax
   140001257:	e8 f4 bf 00 00       	call   14000d250 <_set_invalid_parameter_handler>
   14000125c:	e8 6f b1 00 00       	call   14000c3d0 <_fpreset>
   140001261:	8b 1d c1 3d 01 00    	mov    ebx,DWORD PTR [rip+0x13dc1]        # 140015028 <argc>
   140001267:	8d 7b 01             	lea    edi,[rbx+0x1]
   14000126a:	48 63 ff             	movsxd rdi,edi
   14000126d:	48 c1 e7 03          	shl    rdi,0x3
   140001271:	48 89 f9             	mov    rcx,rdi
   140001274:	e8 8f c0 00 00       	call   14000d308 <malloc>
   140001279:	4c 8b 2d a0 3d 01 00 	mov    r13,QWORD PTR [rip+0x13da0]        # 140015020 <argv>
   140001280:	49 89 c4             	mov    r12,rax
   140001283:	85 db                	test   ebx,ebx
   140001285:	0f 8e 45 01 00 00    	jle    1400013d0 <__tmainCRTStartup+0x240>
   14000128b:	48 83 ef 08          	sub    rdi,0x8
   14000128f:	31 db                	xor    ebx,ebx
   140001291:	0f 1f 80 00 00 00 00 	nop    DWORD PTR [rax+0x0]
   140001298:	49 8b 4c 1d 00       	mov    rcx,QWORD PTR [r13+rbx*1+0x0]
   14000129d:	e8 8e c0 00 00       	call   14000d330 <strlen>
   1400012a2:	48 8d 70 01          	lea    rsi,[rax+0x1]
   1400012a6:	48 89 f1             	mov    rcx,rsi
   1400012a9:	e8 5a c0 00 00       	call   14000d308 <malloc>
   1400012ae:	49 89 f0             	mov    r8,rsi
   1400012b1:	49 89 04 1c          	mov    QWORD PTR [r12+rbx*1],rax
   1400012b5:	49 8b 54 1d 00       	mov    rdx,QWORD PTR [r13+rbx*1+0x0]
   1400012ba:	48 89 c1             	mov    rcx,rax
   1400012bd:	48 83 c3 08          	add    rbx,0x8
   1400012c1:	e8 4a c0 00 00       	call   14000d310 <memcpy>
   1400012c6:	48 39 df             	cmp    rdi,rbx
   1400012c9:	75 cd                	jne    140001298 <__tmainCRTStartup+0x108>
   1400012cb:	4c 01 e7             	add    rdi,r12
   1400012ce:	48 c7 07 00 00 00 00 	mov    QWORD PTR [rdi],0x0
   1400012d5:	4c 89 25 44 3d 01 00 	mov    QWORD PTR [rip+0x13d44],r12        # 140015020 <argv>
   1400012dc:	e8 ef ae 00 00       	call   14000c1d0 <__main>
   1400012e1:	48 8b 05 98 09 01 00 	mov    rax,QWORD PTR [rip+0x10998]        # 140011c80 <.refptr.__imp___initenv>
   1400012e8:	4c 8b 05 29 3d 01 00 	mov    r8,QWORD PTR [rip+0x13d29]        # 140015018 <envp>
   1400012ef:	8b 0d 33 3d 01 00    	mov    ecx,DWORD PTR [rip+0x13d33]        # 140015028 <argc>
   1400012f5:	48 8b 00             	mov    rax,QWORD PTR [rax]
   1400012f8:	4c 89 00             	mov    QWORD PTR [rax],r8
   1400012fb:	48 8b 15 1e 3d 01 00 	mov    rdx,QWORD PTR [rip+0x13d1e]        # 140015020 <argv>
   140001302:	e8 d2 ab 00 00       	call   14000bed9 <main>
   140001307:	8b 0d ff 3c 01 00    	mov    ecx,DWORD PTR [rip+0x13cff]        # 14001500c <managedapp>
   14000130d:	89 05 fd 3c 01 00    	mov    DWORD PTR [rip+0x13cfd],eax        # 140015010 <mainret>
   140001313:	85 c9                	test   ecx,ecx
   140001315:	0f 84 bd 00 00 00    	je     1400013d8 <__tmainCRTStartup+0x248>
   14000131b:	8b 15 e7 3c 01 00    	mov    edx,DWORD PTR [rip+0x13ce7]        # 140015008 <has_cctor>
   140001321:	85 d2                	test   edx,edx
   140001323:	74 6b                	je     140001390 <__tmainCRTStartup+0x200>
   140001325:	48 83 c4 28          	add    rsp,0x28
   140001329:	5b                   	pop    rbx
   14000132a:	5e                   	pop    rsi
   14000132b:	5f                   	pop    rdi
   14000132c:	41 5c                	pop    r12
   14000132e:	41 5d                	pop    r13
   140001330:	5d                   	pop    rbp
   140001331:	c3                   	ret
   140001332:	66 0f 1f 44 00 00    	nop    WORD PTR [rax+rax*1+0x0]
   140001338:	48 8b 35 d1 09 01 00 	mov    rsi,QWORD PTR [rip+0x109d1]        # 140011d10 <.refptr.__native_startup_state>
   14000133f:	bf 01 00 00 00       	mov    edi,0x1
   140001344:	8b 06                	mov    eax,DWORD PTR [rsi]
   140001346:	83 f8 01             	cmp    eax,0x1
   140001349:	0f 85 a3 fe ff ff    	jne    1400011f2 <__tmainCRTStartup+0x62>
   14000134f:	b9 1f 00 00 00       	mov    ecx,0x1f
   140001354:	e8 5f bf 00 00       	call   14000d2b8 <_amsg_exit>
   140001359:	8b 06                	mov    eax,DWORD PTR [rsi]
   14000135b:	83 f8 01             	cmp    eax,0x1
   14000135e:	0f 85 ad fe ff ff    	jne    140001211 <__tmainCRTStartup+0x81>
   140001364:	48 8b 15 c5 09 01 00 	mov    rdx,QWORD PTR [rip+0x109c5]        # 140011d30 <.refptr.__xc_z>
   14000136b:	48 8b 0d ae 09 01 00 	mov    rcx,QWORD PTR [rip+0x109ae]        # 140011d20 <.refptr.__xc_a>
   140001372:	e8 51 bf 00 00       	call   14000d2c8 <_initterm>
   140001377:	c7 06 02 00 00 00    	mov    DWORD PTR [rsi],0x2
   14000137d:	85 ff                	test   edi,edi
   14000137f:	0f 85 94 fe ff ff    	jne    140001219 <__tmainCRTStartup+0x89>
   140001385:	31 c0                	xor    eax,eax
   140001387:	48 87 03             	xchg   QWORD PTR [rbx],rax
   14000138a:	e9 8a fe ff ff       	jmp    140001219 <__tmainCRTStartup+0x89>
   14000138f:	90                   	nop
   140001390:	e8 2b bf 00 00       	call   14000d2c0 <_cexit>
   140001395:	8b 05 75 3c 01 00    	mov    eax,DWORD PTR [rip+0x13c75]        # 140015010 <mainret>
   14000139b:	48 83 c4 28          	add    rsp,0x28
   14000139f:	5b                   	pop    rbx
   1400013a0:	5e                   	pop    rsi
   1400013a1:	5f                   	pop    rdi
   1400013a2:	41 5c                	pop    r12
   1400013a4:	41 5d                	pop    r13
   1400013a6:	5d                   	pop    rbp
   1400013a7:	c3                   	ret
   1400013a8:	0f 1f 84 00 00 00 00 	nop    DWORD PTR [rax+rax*1+0x0]
   1400013af:	00 
   1400013b0:	48 8b 15 99 09 01 00 	mov    rdx,QWORD PTR [rip+0x10999]        # 140011d50 <.refptr.__xi_z>
   1400013b7:	48 8b 0d 82 09 01 00 	mov    rcx,QWORD PTR [rip+0x10982]        # 140011d40 <.refptr.__xi_a>
   1400013be:	c7 06 01 00 00 00    	mov    DWORD PTR [rsi],0x1
   1400013c4:	e8 ff be 00 00       	call   14000d2c8 <_initterm>
   1400013c9:	e9 38 fe ff ff       	jmp    140001206 <__tmainCRTStartup+0x76>
   1400013ce:	66 90                	xchg   ax,ax
   1400013d0:	48 89 c7             	mov    rdi,rax
   1400013d3:	e9 f6 fe ff ff       	jmp    1400012ce <__tmainCRTStartup+0x13e>
   1400013d8:	89 c1                	mov    ecx,eax
   1400013da:	e8 09 bf 00 00       	call   14000d2e8 <exit>
   1400013df:	90                   	nop

00000001400013e0 <WinMainCRTStartup>:
   1400013e0:	55                   	push   rbp
   1400013e1:	48 89 e5             	mov    rbp,rsp
   1400013e4:	48 83 ec 20          	sub    rsp,0x20

00000001400013e8 <.l_startw>:
   1400013e8:	48 8b 05 c1 08 01 00 	mov    rax,QWORD PTR [rip+0x108c1]        # 140011cb0 <.refptr.__mingw_app_type>
   1400013ef:	c7 00 01 00 00 00    	mov    DWORD PTR [rax],0x1
   1400013f5:	e8 96 fd ff ff       	call   140001190 <__tmainCRTStartup>
   1400013fa:	90                   	nop

00000001400013fb <.l_endw>:
   1400013fb:	90                   	nop
   1400013fc:	48 83 c4 20          	add    rsp,0x20
   140001400:	5d                   	pop    rbp
   140001401:	c3                   	ret
   140001402:	66 66 2e 0f 1f 84 00 	data16 cs nop WORD PTR [rax+rax*1+0x0]
   140001409:	00 00 00 00 
   14000140d:	0f 1f 00             	nop    DWORD PTR [rax]

0000000140001410 <mainCRTStartup>:
   140001410:	55                   	push   rbp
   140001411:	48 89 e5             	mov    rbp,rsp
   140001414:	48 83 ec 20          	sub    rsp,0x20

0000000140001418 <.l_start>:
   140001418:	48 8b 05 91 08 01 00 	mov    rax,QWORD PTR [rip+0x10891]        # 140011cb0 <.refptr.__mingw_app_type>
   14000141f:	c7 00 00 00 00 00    	mov    DWORD PTR [rax],0x0
   140001425:	e8 66 fd ff ff       	call   140001190 <__tmainCRTStartup>
   14000142a:	90                   	nop

000000014000142b <.l_end>:
   14000142b:	90                   	nop
   14000142c:	48 83 c4 20          	add    rsp,0x20
   140001430:	5d                   	pop    rbp
   140001431:	c3                   	ret
   140001432:	66 66 2e 0f 1f 84 00 	data16 cs nop WORD PTR [rax+rax*1+0x0]
   140001439:	00 00 00 00 
   14000143d:	0f 1f 00             	nop    DWORD PTR [rax]

0000000140001440 <atexit>:
   140001440:	55                   	push   rbp
   140001441:	48 89 e5             	mov    rbp,rsp
   140001444:	48 83 ec 20          	sub    rsp,0x20
   140001448:	e8 83 be 00 00       	call   14000d2d0 <_onexit>
   14000144d:	48 83 f8 01          	cmp    rax,0x1
   140001451:	19 c0                	sbb    eax,eax
   140001453:	48 83 c4 20          	add    rsp,0x20
   140001457:	5d                   	pop    rbp
   140001458:	c3                   	ret
   140001459:	90                   	nop
   14000145a:	90                   	nop
   14000145b:	90                   	nop
   14000145c:	90                   	nop
   14000145d:	90                   	nop
   14000145e:	90                   	nop
   14000145f:	90                   	nop

0000000140001460 <__gcc_register_frame>:
   140001460:	48 8d 0d 09 00 00 00 	lea    rcx,[rip+0x9]        # 140001470 <__gcc_deregister_frame>
   140001467:	e9 d4 ff ff ff       	jmp    140001440 <atexit>
   14000146c:	0f 1f 40 00          	nop    DWORD PTR [rax+0x0]

0000000140001470 <__gcc_deregister_frame>:
   140001470:	c3                   	ret
   140001471:	90                   	nop
   140001472:	90                   	nop
   140001473:	90                   	nop
   140001474:	90                   	nop
   140001475:	90                   	nop
   140001476:	90                   	nop
   140001477:	90                   	nop
   140001478:	90                   	nop
   140001479:	90                   	nop
   14000147a:	90                   	nop
   14000147b:	90                   	nop
   14000147c:	90                   	nop
   14000147d:	90                   	nop
   14000147e:	90                   	nop
   14000147f:	90                   	nop

0000000140001480 <_ZN5rvm645crypt11decrypt_ptrEy>:
   140001480:	55                   	push   rbp
   140001481:	48 89 e5             	mov    rbp,rsp
   140001484:	48 89 4d 10          	mov    QWORD PTR [rbp+0x10],rcx
   140001488:	48 8b 05 79 eb 00 00 	mov    rax,QWORD PTR [rip+0xeb79]        # 140010008 <vmcs>
   14000148f:	48 8b 40 10          	mov    rax,QWORD PTR [rax+0x10]
   140001493:	48 33 45 10          	xor    rax,QWORD PTR [rbp+0x10]
   140001497:	5d                   	pop    rbp
   140001498:	c3                   	ret

0000000140001499 <_ZN5rvm644rvni22windows_thunk_resolverEPKc>:
   140001499:	55                   	push   rbp
   14000149a:	56                   	push   rsi
   14000149b:	53                   	push   rbx
   14000149c:	48 83 ec 50          	sub    rsp,0x50
   1400014a0:	48 8d 6c 24 50       	lea    rbp,[rsp+0x50]
   1400014a5:	48 89 4d 20          	mov    QWORD PTR [rbp+0x20],rcx
   1400014a9:	0f b6 05 88 3b 01 00 	movzx  eax,BYTE PTR [rip+0x13b88]        # 140015038 <_ZGVZN5rvm644rvni22windows_thunk_resolverEPKcE4ucrt>
   1400014b0:	84 c0                	test   al,al
   1400014b2:	0f 94 c0             	sete   al
   1400014b5:	84 c0                	test   al,al
   1400014b7:	74 46                	je     1400014ff <_ZN5rvm644rvni22windows_thunk_resolverEPKc+0x66>
   1400014b9:	48 8d 05 78 3b 01 00 	lea    rax,[rip+0x13b78]        # 140015038 <_ZGVZN5rvm644rvni22windows_thunk_resolverEPKcE4ucrt>
   1400014c0:	48 89 c1             	mov    rcx,rax
   1400014c3:	e8 f0 ab 00 00       	call   14000c0b8 <__cxa_guard_acquire>
   1400014c8:	85 c0                	test   eax,eax
   1400014ca:	0f 95 c0             	setne  al
   1400014cd:	84 c0                	test   al,al
   1400014cf:	74 2e                	je     1400014ff <_ZN5rvm644rvni22windows_thunk_resolverEPKc+0x66>
   1400014d1:	be 00 00 00 00       	mov    esi,0x0
   1400014d6:	48 8d 05 66 fb 00 00 	lea    rax,[rip+0xfb66]        # 140011043 <_ZL3key+0x43>
   1400014dd:	48 89 c1             	mov    rcx,rax
   1400014e0:	48 8b 05 a9 4d 01 00 	mov    rax,QWORD PTR [rip+0x14da9]        # 140016290 <__imp_LoadLibraryA>
   1400014e7:	ff d0                	call   rax
   1400014e9:	48 89 05 40 3b 01 00 	mov    QWORD PTR [rip+0x13b40],rax        # 140015030 <_ZZN5rvm644rvni22windows_thunk_resolverEPKcE4ucrt>
   1400014f0:	48 8d 05 41 3b 01 00 	lea    rax,[rip+0x13b41]        # 140015038 <_ZGVZN5rvm644rvni22windows_thunk_resolverEPKcE4ucrt>
   1400014f7:	48 89 c1             	mov    rcx,rax
   1400014fa:	e8 b1 ab 00 00       	call   14000c0b0 <__cxa_guard_release>
   1400014ff:	48 8b 05 2a 3b 01 00 	mov    rax,QWORD PTR [rip+0x13b2a]        # 140015030 <_ZZN5rvm644rvni22windows_thunk_resolverEPKcE4ucrt>
   140001506:	48 85 c0             	test   rax,rax
   140001509:	75 5b                	jne    140001566 <_ZN5rvm644rvni22windows_thunk_resolverEPKc+0xcd>
   14000150b:	48 8b 05 f6 ea 00 00 	mov    rax,QWORD PTR [rip+0xeaf6]        # 140010008 <vmcs>
   140001512:	48 c7 80 98 03 80 00 	mov    QWORD PTR [rax+0x800398],0x0
   140001519:	00 00 00 00 
   14000151d:	48 8b 05 e4 ea 00 00 	mov    rax,QWORD PTR [rip+0xeae4]        # 140010008 <vmcs>
   140001524:	48 c7 80 a0 03 80 00 	mov    QWORD PTR [rax+0x8003a0],0xb025
   14000152b:	25 b0 00 00 
   14000152f:	48 8b 05 d2 ea 00 00 	mov    rax,QWORD PTR [rip+0xead2]        # 140010008 <vmcs>
   140001536:	48 c7 80 a8 03 80 00 	mov    QWORD PTR [rax+0x8003a8],0x0
   14000153d:	00 00 00 00 
   140001541:	48 8b 05 c0 ea 00 00 	mov    rax,QWORD PTR [rip+0xeac0]        # 140010008 <vmcs>
   140001548:	48 c7 80 b0 03 80 00 	mov    QWORD PTR [rax+0x8003b0],0x0
   14000154f:	00 00 00 00 
   140001553:	48 8b 05 ae ea 00 00 	mov    rax,QWORD PTR [rip+0xeaae]        # 140010008 <vmcs>
   14000155a:	c7 80 b8 03 80 00 01 	mov    DWORD PTR [rax+0x8003b8],0x1
   140001561:	00 00 00 
   140001564:	cc                   	int3
   140001565:	90                   	nop
   140001566:	48 8d 05 f3 ea 00 00 	lea    rax,[rip+0xeaf3]        # 140010060 <_ZN5rvm644rvni11alias_tableE>
   14000156d:	48 89 45 f0          	mov    QWORD PTR [rbp-0x10],rax
   140001571:	48 8d 05 e8 ea 00 00 	lea    rax,[rip+0xeae8]        # 140010060 <_ZN5rvm644rvni11alias_tableE>
   140001578:	48 89 45 f8          	mov    QWORD PTR [rbp-0x8],rax
   14000157c:	48 8d 05 2d eb 00 00 	lea    rax,[rip+0xeb2d]        # 1400100b0 <_ZN5rvm644rvni11alias_tableE+0x50>
   140001583:	48 89 45 e8          	mov    QWORD PTR [rbp-0x18],rax
   140001587:	eb 32                	jmp    1400015bb <_ZN5rvm644rvni22windows_thunk_resolverEPKc+0x122>
   140001589:	48 8b 45 f8          	mov    rax,QWORD PTR [rbp-0x8]
   14000158d:	48 89 45 e0          	mov    QWORD PTR [rbp-0x20],rax
   140001591:	48 8b 45 e0          	mov    rax,QWORD PTR [rbp-0x20]
   140001595:	48 8b 10             	mov    rdx,QWORD PTR [rax]
   140001598:	48 8b 45 20          	mov    rax,QWORD PTR [rbp+0x20]
   14000159c:	48 89 c1             	mov    rcx,rax
   14000159f:	e8 84 bd 00 00       	call   14000d328 <strcmp>
   1400015a4:	85 c0                	test   eax,eax
   1400015a6:	75 0e                	jne    1400015b6 <_ZN5rvm644rvni22windows_thunk_resolverEPKc+0x11d>
   1400015a8:	48 8b 45 e0          	mov    rax,QWORD PTR [rbp-0x20]
   1400015ac:	48 8b 40 08          	mov    rax,QWORD PTR [rax+0x8]
   1400015b0:	48 89 45 20          	mov    QWORD PTR [rbp+0x20],rax
   1400015b4:	eb 0f                	jmp    1400015c5 <_ZN5rvm644rvni22windows_thunk_resolverEPKc+0x12c>
   1400015b6:	48 83 45 f8 10       	add    QWORD PTR [rbp-0x8],0x10
   1400015bb:	48 8b 45 f8          	mov    rax,QWORD PTR [rbp-0x8]
   1400015bf:	48 3b 45 e8          	cmp    rax,QWORD PTR [rbp-0x18]
   1400015c3:	75 c4                	jne    140001589 <_ZN5rvm644rvni22windows_thunk_resolverEPKc+0xf0>
   1400015c5:	48 8b 05 64 3a 01 00 	mov    rax,QWORD PTR [rip+0x13a64]        # 140015030 <_ZZN5rvm644rvni22windows_thunk_resolverEPKcE4ucrt>
   1400015cc:	48 8b 55 20          	mov    rdx,QWORD PTR [rbp+0x20]
   1400015d0:	48 89 c1             	mov    rcx,rax
   1400015d3:	48 8b 05 9e 4c 01 00 	mov    rax,QWORD PTR [rip+0x14c9e]        # 140016278 <__imp_GetProcAddress>
   1400015da:	ff d0                	call   rax
   1400015dc:	48 89 45 d8          	mov    QWORD PTR [rbp-0x28],rax
   1400015e0:	48 83 7d d8 00       	cmp    QWORD PTR [rbp-0x28],0x0
   1400015e5:	75 5b                	jne    140001642 <_ZN5rvm644rvni22windows_thunk_resolverEPKc+0x1a9>
   1400015e7:	48 8b 05 1a ea 00 00 	mov    rax,QWORD PTR [rip+0xea1a]        # 140010008 <vmcs>
   1400015ee:	48 c7 80 98 03 80 00 	mov    QWORD PTR [rax+0x800398],0x0
   1400015f5:	00 00 00 00 
   1400015f9:	48 8b 05 08 ea 00 00 	mov    rax,QWORD PTR [rip+0xea08]        # 140010008 <vmcs>
   140001600:	48 c7 80 a0 03 80 00 	mov    QWORD PTR [rax+0x8003a0],0xb025
   140001607:	25 b0 00 00 
   14000160b:	48 8b 05 f6 e9 00 00 	mov    rax,QWORD PTR [rip+0xe9f6]        # 140010008 <vmcs>
   140001612:	48 c7 80 a8 03 80 00 	mov    QWORD PTR [rax+0x8003a8],0x0
   140001619:	00 00 00 00 
   14000161d:	48 8b 05 e4 e9 00 00 	mov    rax,QWORD PTR [rip+0xe9e4]        # 140010008 <vmcs>
   140001624:	48 c7 80 b0 03 80 00 	mov    QWORD PTR [rax+0x8003b0],0x0
   14000162b:	00 00 00 00 
   14000162f:	48 8b 05 d2 e9 00 00 	mov    rax,QWORD PTR [rip+0xe9d2]        # 140010008 <vmcs>
   140001636:	c7 80 b8 03 80 00 01 	mov    DWORD PTR [rax+0x8003b8],0x1
   14000163d:	00 00 00 
   140001640:	cc                   	int3
   140001641:	90                   	nop
   140001642:	48 8b 45 d8          	mov    rax,QWORD PTR [rbp-0x28]
   140001646:	eb 22                	jmp    14000166a <_ZN5rvm644rvni22windows_thunk_resolverEPKc+0x1d1>
   140001648:	48 89 c3             	mov    rbx,rax
   14000164b:	40 84 f6             	test   sil,sil
   14000164e:	75 0f                	jne    14000165f <_ZN5rvm644rvni22windows_thunk_resolverEPKc+0x1c6>
   140001650:	48 8d 05 e1 39 01 00 	lea    rax,[rip+0x139e1]        # 140015038 <_ZGVZN5rvm644rvni22windows_thunk_resolverEPKcE4ucrt>
   140001657:	48 89 c1             	mov    rcx,rax
   14000165a:	e8 61 aa 00 00       	call   14000c0c0 <__cxa_guard_abort>
   14000165f:	48 89 d8             	mov    rax,rbx
   140001662:	48 89 c1             	mov    rcx,rax
   140001665:	e8 66 bb 00 00       	call   14000d1d0 <_Unwind_Resume>
   14000166a:	48 83 c4 50          	add    rsp,0x50
   14000166e:	5b                   	pop    rbx
   14000166f:	5e                   	pop    rsi
   140001670:	5d                   	pop    rbp
   140001671:	c3                   	ret

0000000140001672 <_ZN5rvm644rvni20resolve_ucrt_importsEv>:
   140001672:	55                   	push   rbp
   140001673:	48 81 ec 40 01 00 00 	sub    rsp,0x140
   14000167a:	48 8d ac 24 80 00 00 	lea    rbp,[rsp+0x80]
   140001681:	00 
   140001682:	48 8d 05 ba f9 00 00 	lea    rax,[rip+0xf9ba]        # 140011043 <_ZL3key+0x43>
   140001689:	48 89 c1             	mov    rcx,rax
   14000168c:	48 8b 05 fd 4b 01 00 	mov    rax,QWORD PTR [rip+0x14bfd]        # 140016290 <__imp_LoadLibraryA>
   140001693:	ff d0                	call   rax
   140001695:	48 89 85 b0 00 00 00 	mov    QWORD PTR [rbp+0xb0],rax
   14000169c:	48 83 bd b0 00 00 00 	cmp    QWORD PTR [rbp+0xb0],0x0
   1400016a3:	00 
   1400016a4:	75 5b                	jne    140001701 <_ZN5rvm644rvni20resolve_ucrt_importsEv+0x8f>
   1400016a6:	48 8b 05 5b e9 00 00 	mov    rax,QWORD PTR [rip+0xe95b]        # 140010008 <vmcs>
   1400016ad:	48 c7 80 98 03 80 00 	mov    QWORD PTR [rax+0x800398],0x0
   1400016b4:	00 00 00 00 
   1400016b8:	48 8b 05 49 e9 00 00 	mov    rax,QWORD PTR [rip+0xe949]        # 140010008 <vmcs>
   1400016bf:	48 c7 80 a0 03 80 00 	mov    QWORD PTR [rax+0x8003a0],0xb025
   1400016c6:	25 b0 00 00 
   1400016ca:	48 8b 05 37 e9 00 00 	mov    rax,QWORD PTR [rip+0xe937]        # 140010008 <vmcs>
   1400016d1:	48 c7 80 a8 03 80 00 	mov    QWORD PTR [rax+0x8003a8],0x0
   1400016d8:	00 00 00 00 
   1400016dc:	48 8b 05 25 e9 00 00 	mov    rax,QWORD PTR [rip+0xe925]        # 140010008 <vmcs>
   1400016e3:	48 c7 80 b0 03 80 00 	mov    QWORD PTR [rax+0x8003b0],0x0
   1400016ea:	00 00 00 00 
   1400016ee:	48 8b 05 13 e9 00 00 	mov    rax,QWORD PTR [rip+0xe913]        # 140010008 <vmcs>
   1400016f5:	c7 80 b8 03 80 00 01 	mov    DWORD PTR [rax+0x8003b8],0x1
   1400016fc:	00 00 00 
   1400016ff:	cc                   	int3
   140001700:	90                   	nop
   140001701:	48 8d 05 05 f9 00 00 	lea    rax,[rip+0xf905]        # 14001100d <_ZL3key+0xd>
   140001708:	48 89 45 c0          	mov    QWORD PTR [rbp-0x40],rax
   14000170c:	c7 45 c8 00 00 00 00 	mov    DWORD PTR [rbp-0x38],0x0
   140001713:	48 8d 05 fe f8 00 00 	lea    rax,[rip+0xf8fe]        # 140011018 <_ZL3key+0x18>
   14000171a:	48 89 45 d0          	mov    QWORD PTR [rbp-0x30],rax
   14000171e:	c7 45 d8 01 00 00 00 	mov    DWORD PTR [rbp-0x28],0x1
   140001725:	48 8d 05 f8 f8 00 00 	lea    rax,[rip+0xf8f8]        # 140011024 <_ZL3key+0x24>
   14000172c:	48 89 45 e0          	mov    QWORD PTR [rbp-0x20],rax
   140001730:	c7 45 e8 02 00 00 00 	mov    DWORD PTR [rbp-0x18],0x2
   140001737:	48 8d 05 f3 f8 00 00 	lea    rax,[rip+0xf8f3]        # 140011031 <_ZL3key+0x31>
   14000173e:	48 89 45 f0          	mov    QWORD PTR [rbp-0x10],rax
   140001742:	c7 45 f8 03 00 00 00 	mov    DWORD PTR [rbp-0x8],0x3
   140001749:	48 8d 05 00 f9 00 00 	lea    rax,[rip+0xf900]        # 140011050 <_ZL3key+0x50>
   140001750:	48 89 45 00          	mov    QWORD PTR [rbp+0x0],rax
   140001754:	c7 45 08 04 00 00 00 	mov    DWORD PTR [rbp+0x8],0x4
   14000175b:	48 8d 05 f5 f8 00 00 	lea    rax,[rip+0xf8f5]        # 140011057 <_ZL3key+0x57>
   140001762:	48 89 45 10          	mov    QWORD PTR [rbp+0x10],rax
   140001766:	c7 45 18 05 00 00 00 	mov    DWORD PTR [rbp+0x18],0x5
   14000176d:	48 8d 05 eb f8 00 00 	lea    rax,[rip+0xf8eb]        # 14001105f <_ZL3key+0x5f>
   140001774:	48 89 45 20          	mov    QWORD PTR [rbp+0x20],rax
   140001778:	c7 45 28 06 00 00 00 	mov    DWORD PTR [rbp+0x28],0x6
   14000177f:	48 8d 05 e0 f8 00 00 	lea    rax,[rip+0xf8e0]        # 140011066 <_ZL3key+0x66>
   140001786:	48 89 45 30          	mov    QWORD PTR [rbp+0x30],rax
   14000178a:	c7 45 38 07 00 00 00 	mov    DWORD PTR [rbp+0x38],0x7
   140001791:	48 8d 05 d3 f8 00 00 	lea    rax,[rip+0xf8d3]        # 14001106b <_ZL3key+0x6b>
   140001798:	48 89 45 40          	mov    QWORD PTR [rbp+0x40],rax
   14000179c:	c7 45 48 08 00 00 00 	mov    DWORD PTR [rbp+0x48],0x8
   1400017a3:	48 8d 05 c8 f8 00 00 	lea    rax,[rip+0xf8c8]        # 140011072 <_ZL3key+0x72>
   1400017aa:	48 89 45 50          	mov    QWORD PTR [rbp+0x50],rax
   1400017ae:	c7 45 58 09 00 00 00 	mov    DWORD PTR [rbp+0x58],0x9
   1400017b5:	48 8d 05 bd f8 00 00 	lea    rax,[rip+0xf8bd]        # 140011079 <_ZL3key+0x79>
   1400017bc:	48 89 45 60          	mov    QWORD PTR [rbp+0x60],rax
   1400017c0:	c7 45 68 0a 00 00 00 	mov    DWORD PTR [rbp+0x68],0xa
   1400017c7:	48 8d 05 b2 f8 00 00 	lea    rax,[rip+0xf8b2]        # 140011080 <_ZL3key+0x80>
   1400017ce:	48 89 45 70          	mov    QWORD PTR [rbp+0x70],rax
   1400017d2:	c7 45 78 0b 00 00 00 	mov    DWORD PTR [rbp+0x78],0xb
   1400017d9:	48 8d 05 a7 f8 00 00 	lea    rax,[rip+0xf8a7]        # 140011087 <_ZL3key+0x87>
   1400017e0:	48 89 85 80 00 00 00 	mov    QWORD PTR [rbp+0x80],rax
   1400017e7:	c7 85 88 00 00 00 0c 	mov    DWORD PTR [rbp+0x88],0xc
   1400017ee:	00 00 00 
   1400017f1:	48 8d 45 c0          	lea    rax,[rbp-0x40]
   1400017f5:	48 89 85 a8 00 00 00 	mov    QWORD PTR [rbp+0xa8],rax
   1400017fc:	48 8b 85 a8 00 00 00 	mov    rax,QWORD PTR [rbp+0xa8]
   140001803:	48 89 85 b8 00 00 00 	mov    QWORD PTR [rbp+0xb8],rax
   14000180a:	48 8b 85 a8 00 00 00 	mov    rax,QWORD PTR [rbp+0xa8]
   140001811:	48 05 d0 00 00 00    	add    rax,0xd0
   140001817:	48 89 85 a0 00 00 00 	mov    QWORD PTR [rbp+0xa0],rax
   14000181e:	e9 14 02 00 00       	jmp    140001a37 <_ZN5rvm644rvni20resolve_ucrt_importsEv+0x3c5>
   140001823:	48 8b 85 b8 00 00 00 	mov    rax,QWORD PTR [rbp+0xb8]
   14000182a:	48 89 85 98 00 00 00 	mov    QWORD PTR [rbp+0x98],rax
   140001831:	48 8b 85 98 00 00 00 	mov    rax,QWORD PTR [rbp+0x98]
   140001838:	48 8b 10             	mov    rdx,QWORD PTR [rax]
   14000183b:	48 8b 85 b0 00 00 00 	mov    rax,QWORD PTR [rbp+0xb0]
   140001842:	48 89 c1             	mov    rcx,rax
   140001845:	48 8b 05 2c 4a 01 00 	mov    rax,QWORD PTR [rip+0x14a2c]        # 140016278 <__imp_GetProcAddress>
   14000184c:	ff d0                	call   rax
   14000184e:	48 89 45 b8          	mov    QWORD PTR [rbp-0x48],rax
   140001852:	48 8b 45 b8          	mov    rax,QWORD PTR [rbp-0x48]
   140001856:	48 85 c0             	test   rax,rax
   140001859:	75 5b                	jne    1400018b6 <_ZN5rvm644rvni20resolve_ucrt_importsEv+0x244>
   14000185b:	48 8b 05 a6 e7 00 00 	mov    rax,QWORD PTR [rip+0xe7a6]        # 140010008 <vmcs>
   140001862:	48 c7 80 98 03 80 00 	mov    QWORD PTR [rax+0x800398],0x0
   140001869:	00 00 00 00 
   14000186d:	48 8b 05 94 e7 00 00 	mov    rax,QWORD PTR [rip+0xe794]        # 140010008 <vmcs>
   140001874:	48 c7 80 a0 03 80 00 	mov    QWORD PTR [rax+0x8003a0],0xb025
   14000187b:	25 b0 00 00 
   14000187f:	48 8b 05 82 e7 00 00 	mov    rax,QWORD PTR [rip+0xe782]        # 140010008 <vmcs>
   140001886:	48 c7 80 a8 03 80 00 	mov    QWORD PTR [rax+0x8003a8],0x0
   14000188d:	00 00 00 00 
   140001891:	48 8b 05 70 e7 00 00 	mov    rax,QWORD PTR [rip+0xe770]        # 140010008 <vmcs>
   140001898:	48 c7 80 b0 03 80 00 	mov    QWORD PTR [rax+0x8003b0],0x0
   14000189f:	00 00 00 00 
   1400018a3:	48 8b 05 5e e7 00 00 	mov    rax,QWORD PTR [rip+0xe75e]        # 140010008 <vmcs>
   1400018aa:	c7 80 b8 03 80 00 01 	mov    DWORD PTR [rax+0x8003b8],0x1
   1400018b1:	00 00 00 
   1400018b4:	cc                   	int3
   1400018b5:	90                   	nop
   1400018b6:	66 0f ef c0          	pxor   xmm0,xmm0
   1400018ba:	0f 11 45 a0          	movups XMMWORD PTR [rbp-0x60],xmm0
   1400018be:	66 0f d6 45 b0       	movq   QWORD PTR [rbp-0x50],xmm0
   1400018c3:	48 8b 45 b8          	mov    rax,QWORD PTR [rbp-0x48]
   1400018c7:	48 89 45 a0          	mov    QWORD PTR [rbp-0x60],rax
   1400018cb:	48 8b 85 98 00 00 00 	mov    rax,QWORD PTR [rbp+0x98]
   1400018d2:	8b 40 08             	mov    eax,DWORD PTR [rax+0x8]
   1400018d5:	89 45 a8             	mov    DWORD PTR [rbp-0x58],eax
   1400018d8:	8b 45 a8             	mov    eax,DWORD PTR [rbp-0x58]
   1400018db:	83 f8 0c             	cmp    eax,0xc
   1400018de:	0f 87 bf 00 00 00    	ja     1400019a3 <_ZN5rvm644rvni20resolve_ucrt_importsEv+0x331>
   1400018e4:	89 c0                	mov    eax,eax
   1400018e6:	48 8d 14 85 00 00 00 	lea    rdx,[rax*4+0x0]
   1400018ed:	00 
   1400018ee:	48 8d 05 9b f7 00 00 	lea    rax,[rip+0xf79b]        # 140011090 <_ZL3key+0x90>
   1400018f5:	8b 04 02             	mov    eax,DWORD PTR [rdx+rax*1]
   1400018f8:	48 98                	cdqe
   1400018fa:	48 8d 15 8f f7 00 00 	lea    rdx,[rip+0xf78f]        # 140011090 <_ZL3key+0x90>
   140001901:	48 01 d0             	add    rax,rdx
   140001904:	ff e0                	jmp    rax
   140001906:	48 8b 45 b8          	mov    rax,QWORD PTR [rbp-0x48]
   14000190a:	48 89 45 b0          	mov    QWORD PTR [rbp-0x50],rax
   14000190e:	e9 ec 00 00 00       	jmp    1400019ff <_ZN5rvm644rvni20resolve_ucrt_importsEv+0x38d>
   140001913:	48 8b 45 b8          	mov    rax,QWORD PTR [rbp-0x48]
   140001917:	48 89 45 b0          	mov    QWORD PTR [rbp-0x50],rax
   14000191b:	e9 df 00 00 00       	jmp    1400019ff <_ZN5rvm644rvni20resolve_ucrt_importsEv+0x38d>
   140001920:	48 8b 45 b8          	mov    rax,QWORD PTR [rbp-0x48]
   140001924:	48 89 45 b0          	mov    QWORD PTR [rbp-0x50],rax
   140001928:	e9 d2 00 00 00       	jmp    1400019ff <_ZN5rvm644rvni20resolve_ucrt_importsEv+0x38d>
   14000192d:	48 8b 45 b8          	mov    rax,QWORD PTR [rbp-0x48]
   140001931:	48 89 45 b0          	mov    QWORD PTR [rbp-0x50],rax
   140001935:	e9 c5 00 00 00       	jmp    1400019ff <_ZN5rvm644rvni20resolve_ucrt_importsEv+0x38d>
   14000193a:	48 8b 45 b8          	mov    rax,QWORD PTR [rbp-0x48]
   14000193e:	48 89 45 b0          	mov    QWORD PTR [rbp-0x50],rax
   140001942:	e9 b8 00 00 00       	jmp    1400019ff <_ZN5rvm644rvni20resolve_ucrt_importsEv+0x38d>
   140001947:	48 8b 45 b8          	mov    rax,QWORD PTR [rbp-0x48]
   14000194b:	48 89 45 b0          	mov    QWORD PTR [rbp-0x50],rax
   14000194f:	e9 ab 00 00 00       	jmp    1400019ff <_ZN5rvm644rvni20resolve_ucrt_importsEv+0x38d>
   140001954:	48 8b 45 b8          	mov    rax,QWORD PTR [rbp-0x48]
   140001958:	48 89 45 b0          	mov    QWORD PTR [rbp-0x50],rax
   14000195c:	e9 9e 00 00 00       	jmp    1400019ff <_ZN5rvm644rvni20resolve_ucrt_importsEv+0x38d>
   140001961:	48 8b 45 b8          	mov    rax,QWORD PTR [rbp-0x48]
   140001965:	48 89 45 b0          	mov    QWORD PTR [rbp-0x50],rax
   140001969:	e9 91 00 00 00       	jmp    1400019ff <_ZN5rvm644rvni20resolve_ucrt_importsEv+0x38d>
   14000196e:	48 8b 45 b8          	mov    rax,QWORD PTR [rbp-0x48]
   140001972:	48 89 45 b0          	mov    QWORD PTR [rbp-0x50],rax
   140001976:	e9 84 00 00 00       	jmp    1400019ff <_ZN5rvm644rvni20resolve_ucrt_importsEv+0x38d>
   14000197b:	48 8b 45 b8          	mov    rax,QWORD PTR [rbp-0x48]
   14000197f:	48 89 45 b0          	mov    QWORD PTR [rbp-0x50],rax
   140001983:	eb 7a                	jmp    1400019ff <_ZN5rvm644rvni20resolve_ucrt_importsEv+0x38d>
   140001985:	48 8b 45 b8          	mov    rax,QWORD PTR [rbp-0x48]
   140001989:	48 89 45 b0          	mov    QWORD PTR [rbp-0x50],rax
   14000198d:	eb 70                	jmp    1400019ff <_ZN5rvm644rvni20resolve_ucrt_importsEv+0x38d>
   14000198f:	48 8b 45 b8          	mov    rax,QWORD PTR [rbp-0x48]
   140001993:	48 89 45 b0          	mov    QWORD PTR [rbp-0x50],rax
   140001997:	eb 66                	jmp    1400019ff <_ZN5rvm644rvni20resolve_ucrt_importsEv+0x38d>
   140001999:	48 8b 45 b8          	mov    rax,QWORD PTR [rbp-0x48]
   14000199d:	48 89 45 b0          	mov    QWORD PTR [rbp-0x50],rax
   1400019a1:	eb 5c                	jmp    1400019ff <_ZN5rvm644rvni20resolve_ucrt_importsEv+0x38d>
   1400019a3:	48 8b 05 5e e6 00 00 	mov    rax,QWORD PTR [rip+0xe65e]        # 140010008 <vmcs>
   1400019aa:	48 c7 80 98 03 80 00 	mov    QWORD PTR [rax+0x800398],0x0
   1400019b1:	00 00 00 00 
   1400019b5:	48 8b 05 4c e6 00 00 	mov    rax,QWORD PTR [rip+0xe64c]        # 140010008 <vmcs>
   1400019bc:	48 c7 80 a0 03 80 00 	mov    QWORD PTR [rax+0x8003a0],0xb025
   1400019c3:	25 b0 00 00 
   1400019c7:	48 8b 05 3a e6 00 00 	mov    rax,QWORD PTR [rip+0xe63a]        # 140010008 <vmcs>
   1400019ce:	48 c7 80 a8 03 80 00 	mov    QWORD PTR [rax+0x8003a8],0x0
   1400019d5:	00 00 00 00 
   1400019d9:	48 8b 05 28 e6 00 00 	mov    rax,QWORD PTR [rip+0xe628]        # 140010008 <vmcs>
   1400019e0:	48 c7 80 b0 03 80 00 	mov    QWORD PTR [rax+0x8003b0],0x0
   1400019e7:	00 00 00 00 
   1400019eb:	48 8b 05 16 e6 00 00 	mov    rax,QWORD PTR [rip+0xe616]        # 140010008 <vmcs>
   1400019f2:	c7 80 b8 03 80 00 01 	mov    DWORD PTR [rax+0x8003b8],0x1
   1400019f9:	00 00 00 
   1400019fc:	cc                   	int3
   1400019fd:	eb 4c                	jmp    140001a4b <_ZN5rvm644rvni20resolve_ucrt_importsEv+0x3d9>
   1400019ff:	48 8d 45 b8          	lea    rax,[rbp-0x48]
   140001a03:	48 89 c2             	mov    rdx,rax
   140001a06:	48 8d 05 13 e6 00 00 	lea    rax,[rip+0xe613]        # 140010020 <_ZN5rvm644rvni17ucrt_native_tableE>
   140001a0d:	48 89 c1             	mov    rcx,rax
   140001a10:	e8 0b cb 00 00       	call   14000e520 <_ZNSt13unordered_mapIPv12ucrt_wrapperSt4hashIS0_ESt8equal_toIS0_ESaISt4pairIKS0_S1_EEEixERS7_>
   140001a15:	48 89 c1             	mov    rcx,rax
   140001a18:	48 8b 45 a0          	mov    rax,QWORD PTR [rbp-0x60]
   140001a1c:	48 8b 55 a8          	mov    rdx,QWORD PTR [rbp-0x58]
   140001a20:	48 89 01             	mov    QWORD PTR [rcx],rax
   140001a23:	48 89 51 08          	mov    QWORD PTR [rcx+0x8],rdx
   140001a27:	48 8b 45 b0          	mov    rax,QWORD PTR [rbp-0x50]
   140001a2b:	48 89 41 10          	mov    QWORD PTR [rcx+0x10],rax
   140001a2f:	48 83 85 b8 00 00 00 	add    QWORD PTR [rbp+0xb8],0x10
   140001a36:	10 
   140001a37:	48 8b 85 b8 00 00 00 	mov    rax,QWORD PTR [rbp+0xb8]
   140001a3e:	48 3b 85 a0 00 00 00 	cmp    rax,QWORD PTR [rbp+0xa0]
   140001a45:	0f 85 d8 fd ff ff    	jne    140001823 <_ZN5rvm644rvni20resolve_ucrt_importsEv+0x1b1>
   140001a4b:	48 81 c4 40 01 00 00 	add    rsp,0x140
   140001a52:	5d                   	pop    rbp
   140001a53:	c3                   	ret

0000000140001a54 <_ZN5rvm644rvni14vm_native_callEv>:
   140001a54:	55                   	push   rbp
   140001a55:	56                   	push   rsi
   140001a56:	53                   	push   rbx
   140001a57:	48 81 ec b0 01 00 00 	sub    rsp,0x1b0
   140001a5e:	48 8d ac 24 80 00 00 	lea    rbp,[rsp+0x80]
   140001a65:	00 
   140001a66:	48 8b 05 9b e5 00 00 	mov    rax,QWORD PTR [rip+0xe59b]        # 140010008 <vmcs>
   140001a6d:	48 8b 00             	mov    rax,QWORD PTR [rax]
   140001a70:	48 89 45 00          	mov    QWORD PTR [rbp+0x0],rax
   140001a74:	48 89 e8             	mov    rax,rbp
   140001a77:	48 89 c2             	mov    rdx,rax
   140001a7a:	48 8d 05 9f e5 00 00 	lea    rax,[rip+0xe59f]        # 140010020 <_ZN5rvm644rvni17ucrt_native_tableE>
   140001a81:	48 89 c1             	mov    rcx,rax
   140001a84:	e8 27 ca 00 00       	call   14000e4b0 <_ZNSt13unordered_mapIPv12ucrt_wrapperSt4hashIS0_ESt8equal_toIS0_ESaISt4pairIKS0_S1_EEE4findERS7_>
   140001a89:	48 89 45 f8          	mov    QWORD PTR [rbp-0x8],rax
   140001a8d:	48 8d 05 8c e5 00 00 	lea    rax,[rip+0xe58c]        # 140010020 <_ZN5rvm644rvni17ucrt_native_tableE>
   140001a94:	48 89 c1             	mov    rcx,rax
   140001a97:	e8 f4 c9 00 00       	call   14000e490 <_ZNSt13unordered_mapIPv12ucrt_wrapperSt4hashIS0_ESt8equal_toIS0_ESaISt4pairIKS0_S1_EEE3endEv>
   140001a9c:	48 89 45 08          	mov    QWORD PTR [rbp+0x8],rax
   140001aa0:	48 8d 55 08          	lea    rdx,[rbp+0x8]
   140001aa4:	48 8d 45 f8          	lea    rax,[rbp-0x8]
   140001aa8:	48 89 c1             	mov    rcx,rax
   140001aab:	e8 20 d6 00 00       	call   14000f0d0 <_ZNSt8__detaileqERKNS_19_Node_iterator_baseISt4pairIKPv12ucrt_wrapperELb0EEES8_>
   140001ab0:	84 c0                	test   al,al
   140001ab2:	74 67                	je     140001b1b <_ZN5rvm644rvni14vm_native_callEv+0xc7>
   140001ab4:	48 8b 15 4d e5 00 00 	mov    rdx,QWORD PTR [rip+0xe54d]        # 140010008 <vmcs>
   140001abb:	48 8b 05 46 e5 00 00 	mov    rax,QWORD PTR [rip+0xe546]        # 140010008 <vmcs>
   140001ac2:	48 8b 12             	mov    rdx,QWORD PTR [rdx]
   140001ac5:	48 89 90 98 03 80 00 	mov    QWORD PTR [rax+0x800398],rdx
   140001acc:	48 8b 05 35 e5 00 00 	mov    rax,QWORD PTR [rip+0xe535]        # 140010008 <vmcs>
   140001ad3:	48 c7 80 a0 03 80 00 	mov    QWORD PTR [rax+0x8003a0],0xb02
   140001ada:	02 0b 00 00 
   140001ade:	48 8b 05 23 e5 00 00 	mov    rax,QWORD PTR [rip+0xe523]        # 140010008 <vmcs>
   140001ae5:	48 c7 80 a8 03 80 00 	mov    QWORD PTR [rax+0x8003a8],0x0
   140001aec:	00 00 00 00 
   140001af0:	48 8b 15 11 e5 00 00 	mov    rdx,QWORD PTR [rip+0xe511]        # 140010008 <vmcs>
   140001af7:	48 8b 05 0a e5 00 00 	mov    rax,QWORD PTR [rip+0xe50a]        # 140010008 <vmcs>
   140001afe:	48 8b 12             	mov    rdx,QWORD PTR [rdx]
   140001b01:	48 89 90 b0 03 80 00 	mov    QWORD PTR [rax+0x8003b0],rdx
   140001b08:	48 8b 05 f9 e4 00 00 	mov    rax,QWORD PTR [rip+0xe4f9]        # 140010008 <vmcs>
   140001b0f:	c7 80 b8 03 80 00 01 	mov    DWORD PTR [rax+0x8003b8],0x1
   140001b16:	00 00 00 
   140001b19:	cc                   	int3
   140001b1a:	90                   	nop
   140001b1b:	48 8d 45 f8          	lea    rax,[rbp-0x8]
   140001b1f:	48 89 c1             	mov    rcx,rax
   140001b22:	e8 69 bd 00 00       	call   14000d890 <_ZNKSt8__detail14_Node_iteratorISt4pairIKPv12ucrt_wrapperELb0ELb0EEptEv>
   140001b27:	48 83 c0 08          	add    rax,0x8
   140001b2b:	48 89 85 20 01 00 00 	mov    QWORD PTR [rbp+0x120],rax
   140001b32:	48 8b 85 20 01 00 00 	mov    rax,QWORD PTR [rbp+0x120]
   140001b39:	8b 40 08             	mov    eax,DWORD PTR [rax+0x8]
   140001b3c:	83 f8 0c             	cmp    eax,0xc
   140001b3f:	0f 87 92 06 00 00    	ja     1400021d7 <_ZN5rvm644rvni14vm_native_callEv+0x783>
   140001b45:	89 c0                	mov    eax,eax
   140001b47:	48 8d 14 85 00 00 00 	lea    rdx,[rax*4+0x0]
   140001b4e:	00 
   140001b4f:	48 8d 05 6e f5 00 00 	lea    rax,[rip+0xf56e]        # 1400110c4 <_ZL3key+0xc4>
   140001b56:	8b 04 02             	mov    eax,DWORD PTR [rdx+rax*1]
   140001b59:	48 98                	cdqe
   140001b5b:	48 8d 15 62 f5 00 00 	lea    rdx,[rip+0xf562]        # 1400110c4 <_ZL3key+0xc4>
   140001b62:	48 01 d0             	add    rax,rdx
   140001b65:	ff e0                	jmp    rax
   140001b67:	c7 45 30 00 00 00 00 	mov    DWORD PTR [rbp+0x30],0x0
   140001b6e:	c7 45 2c 00 00 00 00 	mov    DWORD PTR [rbp+0x2c],0x0
   140001b75:	48 8b 05 8c e4 00 00 	mov    rax,QWORD PTR [rip+0xe48c]        # 140010008 <vmcs>
   140001b7c:	48 8b 80 68 01 00 00 	mov    rax,QWORD PTR [rax+0x168]
   140001b83:	48 89 45 20          	mov    QWORD PTR [rbp+0x20],rax
   140001b87:	48 8b 05 7a e4 00 00 	mov    rax,QWORD PTR [rip+0xe47a]        # 140010008 <vmcs>
   140001b8e:	48 8b 80 70 01 00 00 	mov    rax,QWORD PTR [rax+0x170]
   140001b95:	89 45 30             	mov    DWORD PTR [rbp+0x30],eax
   140001b98:	48 8b 05 69 e4 00 00 	mov    rax,QWORD PTR [rip+0xe469]        # 140010008 <vmcs>
   140001b9f:	48 8b 80 78 01 00 00 	mov    rax,QWORD PTR [rax+0x178]
   140001ba6:	89 45 2c             	mov    DWORD PTR [rbp+0x2c],eax
   140001ba9:	e8 4c a4 00 00       	call   14000bffa <save_vm_context>
   140001bae:	48 8b 85 20 01 00 00 	mov    rax,QWORD PTR [rbp+0x120]
   140001bb5:	4c 8b 48 10          	mov    r9,QWORD PTR [rax+0x10]
   140001bb9:	8b 4d 2c             	mov    ecx,DWORD PTR [rbp+0x2c]
   140001bbc:	8b 55 30             	mov    edx,DWORD PTR [rbp+0x30]
   140001bbf:	48 8b 45 20          	mov    rax,QWORD PTR [rbp+0x20]
   140001bc3:	41 89 c8             	mov    r8d,ecx
   140001bc6:	48 89 c1             	mov    rcx,rax
   140001bc9:	41 ff d1             	call   r9
   140001bcc:	89 45 1c             	mov    DWORD PTR [rbp+0x1c],eax
   140001bcf:	e8 77 a4 00 00       	call   14000c04b <restore_vm_context>
   140001bd4:	48 8b 05 2d e4 00 00 	mov    rax,QWORD PTR [rip+0xe42d]        # 140010008 <vmcs>
   140001bdb:	8b 55 1c             	mov    edx,DWORD PTR [rbp+0x1c]
   140001bde:	48 63 d2             	movsxd rdx,edx
   140001be1:	48 89 90 68 01 00 00 	mov    QWORD PTR [rax+0x168],rdx
   140001be8:	e9 53 06 00 00       	jmp    140002240 <_ZN5rvm644rvni14vm_native_callEv+0x7ec>
   140001bed:	c7 45 48 00 00 00 00 	mov    DWORD PTR [rbp+0x48],0x0
   140001bf4:	c7 45 44 00 00 00 00 	mov    DWORD PTR [rbp+0x44],0x0
   140001bfb:	48 8b 05 06 e4 00 00 	mov    rax,QWORD PTR [rip+0xe406]        # 140010008 <vmcs>
   140001c02:	48 8b 80 68 01 00 00 	mov    rax,QWORD PTR [rax+0x168]
   140001c09:	89 45 48             	mov    DWORD PTR [rbp+0x48],eax
   140001c0c:	48 8b 05 f5 e3 00 00 	mov    rax,QWORD PTR [rip+0xe3f5]        # 140010008 <vmcs>
   140001c13:	48 8b 80 70 01 00 00 	mov    rax,QWORD PTR [rax+0x170]
   140001c1a:	48 89 45 38          	mov    QWORD PTR [rbp+0x38],rax
   140001c1e:	48 8b 05 e3 e3 00 00 	mov    rax,QWORD PTR [rip+0xe3e3]        # 140010008 <vmcs>
   140001c25:	48 8b 80 78 01 00 00 	mov    rax,QWORD PTR [rax+0x178]
   140001c2c:	89 45 44             	mov    DWORD PTR [rbp+0x44],eax
   140001c2f:	e8 c6 a3 00 00       	call   14000bffa <save_vm_context>
   140001c34:	48 8b 85 20 01 00 00 	mov    rax,QWORD PTR [rbp+0x120]
   140001c3b:	4c 8b 48 10          	mov    r9,QWORD PTR [rax+0x10]
   140001c3f:	8b 4d 44             	mov    ecx,DWORD PTR [rbp+0x44]
   140001c42:	48 8b 55 38          	mov    rdx,QWORD PTR [rbp+0x38]
   140001c46:	8b 45 48             	mov    eax,DWORD PTR [rbp+0x48]
   140001c49:	41 89 c8             	mov    r8d,ecx
   140001c4c:	89 c1                	mov    ecx,eax
   140001c4e:	41 ff d1             	call   r9
   140001c51:	89 45 34             	mov    DWORD PTR [rbp+0x34],eax
   140001c54:	e8 f2 a3 00 00       	call   14000c04b <restore_vm_context>
   140001c59:	48 8b 05 a8 e3 00 00 	mov    rax,QWORD PTR [rip+0xe3a8]        # 140010008 <vmcs>
   140001c60:	8b 55 34             	mov    edx,DWORD PTR [rbp+0x34]
   140001c63:	48 63 d2             	movsxd rdx,edx
   140001c66:	48 89 90 68 01 00 00 	mov    QWORD PTR [rax+0x168],rdx
   140001c6d:	e9 ce 05 00 00       	jmp    140002240 <_ZN5rvm644rvni14vm_native_callEv+0x7ec>
   140001c72:	c7 45 60 00 00 00 00 	mov    DWORD PTR [rbp+0x60],0x0
   140001c79:	c7 45 5c 00 00 00 00 	mov    DWORD PTR [rbp+0x5c],0x0
   140001c80:	48 8b 05 81 e3 00 00 	mov    rax,QWORD PTR [rip+0xe381]        # 140010008 <vmcs>
   140001c87:	48 8b 80 68 01 00 00 	mov    rax,QWORD PTR [rax+0x168]
   140001c8e:	89 45 60             	mov    DWORD PTR [rbp+0x60],eax
   140001c91:	48 8b 05 70 e3 00 00 	mov    rax,QWORD PTR [rip+0xe370]        # 140010008 <vmcs>
   140001c98:	48 8b 80 70 01 00 00 	mov    rax,QWORD PTR [rax+0x170]
   140001c9f:	48 89 45 50          	mov    QWORD PTR [rbp+0x50],rax
   140001ca3:	48 8b 05 5e e3 00 00 	mov    rax,QWORD PTR [rip+0xe35e]        # 140010008 <vmcs>
   140001caa:	48 8b 80 78 01 00 00 	mov    rax,QWORD PTR [rax+0x178]
   140001cb1:	89 45 5c             	mov    DWORD PTR [rbp+0x5c],eax
   140001cb4:	e8 41 a3 00 00       	call   14000bffa <save_vm_context>
   140001cb9:	48 8b 85 20 01 00 00 	mov    rax,QWORD PTR [rbp+0x120]
   140001cc0:	4c 8b 48 10          	mov    r9,QWORD PTR [rax+0x10]
   140001cc4:	8b 4d 5c             	mov    ecx,DWORD PTR [rbp+0x5c]
   140001cc7:	48 8b 55 50          	mov    rdx,QWORD PTR [rbp+0x50]
   140001ccb:	8b 45 60             	mov    eax,DWORD PTR [rbp+0x60]
   140001cce:	41 89 c8             	mov    r8d,ecx
   140001cd1:	89 c1                	mov    ecx,eax
   140001cd3:	41 ff d1             	call   r9
   140001cd6:	89 45 4c             	mov    DWORD PTR [rbp+0x4c],eax
   140001cd9:	e8 6d a3 00 00       	call   14000c04b <restore_vm_context>
   140001cde:	48 8b 05 23 e3 00 00 	mov    rax,QWORD PTR [rip+0xe323]        # 140010008 <vmcs>
   140001ce5:	8b 55 4c             	mov    edx,DWORD PTR [rbp+0x4c]
   140001ce8:	48 63 d2             	movsxd rdx,edx
   140001ceb:	48 89 90 68 01 00 00 	mov    QWORD PTR [rax+0x168],rdx
   140001cf2:	e9 49 05 00 00       	jmp    140002240 <_ZN5rvm644rvni14vm_native_callEv+0x7ec>
   140001cf7:	c7 45 68 00 00 00 00 	mov    DWORD PTR [rbp+0x68],0x0
   140001cfe:	48 8b 05 03 e3 00 00 	mov    rax,QWORD PTR [rip+0xe303]        # 140010008 <vmcs>
   140001d05:	48 8b 80 68 01 00 00 	mov    rax,QWORD PTR [rax+0x168]
   140001d0c:	89 45 68             	mov    DWORD PTR [rbp+0x68],eax
   140001d0f:	e8 e6 a2 00 00       	call   14000bffa <save_vm_context>
   140001d14:	48 8b 85 20 01 00 00 	mov    rax,QWORD PTR [rbp+0x120]
   140001d1b:	48 8b 50 10          	mov    rdx,QWORD PTR [rax+0x10]
   140001d1f:	8b 45 68             	mov    eax,DWORD PTR [rbp+0x68]
   140001d22:	89 c1                	mov    ecx,eax
   140001d24:	ff d2                	call   rdx
   140001d26:	89 45 64             	mov    DWORD PTR [rbp+0x64],eax
   140001d29:	e8 1d a3 00 00       	call   14000c04b <restore_vm_context>
   140001d2e:	48 8b 05 d3 e2 00 00 	mov    rax,QWORD PTR [rip+0xe2d3]        # 140010008 <vmcs>
   140001d35:	8b 55 64             	mov    edx,DWORD PTR [rbp+0x64]
   140001d38:	48 63 d2             	movsxd rdx,edx
   140001d3b:	48 89 90 68 01 00 00 	mov    QWORD PTR [rax+0x168],rdx
   140001d42:	e9 f9 04 00 00       	jmp    140002240 <_ZN5rvm644rvni14vm_native_callEv+0x7ec>
   140001d47:	c7 45 78 00 00 00 00 	mov    DWORD PTR [rbp+0x78],0x0
   140001d4e:	c7 45 74 00 00 00 00 	mov    DWORD PTR [rbp+0x74],0x0
   140001d55:	c7 45 70 00 00 00 00 	mov    DWORD PTR [rbp+0x70],0x0
   140001d5c:	48 8b 05 a5 e2 00 00 	mov    rax,QWORD PTR [rip+0xe2a5]        # 140010008 <vmcs>
   140001d63:	48 8b 80 68 01 00 00 	mov    rax,QWORD PTR [rax+0x168]
   140001d6a:	89 45 78             	mov    DWORD PTR [rbp+0x78],eax
   140001d6d:	48 8b 05 94 e2 00 00 	mov    rax,QWORD PTR [rip+0xe294]        # 140010008 <vmcs>
   140001d74:	48 8b 80 70 01 00 00 	mov    rax,QWORD PTR [rax+0x170]
   140001d7b:	89 45 74             	mov    DWORD PTR [rbp+0x74],eax
   140001d7e:	48 8b 05 83 e2 00 00 	mov    rax,QWORD PTR [rip+0xe283]        # 140010008 <vmcs>
   140001d85:	48 8b 80 78 01 00 00 	mov    rax,QWORD PTR [rax+0x178]
   140001d8c:	89 45 70             	mov    DWORD PTR [rbp+0x70],eax
   140001d8f:	e8 66 a2 00 00       	call   14000bffa <save_vm_context>
   140001d94:	48 8b 85 20 01 00 00 	mov    rax,QWORD PTR [rbp+0x120]
   140001d9b:	4c 8b 48 10          	mov    r9,QWORD PTR [rax+0x10]
   140001d9f:	8b 4d 70             	mov    ecx,DWORD PTR [rbp+0x70]
   140001da2:	8b 55 74             	mov    edx,DWORD PTR [rbp+0x74]
   140001da5:	8b 45 78             	mov    eax,DWORD PTR [rbp+0x78]
   140001da8:	41 89 c8             	mov    r8d,ecx
   140001dab:	89 c1                	mov    ecx,eax
   140001dad:	41 ff d1             	call   r9
   140001db0:	89 45 6c             	mov    DWORD PTR [rbp+0x6c],eax
   140001db3:	e8 93 a2 00 00       	call   14000c04b <restore_vm_context>
   140001db8:	48 8b 05 49 e2 00 00 	mov    rax,QWORD PTR [rip+0xe249]        # 140010008 <vmcs>
   140001dbf:	8b 55 6c             	mov    edx,DWORD PTR [rbp+0x6c]
   140001dc2:	48 63 d2             	movsxd rdx,edx
   140001dc5:	48 89 90 68 01 00 00 	mov    QWORD PTR [rax+0x168],rdx
   140001dcc:	e9 6f 04 00 00       	jmp    140002240 <_ZN5rvm644rvni14vm_native_callEv+0x7ec>
   140001dd1:	48 8b 05 30 e2 00 00 	mov    rax,QWORD PTR [rip+0xe230]        # 140010008 <vmcs>
   140001dd8:	48 8b 80 68 01 00 00 	mov    rax,QWORD PTR [rax+0x168]
   140001ddf:	48 89 85 88 00 00 00 	mov    QWORD PTR [rbp+0x88],rax
   140001de6:	48 8b 05 1b e2 00 00 	mov    rax,QWORD PTR [rip+0xe21b]        # 140010008 <vmcs>
   140001ded:	48 8b 80 70 01 00 00 	mov    rax,QWORD PTR [rax+0x170]
   140001df4:	48 89 85 80 00 00 00 	mov    QWORD PTR [rbp+0x80],rax
   140001dfb:	e8 fa a1 00 00       	call   14000bffa <save_vm_context>
   140001e00:	48 8b 85 20 01 00 00 	mov    rax,QWORD PTR [rbp+0x120]
   140001e07:	4c 8b 40 10          	mov    r8,QWORD PTR [rax+0x10]
   140001e0b:	48 8b 95 80 00 00 00 	mov    rdx,QWORD PTR [rbp+0x80]
   140001e12:	48 8b 85 88 00 00 00 	mov    rax,QWORD PTR [rbp+0x88]
   140001e19:	48 89 c1             	mov    rcx,rax
   140001e1c:	41 ff d0             	call   r8
   140001e1f:	89 45 7c             	mov    DWORD PTR [rbp+0x7c],eax
   140001e22:	e8 24 a2 00 00       	call   14000c04b <restore_vm_context>
   140001e27:	48 8b 05 da e1 00 00 	mov    rax,QWORD PTR [rip+0xe1da]        # 140010008 <vmcs>
   140001e2e:	8b 55 7c             	mov    edx,DWORD PTR [rbp+0x7c]
   140001e31:	48 63 d2             	movsxd rdx,edx
   140001e34:	48 89 90 68 01 00 00 	mov    QWORD PTR [rax+0x168],rdx
   140001e3b:	e9 00 04 00 00       	jmp    140002240 <_ZN5rvm644rvni14vm_native_callEv+0x7ec>
   140001e40:	48 c7 85 98 00 00 00 	mov    QWORD PTR [rbp+0x98],0x0
   140001e47:	00 00 00 00 
   140001e4b:	48 8b 05 b6 e1 00 00 	mov    rax,QWORD PTR [rip+0xe1b6]        # 140010008 <vmcs>
   140001e52:	48 8b 80 68 01 00 00 	mov    rax,QWORD PTR [rax+0x168]
   140001e59:	48 89 85 98 00 00 00 	mov    QWORD PTR [rbp+0x98],rax
   140001e60:	e8 95 a1 00 00       	call   14000bffa <save_vm_context>
   140001e65:	48 8b 85 20 01 00 00 	mov    rax,QWORD PTR [rbp+0x120]
   140001e6c:	48 8b 50 10          	mov    rdx,QWORD PTR [rax+0x10]
   140001e70:	48 8b 85 98 00 00 00 	mov    rax,QWORD PTR [rbp+0x98]
   140001e77:	48 89 c1             	mov    rcx,rax
   140001e7a:	ff d2                	call   rdx
   140001e7c:	48 89 85 90 00 00 00 	mov    QWORD PTR [rbp+0x90],rax
   140001e83:	e8 c3 a1 00 00       	call   14000c04b <restore_vm_context>
   140001e88:	48 8b 05 79 e1 00 00 	mov    rax,QWORD PTR [rip+0xe179]        # 140010008 <vmcs>
   140001e8f:	48 8b 95 90 00 00 00 	mov    rdx,QWORD PTR [rbp+0x90]
   140001e96:	48 89 90 68 01 00 00 	mov    QWORD PTR [rax+0x168],rdx
   140001e9d:	e9 9e 03 00 00       	jmp    140002240 <_ZN5rvm644rvni14vm_native_callEv+0x7ec>
   140001ea2:	48 8b 05 5f e1 00 00 	mov    rax,QWORD PTR [rip+0xe15f]        # 140010008 <vmcs>
   140001ea9:	48 8b 80 68 01 00 00 	mov    rax,QWORD PTR [rax+0x168]
   140001eb0:	48 89 85 a0 00 00 00 	mov    QWORD PTR [rbp+0xa0],rax
   140001eb7:	e8 3e a1 00 00       	call   14000bffa <save_vm_context>
   140001ebc:	48 8b 85 20 01 00 00 	mov    rax,QWORD PTR [rbp+0x120]
   140001ec3:	48 8b 50 10          	mov    rdx,QWORD PTR [rax+0x10]
   140001ec7:	48 8b 85 a0 00 00 00 	mov    rax,QWORD PTR [rbp+0xa0]
   140001ece:	48 89 c1             	mov    rcx,rax
   140001ed1:	ff d2                	call   rdx
   140001ed3:	e8 73 a1 00 00       	call   14000c04b <restore_vm_context>
   140001ed8:	e9 63 03 00 00       	jmp    140002240 <_ZN5rvm644rvni14vm_native_callEv+0x7ec>
   140001edd:	48 c7 85 c0 00 00 00 	mov    QWORD PTR [rbp+0xc0],0x0
   140001ee4:	00 00 00 00 
   140001ee8:	48 8b 05 19 e1 00 00 	mov    rax,QWORD PTR [rip+0xe119]        # 140010008 <vmcs>
   140001eef:	48 8b 80 68 01 00 00 	mov    rax,QWORD PTR [rax+0x168]
   140001ef6:	48 89 85 b8 00 00 00 	mov    QWORD PTR [rbp+0xb8],rax
   140001efd:	48 8b 05 04 e1 00 00 	mov    rax,QWORD PTR [rip+0xe104]        # 140010008 <vmcs>
   140001f04:	48 8b 80 70 01 00 00 	mov    rax,QWORD PTR [rax+0x170]
   140001f0b:	48 89 85 b0 00 00 00 	mov    QWORD PTR [rbp+0xb0],rax
   140001f12:	48 8b 05 ef e0 00 00 	mov    rax,QWORD PTR [rip+0xe0ef]        # 140010008 <vmcs>
   140001f19:	48 8b 80 78 01 00 00 	mov    rax,QWORD PTR [rax+0x178]
   140001f20:	48 89 85 c0 00 00 00 	mov    QWORD PTR [rbp+0xc0],rax
   140001f27:	e8 ce a0 00 00       	call   14000bffa <save_vm_context>
   140001f2c:	48 8b 85 20 01 00 00 	mov    rax,QWORD PTR [rbp+0x120]
   140001f33:	4c 8b 48 10          	mov    r9,QWORD PTR [rax+0x10]
   140001f37:	48 8b 8d c0 00 00 00 	mov    rcx,QWORD PTR [rbp+0xc0]
   140001f3e:	48 8b 95 b0 00 00 00 	mov    rdx,QWORD PTR [rbp+0xb0]
   140001f45:	48 8b 85 b8 00 00 00 	mov    rax,QWORD PTR [rbp+0xb8]
   140001f4c:	49 89 c8             	mov    r8,rcx
   140001f4f:	48 89 c1             	mov    rcx,rax
   140001f52:	41 ff d1             	call   r9
   140001f55:	48 89 85 a8 00 00 00 	mov    QWORD PTR [rbp+0xa8],rax
   140001f5c:	e8 ea a0 00 00       	call   14000c04b <restore_vm_context>
   140001f61:	48 8b 05 a0 e0 00 00 	mov    rax,QWORD PTR [rip+0xe0a0]        # 140010008 <vmcs>
   140001f68:	48 8b 95 a8 00 00 00 	mov    rdx,QWORD PTR [rbp+0xa8]
   140001f6f:	48 89 90 68 01 00 00 	mov    QWORD PTR [rax+0x168],rdx
   140001f76:	e9 c5 02 00 00       	jmp    140002240 <_ZN5rvm644rvni14vm_native_callEv+0x7ec>
   140001f7b:	c7 85 e4 00 00 00 00 	mov    DWORD PTR [rbp+0xe4],0x0
   140001f82:	00 00 00 
   140001f85:	48 c7 85 d8 00 00 00 	mov    QWORD PTR [rbp+0xd8],0x0
   140001f8c:	00 00 00 00 
   140001f90:	48 8b 05 71 e0 00 00 	mov    rax,QWORD PTR [rip+0xe071]        # 140010008 <vmcs>
   140001f97:	48 8b 80 68 01 00 00 	mov    rax,QWORD PTR [rax+0x168]
   140001f9e:	48 89 85 d0 00 00 00 	mov    QWORD PTR [rbp+0xd0],rax
   140001fa5:	48 8b 05 5c e0 00 00 	mov    rax,QWORD PTR [rip+0xe05c]        # 140010008 <vmcs>
   140001fac:	48 8b 80 70 01 00 00 	mov    rax,QWORD PTR [rax+0x170]
   140001fb3:	89 85 e4 00 00 00    	mov    DWORD PTR [rbp+0xe4],eax
   140001fb9:	48 8b 05 48 e0 00 00 	mov    rax,QWORD PTR [rip+0xe048]        # 140010008 <vmcs>
   140001fc0:	48 8b 80 78 01 00 00 	mov    rax,QWORD PTR [rax+0x178]
   140001fc7:	48 89 85 d8 00 00 00 	mov    QWORD PTR [rbp+0xd8],rax
   140001fce:	e8 27 a0 00 00       	call   14000bffa <save_vm_context>
   140001fd3:	48 8b 85 20 01 00 00 	mov    rax,QWORD PTR [rbp+0x120]
   140001fda:	4c 8b 48 10          	mov    r9,QWORD PTR [rax+0x10]
   140001fde:	48 8b 8d d8 00 00 00 	mov    rcx,QWORD PTR [rbp+0xd8]
   140001fe5:	8b 95 e4 00 00 00    	mov    edx,DWORD PTR [rbp+0xe4]
   140001feb:	48 8b 85 d0 00 00 00 	mov    rax,QWORD PTR [rbp+0xd0]
   140001ff2:	49 89 c8             	mov    r8,rcx
   140001ff5:	48 89 c1             	mov    rcx,rax
   140001ff8:	41 ff d1             	call   r9
   140001ffb:	48 89 85 c8 00 00 00 	mov    QWORD PTR [rbp+0xc8],rax
   140002002:	e8 44 a0 00 00       	call   14000c04b <restore_vm_context>
   140002007:	48 8b 05 fa df 00 00 	mov    rax,QWORD PTR [rip+0xdffa]        # 140010008 <vmcs>
   14000200e:	48 8b 95 c8 00 00 00 	mov    rdx,QWORD PTR [rbp+0xc8]
   140002015:	48 89 90 68 01 00 00 	mov    QWORD PTR [rax+0x168],rdx
   14000201c:	e9 1f 02 00 00       	jmp    140002240 <_ZN5rvm644rvni14vm_native_callEv+0x7ec>
   140002021:	48 8b 05 e0 df 00 00 	mov    rax,QWORD PTR [rip+0xdfe0]        # 140010008 <vmcs>
   140002028:	48 8b 80 68 01 00 00 	mov    rax,QWORD PTR [rax+0x168]
   14000202f:	48 89 85 f0 00 00 00 	mov    QWORD PTR [rbp+0xf0],rax
   140002036:	e8 bf 9f 00 00       	call   14000bffa <save_vm_context>
   14000203b:	48 8b 85 20 01 00 00 	mov    rax,QWORD PTR [rbp+0x120]
   140002042:	48 8b 50 10          	mov    rdx,QWORD PTR [rax+0x10]
   140002046:	48 8b 85 f0 00 00 00 	mov    rax,QWORD PTR [rbp+0xf0]
   14000204d:	48 89 c1             	mov    rcx,rax
   140002050:	ff d2                	call   rdx
   140002052:	48 89 85 e8 00 00 00 	mov    QWORD PTR [rbp+0xe8],rax
   140002059:	e8 ed 9f 00 00       	call   14000c04b <restore_vm_context>
   14000205e:	48 8b 05 a3 df 00 00 	mov    rax,QWORD PTR [rip+0xdfa3]        # 140010008 <vmcs>
   140002065:	48 8b 95 e8 00 00 00 	mov    rdx,QWORD PTR [rbp+0xe8]
   14000206c:	48 89 90 68 01 00 00 	mov    QWORD PTR [rax+0x168],rdx
   140002073:	e9 c8 01 00 00       	jmp    140002240 <_ZN5rvm644rvni14vm_native_callEv+0x7ec>
   140002078:	48 8b 05 89 df 00 00 	mov    rax,QWORD PTR [rip+0xdf89]        # 140010008 <vmcs>
   14000207f:	48 8b 80 68 01 00 00 	mov    rax,QWORD PTR [rax+0x168]
   140002086:	48 89 85 08 01 00 00 	mov    QWORD PTR [rbp+0x108],rax
   14000208d:	48 8b 05 74 df 00 00 	mov    rax,QWORD PTR [rip+0xdf74]        # 140010008 <vmcs>
   140002094:	48 8b 80 70 01 00 00 	mov    rax,QWORD PTR [rax+0x170]
   14000209b:	48 89 85 00 01 00 00 	mov    QWORD PTR [rbp+0x100],rax
   1400020a2:	e8 53 9f 00 00       	call   14000bffa <save_vm_context>
   1400020a7:	48 8b 85 20 01 00 00 	mov    rax,QWORD PTR [rbp+0x120]
   1400020ae:	4c 8b 40 10          	mov    r8,QWORD PTR [rax+0x10]
   1400020b2:	48 8b 95 00 01 00 00 	mov    rdx,QWORD PTR [rbp+0x100]
   1400020b9:	48 8b 85 08 01 00 00 	mov    rax,QWORD PTR [rbp+0x108]
   1400020c0:	48 89 c1             	mov    rcx,rax
   1400020c3:	41 ff d0             	call   r8
   1400020c6:	48 89 85 f8 00 00 00 	mov    QWORD PTR [rbp+0xf8],rax
   1400020cd:	e8 79 9f 00 00       	call   14000c04b <restore_vm_context>
   1400020d2:	48 8b 05 2f df 00 00 	mov    rax,QWORD PTR [rip+0xdf2f]        # 140010008 <vmcs>
   1400020d9:	48 8b 95 f8 00 00 00 	mov    rdx,QWORD PTR [rbp+0xf8]
   1400020e0:	48 89 90 68 01 00 00 	mov    QWORD PTR [rax+0x168],rdx
   1400020e7:	e9 54 01 00 00       	jmp    140002240 <_ZN5rvm644rvni14vm_native_callEv+0x7ec>
   1400020ec:	66 0f ef c0          	pxor   xmm0,xmm0
   1400020f0:	0f 11 45 c0          	movups XMMWORD PTR [rbp-0x40],xmm0
   1400020f4:	0f 11 45 d0          	movups XMMWORD PTR [rbp-0x30],xmm0
   1400020f8:	0f 11 45 e0          	movups XMMWORD PTR [rbp-0x20],xmm0
   1400020fc:	66 0f d6 45 f0       	movq   QWORD PTR [rbp-0x10],xmm0
   140002101:	48 8b 05 00 df 00 00 	mov    rax,QWORD PTR [rip+0xdf00]        # 140010008 <vmcs>
   140002108:	48 8b 80 68 01 00 00 	mov    rax,QWORD PTR [rax+0x168]
   14000210f:	48 89 85 18 01 00 00 	mov    QWORD PTR [rbp+0x118],rax
   140002116:	c7 85 2c 01 00 00 01 	mov    DWORD PTR [rbp+0x12c],0x1
   14000211d:	00 00 00 
   140002120:	eb 35                	jmp    140002157 <_ZN5rvm644rvni14vm_native_callEv+0x703>
   140002122:	48 8b 05 df de 00 00 	mov    rax,QWORD PTR [rip+0xdedf]        # 140010008 <vmcs>
   140002129:	8b 95 2c 01 00 00    	mov    edx,DWORD PTR [rbp+0x12c]
   14000212f:	44 8d 42 0a          	lea    r8d,[rdx+0xa]
   140002133:	8b 95 2c 01 00 00    	mov    edx,DWORD PTR [rbp+0x12c]
   140002139:	8d 4a ff             	lea    ecx,[rdx-0x1]
   14000213c:	49 63 d0             	movsxd rdx,r8d
   14000213f:	48 83 c2 22          	add    rdx,0x22
   140002143:	48 8b 54 d0 08       	mov    rdx,QWORD PTR [rax+rdx*8+0x8]
   140002148:	48 63 c1             	movsxd rax,ecx
   14000214b:	48 89 54 c5 c0       	mov    QWORD PTR [rbp+rax*8-0x40],rdx
   140002150:	83 85 2c 01 00 00 01 	add    DWORD PTR [rbp+0x12c],0x1
   140002157:	83 bd 2c 01 00 00 07 	cmp    DWORD PTR [rbp+0x12c],0x7
   14000215e:	7e c2                	jle    140002122 <_ZN5rvm644rvni14vm_native_callEv+0x6ce>
   140002160:	e8 95 9e 00 00       	call   14000bffa <save_vm_context>
   140002165:	48 8b 85 20 01 00 00 	mov    rax,QWORD PTR [rbp+0x120]
   14000216c:	4c 8b 50 10          	mov    r10,QWORD PTR [rax+0x10]
   140002170:	4c 8b 5d f0          	mov    r11,QWORD PTR [rbp-0x10]
   140002174:	4c 8b 4d e8          	mov    r9,QWORD PTR [rbp-0x18]
   140002178:	4c 8b 45 e0          	mov    r8,QWORD PTR [rbp-0x20]
   14000217c:	48 8b 4d d8          	mov    rcx,QWORD PTR [rbp-0x28]
   140002180:	48 8b 75 d0          	mov    rsi,QWORD PTR [rbp-0x30]
   140002184:	48 8b 5d c8          	mov    rbx,QWORD PTR [rbp-0x38]
   140002188:	48 8b 55 c0          	mov    rdx,QWORD PTR [rbp-0x40]
   14000218c:	48 8b 85 18 01 00 00 	mov    rax,QWORD PTR [rbp+0x118]
   140002193:	4c 89 5c 24 38       	mov    QWORD PTR [rsp+0x38],r11
   140002198:	4c 89 4c 24 30       	mov    QWORD PTR [rsp+0x30],r9
   14000219d:	4c 89 44 24 28       	mov    QWORD PTR [rsp+0x28],r8
   1400021a2:	48 89 4c 24 20       	mov    QWORD PTR [rsp+0x20],rcx
   1400021a7:	49 89 f1             	mov    r9,rsi
   1400021aa:	49 89 d8             	mov    r8,rbx
   1400021ad:	48 89 c1             	mov    rcx,rax
   1400021b0:	41 ff d2             	call   r10
   1400021b3:	89 85 14 01 00 00    	mov    DWORD PTR [rbp+0x114],eax
   1400021b9:	e8 8d 9e 00 00       	call   14000c04b <restore_vm_context>
   1400021be:	48 8b 05 43 de 00 00 	mov    rax,QWORD PTR [rip+0xde43]        # 140010008 <vmcs>
   1400021c5:	8b 95 14 01 00 00    	mov    edx,DWORD PTR [rbp+0x114]
   1400021cb:	48 63 d2             	movsxd rdx,edx
   1400021ce:	48 89 90 68 01 00 00 	mov    QWORD PTR [rax+0x168],rdx
   1400021d5:	eb 69                	jmp    140002240 <_ZN5rvm644rvni14vm_native_callEv+0x7ec>
   1400021d7:	48 8b 15 2a de 00 00 	mov    rdx,QWORD PTR [rip+0xde2a]        # 140010008 <vmcs>
   1400021de:	48 8b 05 23 de 00 00 	mov    rax,QWORD PTR [rip+0xde23]        # 140010008 <vmcs>
   1400021e5:	48 8b 12             	mov    rdx,QWORD PTR [rdx]
   1400021e8:	48 89 90 98 03 80 00 	mov    QWORD PTR [rax+0x800398],rdx
   1400021ef:	48 8b 05 12 de 00 00 	mov    rax,QWORD PTR [rip+0xde12]        # 140010008 <vmcs>
   1400021f6:	48 c7 80 a0 03 80 00 	mov    QWORD PTR [rax+0x8003a0],0xb02
   1400021fd:	02 0b 00 00 
   140002201:	48 8b 05 00 de 00 00 	mov    rax,QWORD PTR [rip+0xde00]        # 140010008 <vmcs>
   140002208:	48 c7 80 a8 03 80 00 	mov    QWORD PTR [rax+0x8003a8],0x0
   14000220f:	00 00 00 00 
   140002213:	48 8b 85 20 01 00 00 	mov    rax,QWORD PTR [rbp+0x120]
   14000221a:	8b 50 08             	mov    edx,DWORD PTR [rax+0x8]
   14000221d:	48 8b 05 e4 dd 00 00 	mov    rax,QWORD PTR [rip+0xdde4]        # 140010008 <vmcs>
   140002224:	89 d2                	mov    edx,edx
   140002226:	48 89 90 b0 03 80 00 	mov    QWORD PTR [rax+0x8003b0],rdx
   14000222d:	48 8b 05 d4 dd 00 00 	mov    rax,QWORD PTR [rip+0xddd4]        # 140010008 <vmcs>
   140002234:	c7 80 b8 03 80 00 01 	mov    DWORD PTR [rax+0x8003b8],0x1
   14000223b:	00 00 00 
   14000223e:	cc                   	int3
   14000223f:	90                   	nop
   140002240:	48 c7 45 10 00 00 00 	mov    QWORD PTR [rbp+0x10],0x0
   140002247:	00 
   140002248:	48 8b 05 b9 dd 00 00 	mov    rax,QWORD PTR [rip+0xddb9]        # 140010008 <vmcs>
   14000224f:	48 8b 80 20 01 00 00 	mov    rax,QWORD PTR [rax+0x120]
   140002256:	48 89 45 10          	mov    QWORD PTR [rbp+0x10],rax
   14000225a:	48 8b 05 a7 dd 00 00 	mov    rax,QWORD PTR [rip+0xdda7]        # 140010008 <vmcs>
   140002261:	48 8b 55 10          	mov    rdx,QWORD PTR [rbp+0x10]
   140002265:	48 89 10             	mov    QWORD PTR [rax],rdx
   140002268:	90                   	nop
   140002269:	48 81 c4 b0 01 00 00 	add    rsp,0x1b0
   140002270:	5b                   	pop    rbx
   140002271:	5e                   	pop    rsi
   140002272:	5d                   	pop    rbp
   140002273:	c3                   	ret

0000000140002274 <_ZN5rvm643elf17patch_elf_importsEv>:
   140002274:	55                   	push   rbp
   140002275:	48 89 e5             	mov    rbp,rsp
   140002278:	48 81 ec f0 00 00 00 	sub    rsp,0xf0
   14000227f:	48 8b 05 82 dd 00 00 	mov    rax,QWORD PTR [rip+0xdd82]        # 140010008 <vmcs>
   140002286:	48 8b 80 50 03 80 00 	mov    rax,QWORD PTR [rax+0x800350]
   14000228d:	48 89 45 a0          	mov    QWORD PTR [rbp-0x60],rax
   140002291:	48 8b 45 a0          	mov    rax,QWORD PTR [rbp-0x60]
   140002295:	48 89 45 98          	mov    QWORD PTR [rbp-0x68],rax
   140002299:	48 8b 45 98          	mov    rax,QWORD PTR [rbp-0x68]
   14000229d:	0f b7 40 10          	movzx  eax,WORD PTR [rax+0x10]
   1400022a1:	66 83 f8 02          	cmp    ax,0x2
   1400022a5:	74 69                	je     140002310 <_ZN5rvm643elf17patch_elf_importsEv+0x9c>
   1400022a7:	48 8b 45 98          	mov    rax,QWORD PTR [rbp-0x68]
   1400022ab:	0f b7 40 10          	movzx  eax,WORD PTR [rax+0x10]
   1400022af:	66 83 f8 03          	cmp    ax,0x3
   1400022b3:	74 5b                	je     140002310 <_ZN5rvm643elf17patch_elf_importsEv+0x9c>
   1400022b5:	48 8b 05 4c dd 00 00 	mov    rax,QWORD PTR [rip+0xdd4c]        # 140010008 <vmcs>
   1400022bc:	48 c7 80 98 03 80 00 	mov    QWORD PTR [rax+0x800398],0x0
   1400022c3:	00 00 00 00 
   1400022c7:	48 8b 05 3a dd 00 00 	mov    rax,QWORD PTR [rip+0xdd3a]        # 140010008 <vmcs>
   1400022ce:	48 c7 80 a0 03 80 00 	mov    QWORD PTR [rax+0x8003a0],0xb027
   1400022d5:	27 b0 00 00 
   1400022d9:	48 8b 05 28 dd 00 00 	mov    rax,QWORD PTR [rip+0xdd28]        # 140010008 <vmcs>
   1400022e0:	48 c7 80 a8 03 80 00 	mov    QWORD PTR [rax+0x8003a8],0x0
   1400022e7:	00 00 00 00 
   1400022eb:	48 8b 05 16 dd 00 00 	mov    rax,QWORD PTR [rip+0xdd16]        # 140010008 <vmcs>
   1400022f2:	48 c7 80 b0 03 80 00 	mov    QWORD PTR [rax+0x8003b0],0x0
   1400022f9:	00 00 00 00 
   1400022fd:	48 8b 05 04 dd 00 00 	mov    rax,QWORD PTR [rip+0xdd04]        # 140010008 <vmcs>
   140002304:	c7 80 b8 03 80 00 01 	mov    DWORD PTR [rax+0x8003b8],0x1
   14000230b:	00 00 00 
   14000230e:	cc                   	int3
   14000230f:	90                   	nop
   140002310:	48 8b 45 98          	mov    rax,QWORD PTR [rbp-0x68]
   140002314:	48 8b 50 20          	mov    rdx,QWORD PTR [rax+0x20]
   140002318:	48 8b 45 a0          	mov    rax,QWORD PTR [rbp-0x60]
   14000231c:	48 01 d0             	add    rax,rdx
   14000231f:	48 89 45 90          	mov    QWORD PTR [rbp-0x70],rax
   140002323:	48 c7 45 f8 00 00 00 	mov    QWORD PTR [rbp-0x8],0x0
   14000232a:	00 
   14000232b:	48 c7 45 f0 00 00 00 	mov    QWORD PTR [rbp-0x10],0x0
   140002332:	00 
   140002333:	c7 45 ec 00 00 00 00 	mov    DWORD PTR [rbp-0x14],0x0
   14000233a:	eb 77                	jmp    1400023b3 <_ZN5rvm643elf17patch_elf_importsEv+0x13f>
   14000233c:	8b 45 ec             	mov    eax,DWORD PTR [rbp-0x14]
   14000233f:	48 63 d0             	movsxd rdx,eax
   140002342:	48 89 d0             	mov    rax,rdx
   140002345:	48 c1 e0 03          	shl    rax,0x3
   140002349:	48 29 d0             	sub    rax,rdx
   14000234c:	48 c1 e0 03          	shl    rax,0x3
   140002350:	48 89 c2             	mov    rdx,rax
   140002353:	48 8b 45 90          	mov    rax,QWORD PTR [rbp-0x70]
   140002357:	48 01 d0             	add    rax,rdx
   14000235a:	8b 00                	mov    eax,DWORD PTR [rax]
   14000235c:	83 f8 02             	cmp    eax,0x2
   14000235f:	75 4e                	jne    1400023af <_ZN5rvm643elf17patch_elf_importsEv+0x13b>
   140002361:	8b 45 ec             	mov    eax,DWORD PTR [rbp-0x14]
   140002364:	48 63 d0             	movsxd rdx,eax
   140002367:	48 89 d0             	mov    rax,rdx
   14000236a:	48 c1 e0 03          	shl    rax,0x3
   14000236e:	48 29 d0             	sub    rax,rdx
   140002371:	48 c1 e0 03          	shl    rax,0x3
   140002375:	48 89 c2             	mov    rdx,rax
   140002378:	48 8b 45 90          	mov    rax,QWORD PTR [rbp-0x70]
   14000237c:	48 01 d0             	add    rax,rdx
   14000237f:	48 8b 40 10          	mov    rax,QWORD PTR [rax+0x10]
   140002383:	48 89 45 f8          	mov    QWORD PTR [rbp-0x8],rax
   140002387:	8b 45 ec             	mov    eax,DWORD PTR [rbp-0x14]
   14000238a:	48 63 d0             	movsxd rdx,eax
   14000238d:	48 89 d0             	mov    rax,rdx
   140002390:	48 c1 e0 03          	shl    rax,0x3
   140002394:	48 29 d0             	sub    rax,rdx
   140002397:	48 c1 e0 03          	shl    rax,0x3
   14000239b:	48 89 c2             	mov    rdx,rax
   14000239e:	48 8b 45 90          	mov    rax,QWORD PTR [rbp-0x70]
   1400023a2:	48 01 d0             	add    rax,rdx
   1400023a5:	48 8b 40 28          	mov    rax,QWORD PTR [rax+0x28]
   1400023a9:	48 89 45 f0          	mov    QWORD PTR [rbp-0x10],rax
   1400023ad:	eb 18                	jmp    1400023c7 <_ZN5rvm643elf17patch_elf_importsEv+0x153>
   1400023af:	83 45 ec 01          	add    DWORD PTR [rbp-0x14],0x1
   1400023b3:	48 8b 45 98          	mov    rax,QWORD PTR [rbp-0x68]
   1400023b7:	0f b7 40 38          	movzx  eax,WORD PTR [rax+0x38]
   1400023bb:	0f b7 c0             	movzx  eax,ax
   1400023be:	39 45 ec             	cmp    DWORD PTR [rbp-0x14],eax
   1400023c1:	0f 8c 75 ff ff ff    	jl     14000233c <_ZN5rvm643elf17patch_elf_importsEv+0xc8>
   1400023c7:	48 83 7d f8 00       	cmp    QWORD PTR [rbp-0x8],0x0
   1400023cc:	74 07                	je     1400023d5 <_ZN5rvm643elf17patch_elf_importsEv+0x161>
   1400023ce:	48 83 7d f0 00       	cmp    QWORD PTR [rbp-0x10],0x0
   1400023d3:	75 5b                	jne    140002430 <_ZN5rvm643elf17patch_elf_importsEv+0x1bc>
   1400023d5:	48 8b 05 2c dc 00 00 	mov    rax,QWORD PTR [rip+0xdc2c]        # 140010008 <vmcs>
   1400023dc:	48 c7 80 98 03 80 00 	mov    QWORD PTR [rax+0x800398],0x0
   1400023e3:	00 00 00 00 
   1400023e7:	48 8b 05 1a dc 00 00 	mov    rax,QWORD PTR [rip+0xdc1a]        # 140010008 <vmcs>
   1400023ee:	48 c7 80 a0 03 80 00 	mov    QWORD PTR [rax+0x8003a0],0xb026
   1400023f5:	26 b0 00 00 
   1400023f9:	48 8b 05 08 dc 00 00 	mov    rax,QWORD PTR [rip+0xdc08]        # 140010008 <vmcs>
   140002400:	48 c7 80 a8 03 80 00 	mov    QWORD PTR [rax+0x8003a8],0x0
   140002407:	00 00 00 00 
   14000240b:	48 8b 05 f6 db 00 00 	mov    rax,QWORD PTR [rip+0xdbf6]        # 140010008 <vmcs>
   140002412:	48 c7 80 b0 03 80 00 	mov    QWORD PTR [rax+0x8003b0],0x0
   140002419:	00 00 00 00 
   14000241d:	48 8b 05 e4 db 00 00 	mov    rax,QWORD PTR [rip+0xdbe4]        # 140010008 <vmcs>
   140002424:	c7 80 b8 03 80 00 01 	mov    DWORD PTR [rax+0x8003b8],0x1
   14000242b:	00 00 00 
   14000242e:	cc                   	int3
   14000242f:	90                   	nop
   140002430:	48 8b 55 f8          	mov    rdx,QWORD PTR [rbp-0x8]
   140002434:	48 8b 45 a0          	mov    rax,QWORD PTR [rbp-0x60]
   140002438:	48 01 d0             	add    rax,rdx
   14000243b:	48 89 45 88          	mov    QWORD PTR [rbp-0x78],rax
   14000243f:	48 c7 45 e0 00 00 00 	mov    QWORD PTR [rbp-0x20],0x0
   140002446:	00 
   140002447:	48 c7 45 d8 00 00 00 	mov    QWORD PTR [rbp-0x28],0x0
   14000244e:	00 
   14000244f:	48 c7 45 d0 00 00 00 	mov    QWORD PTR [rbp-0x30],0x0
   140002456:	00 
   140002457:	48 c7 45 c8 00 00 00 	mov    QWORD PTR [rbp-0x38],0x0
   14000245e:	00 
   14000245f:	48 8b 45 88          	mov    rax,QWORD PTR [rbp-0x78]
   140002463:	48 89 45 c0          	mov    QWORD PTR [rbp-0x40],rax
   140002467:	e9 49 01 00 00       	jmp    1400025b5 <_ZN5rvm643elf17patch_elf_importsEv+0x341>
   14000246c:	48 8b 45 c0          	mov    rax,QWORD PTR [rbp-0x40]
   140002470:	48 8b 00             	mov    rax,QWORD PTR [rax]
   140002473:	48 83 f8 17          	cmp    rax,0x17
   140002477:	0f 87 d3 00 00 00    	ja     140002550 <_ZN5rvm643elf17patch_elf_importsEv+0x2dc>
   14000247d:	48 8d 14 85 00 00 00 	lea    rdx,[rax*4+0x0]
   140002484:	00 
   140002485:	48 8d 05 74 ec 00 00 	lea    rax,[rip+0xec74]        # 140011100 <_ZL3key+0x100>
   14000248c:	8b 04 02             	mov    eax,DWORD PTR [rdx+rax*1]
   14000248f:	48 98                	cdqe
   140002491:	48 8d 15 68 ec 00 00 	lea    rdx,[rip+0xec68]        # 140011100 <_ZL3key+0x100>
   140002498:	48 01 d0             	add    rax,rdx
   14000249b:	ff e0                	jmp    rax
   14000249d:	48 8b 45 c0          	mov    rax,QWORD PTR [rbp-0x40]
   1400024a1:	48 8b 40 08          	mov    rax,QWORD PTR [rax+0x8]
   1400024a5:	48 89 45 e0          	mov    QWORD PTR [rbp-0x20],rax
   1400024a9:	e9 02 01 00 00       	jmp    1400025b0 <_ZN5rvm643elf17patch_elf_importsEv+0x33c>
   1400024ae:	48 8b 45 c0          	mov    rax,QWORD PTR [rbp-0x40]
   1400024b2:	48 8b 40 08          	mov    rax,QWORD PTR [rax+0x8]
   1400024b6:	48 89 45 d8          	mov    QWORD PTR [rbp-0x28],rax
   1400024ba:	e9 f1 00 00 00       	jmp    1400025b0 <_ZN5rvm643elf17patch_elf_importsEv+0x33c>
   1400024bf:	48 8b 45 c0          	mov    rax,QWORD PTR [rbp-0x40]
   1400024c3:	48 8b 40 08          	mov    rax,QWORD PTR [rax+0x8]
   1400024c7:	48 89 45 d0          	mov    QWORD PTR [rbp-0x30],rax
   1400024cb:	e9 e0 00 00 00       	jmp    1400025b0 <_ZN5rvm643elf17patch_elf_importsEv+0x33c>
   1400024d0:	48 8b 45 c0          	mov    rax,QWORD PTR [rbp-0x40]
   1400024d4:	48 8b 40 08          	mov    rax,QWORD PTR [rax+0x8]
   1400024d8:	48 89 45 c8          	mov    QWORD PTR [rbp-0x38],rax
   1400024dc:	e9 cf 00 00 00       	jmp    1400025b0 <_ZN5rvm643elf17patch_elf_importsEv+0x33c>
   1400024e1:	48 8b 45 c0          	mov    rax,QWORD PTR [rbp-0x40]
   1400024e5:	48 8b 40 08          	mov    rax,QWORD PTR [rax+0x8]
   1400024e9:	48 83 f8 07          	cmp    rax,0x7
   1400024ed:	0f 84 bc 00 00 00    	je     1400025af <_ZN5rvm643elf17patch_elf_importsEv+0x33b>
   1400024f3:	48 8b 05 0e db 00 00 	mov    rax,QWORD PTR [rip+0xdb0e]        # 140010008 <vmcs>
   1400024fa:	48 c7 80 98 03 80 00 	mov    QWORD PTR [rax+0x800398],0x0
   140002501:	00 00 00 00 
   140002505:	48 8b 05 fc da 00 00 	mov    rax,QWORD PTR [rip+0xdafc]        # 140010008 <vmcs>
   14000250c:	48 c7 80 a0 03 80 00 	mov    QWORD PTR [rax+0x8003a0],0xb026
   140002513:	26 b0 00 00 
   140002517:	48 8b 05 ea da 00 00 	mov    rax,QWORD PTR [rip+0xdaea]        # 140010008 <vmcs>
   14000251e:	48 c7 80 a8 03 80 00 	mov    QWORD PTR [rax+0x8003a8],0x0
   140002525:	00 00 00 00 
   140002529:	48 8b 05 d8 da 00 00 	mov    rax,QWORD PTR [rip+0xdad8]        # 140010008 <vmcs>
   140002530:	48 c7 80 b0 03 80 00 	mov    QWORD PTR [rax+0x8003b0],0x0
   140002537:	00 00 00 00 
   14000253b:	48 8b 05 c6 da 00 00 	mov    rax,QWORD PTR [rip+0xdac6]        # 140010008 <vmcs>
   140002542:	c7 80 b8 03 80 00 01 	mov    DWORD PTR [rax+0x8003b8],0x1
   140002549:	00 00 00 
   14000254c:	cc                   	int3
   14000254d:	90                   	nop
   14000254e:	eb 5f                	jmp    1400025af <_ZN5rvm643elf17patch_elf_importsEv+0x33b>
   140002550:	48 8b 05 b1 da 00 00 	mov    rax,QWORD PTR [rip+0xdab1]        # 140010008 <vmcs>
   140002557:	48 c7 80 98 03 80 00 	mov    QWORD PTR [rax+0x800398],0x0
   14000255e:	00 00 00 00 
   140002562:	48 8b 05 9f da 00 00 	mov    rax,QWORD PTR [rip+0xda9f]        # 140010008 <vmcs>
   140002569:	48 c7 80 a0 03 80 00 	mov    QWORD PTR [rax+0x8003a0],0xb025
   140002570:	25 b0 00 00 
   140002574:	48 8b 05 8d da 00 00 	mov    rax,QWORD PTR [rip+0xda8d]        # 140010008 <vmcs>
   14000257b:	48 c7 80 a8 03 80 00 	mov    QWORD PTR [rax+0x8003a8],0x0
   140002582:	00 00 00 00 
   140002586:	48 8b 45 c0          	mov    rax,QWORD PTR [rbp-0x40]
   14000258a:	48 8b 10             	mov    rdx,QWORD PTR [rax]
   14000258d:	48 8b 05 74 da 00 00 	mov    rax,QWORD PTR [rip+0xda74]        # 140010008 <vmcs>
   140002594:	48 89 90 b0 03 80 00 	mov    QWORD PTR [rax+0x8003b0],rdx
   14000259b:	48 8b 05 66 da 00 00 	mov    rax,QWORD PTR [rip+0xda66]        # 140010008 <vmcs>
   1400025a2:	c7 80 b8 03 80 00 01 	mov    DWORD PTR [rax+0x8003b8],0x1
   1400025a9:	00 00 00 
   1400025ac:	cc                   	int3
   1400025ad:	eb 01                	jmp    1400025b0 <_ZN5rvm643elf17patch_elf_importsEv+0x33c>
   1400025af:	90                   	nop
   1400025b0:	48 83 45 c0 10       	add    QWORD PTR [rbp-0x40],0x10
   1400025b5:	48 8b 45 c0          	mov    rax,QWORD PTR [rbp-0x40]
   1400025b9:	48 8b 00             	mov    rax,QWORD PTR [rax]
   1400025bc:	48 85 c0             	test   rax,rax
   1400025bf:	0f 85 a7 fe ff ff    	jne    14000246c <_ZN5rvm643elf17patch_elf_importsEv+0x1f8>
   1400025c5:	48 83 7d e0 00       	cmp    QWORD PTR [rbp-0x20],0x0
   1400025ca:	74 15                	je     1400025e1 <_ZN5rvm643elf17patch_elf_importsEv+0x36d>
   1400025cc:	48 83 7d d8 00       	cmp    QWORD PTR [rbp-0x28],0x0
   1400025d1:	74 0e                	je     1400025e1 <_ZN5rvm643elf17patch_elf_importsEv+0x36d>
   1400025d3:	48 83 7d d0 00       	cmp    QWORD PTR [rbp-0x30],0x0
   1400025d8:	74 07                	je     1400025e1 <_ZN5rvm643elf17patch_elf_importsEv+0x36d>
   1400025da:	48 83 7d c8 00       	cmp    QWORD PTR [rbp-0x38],0x0
   1400025df:	75 5b                	jne    14000263c <_ZN5rvm643elf17patch_elf_importsEv+0x3c8>
   1400025e1:	48 8b 05 20 da 00 00 	mov    rax,QWORD PTR [rip+0xda20]        # 140010008 <vmcs>
   1400025e8:	48 c7 80 98 03 80 00 	mov    QWORD PTR [rax+0x800398],0x0
   1400025ef:	00 00 00 00 
   1400025f3:	48 8b 05 0e da 00 00 	mov    rax,QWORD PTR [rip+0xda0e]        # 140010008 <vmcs>
   1400025fa:	48 c7 80 a0 03 80 00 	mov    QWORD PTR [rax+0x8003a0],0xb026
   140002601:	26 b0 00 00 
   140002605:	48 8b 05 fc d9 00 00 	mov    rax,QWORD PTR [rip+0xd9fc]        # 140010008 <vmcs>
   14000260c:	48 c7 80 a8 03 80 00 	mov    QWORD PTR [rax+0x8003a8],0x0
   140002613:	00 00 00 00 
   140002617:	48 8b 05 ea d9 00 00 	mov    rax,QWORD PTR [rip+0xd9ea]        # 140010008 <vmcs>
   14000261e:	48 c7 80 b0 03 80 00 	mov    QWORD PTR [rax+0x8003b0],0x0
   140002625:	00 00 00 00 
   140002629:	48 8b 05 d8 d9 00 00 	mov    rax,QWORD PTR [rip+0xd9d8]        # 140010008 <vmcs>
   140002630:	c7 80 b8 03 80 00 01 	mov    DWORD PTR [rax+0x8003b8],0x1
   140002637:	00 00 00 
   14000263a:	cc                   	int3
   14000263b:	90                   	nop
   14000263c:	48 8b 55 d0          	mov    rdx,QWORD PTR [rbp-0x30]
   140002640:	48 8b 45 a0          	mov    rax,QWORD PTR [rbp-0x60]
   140002644:	48 01 d0             	add    rax,rdx
   140002647:	48 89 45 80          	mov    QWORD PTR [rbp-0x80],rax
   14000264b:	48 8b 55 e0          	mov    rdx,QWORD PTR [rbp-0x20]
   14000264f:	48 8b 45 a0          	mov    rax,QWORD PTR [rbp-0x60]
   140002653:	48 01 d0             	add    rax,rdx
   140002656:	48 89 85 78 ff ff ff 	mov    QWORD PTR [rbp-0x88],rax
   14000265d:	48 8b 55 d8          	mov    rdx,QWORD PTR [rbp-0x28]
   140002661:	48 8b 45 a0          	mov    rax,QWORD PTR [rbp-0x60]
   140002665:	48 01 d0             	add    rax,rdx
   140002668:	48 89 45 b8          	mov    QWORD PTR [rbp-0x48],rax
   14000266c:	48 8b 45 c8          	mov    rax,QWORD PTR [rbp-0x38]
   140002670:	48 c1 e8 04          	shr    rax,0x4
   140002674:	48 89 85 70 ff ff ff 	mov    QWORD PTR [rbp-0x90],rax
   14000267b:	48 c7 45 b0 00 00 00 	mov    QWORD PTR [rbp-0x50],0x0
   140002682:	00 
   140002683:	e9 3e 01 00 00       	jmp    1400027c6 <_ZN5rvm643elf17patch_elf_importsEv+0x552>
   140002688:	48 8b 45 b0          	mov    rax,QWORD PTR [rbp-0x50]
   14000268c:	48 c1 e0 04          	shl    rax,0x4
   140002690:	48 89 c2             	mov    rdx,rax
   140002693:	48 8b 45 80          	mov    rax,QWORD PTR [rbp-0x80]
   140002697:	48 01 d0             	add    rax,rdx
   14000269a:	48 8b 40 08          	mov    rax,QWORD PTR [rax+0x8]
   14000269e:	48 c1 e8 20          	shr    rax,0x20
   1400026a2:	89 85 54 ff ff ff    	mov    DWORD PTR [rbp-0xac],eax
   1400026a8:	48 8b 45 b0          	mov    rax,QWORD PTR [rbp-0x50]
   1400026ac:	48 c1 e0 04          	shl    rax,0x4
   1400026b0:	48 89 c2             	mov    rdx,rax
   1400026b3:	48 8b 45 80          	mov    rax,QWORD PTR [rbp-0x80]
   1400026b7:	48 01 d0             	add    rax,rdx
   1400026ba:	48 8b 40 08          	mov    rax,QWORD PTR [rax+0x8]
   1400026be:	89 85 50 ff ff ff    	mov    DWORD PTR [rbp-0xb0],eax
   1400026c4:	48 8b 45 b0          	mov    rax,QWORD PTR [rbp-0x50]
   1400026c8:	48 c1 e0 04          	shl    rax,0x4
   1400026cc:	48 89 c2             	mov    rdx,rax
   1400026cf:	48 8b 45 80          	mov    rax,QWORD PTR [rbp-0x80]
   1400026d3:	48 01 d0             	add    rax,rdx
   1400026d6:	48 8b 10             	mov    rdx,QWORD PTR [rax]
   1400026d9:	48 8b 45 a0          	mov    rax,QWORD PTR [rbp-0x60]
   1400026dd:	48 01 d0             	add    rax,rdx
   1400026e0:	48 89 85 48 ff ff ff 	mov    QWORD PTR [rbp-0xb8],rax
   1400026e7:	8b 95 54 ff ff ff    	mov    edx,DWORD PTR [rbp-0xac]
   1400026ed:	48 89 d0             	mov    rax,rdx
   1400026f0:	48 01 c0             	add    rax,rax
   1400026f3:	48 01 d0             	add    rax,rdx
   1400026f6:	48 c1 e0 03          	shl    rax,0x3
   1400026fa:	48 89 c2             	mov    rdx,rax
   1400026fd:	48 8b 85 78 ff ff ff 	mov    rax,QWORD PTR [rbp-0x88]
   140002704:	48 01 d0             	add    rax,rdx
   140002707:	8b 00                	mov    eax,DWORD PTR [rax]
   140002709:	89 c2                	mov    edx,eax
   14000270b:	48 8b 45 b8          	mov    rax,QWORD PTR [rbp-0x48]
   14000270f:	48 01 d0             	add    rax,rdx
   140002712:	48 89 85 40 ff ff ff 	mov    QWORD PTR [rbp-0xc0],rax
   140002719:	83 bd 50 ff ff ff 05 	cmp    DWORD PTR [rbp-0xb0],0x5
   140002720:	74 0d                	je     14000272f <_ZN5rvm643elf17patch_elf_importsEv+0x4bb>
   140002722:	83 bd 50 ff ff ff 13 	cmp    DWORD PTR [rbp-0xb0],0x13
   140002729:	0f 85 91 00 00 00    	jne    1400027c0 <_ZN5rvm643elf17patch_elf_importsEv+0x54c>
   14000272f:	48 8b 85 40 ff ff ff 	mov    rax,QWORD PTR [rbp-0xc0]
   140002736:	48 89 c1             	mov    rcx,rax
   140002739:	e8 5b ed ff ff       	call   140001499 <_ZN5rvm644rvni22windows_thunk_resolverEPKc>
   14000273e:	48 89 85 38 ff ff ff 	mov    QWORD PTR [rbp-0xc8],rax
   140002745:	48 83 bd 38 ff ff ff 	cmp    QWORD PTR [rbp-0xc8],0x0
   14000274c:	00 
   14000274d:	75 5e                	jne    1400027ad <_ZN5rvm643elf17patch_elf_importsEv+0x539>
   14000274f:	48 8b 05 b2 d8 00 00 	mov    rax,QWORD PTR [rip+0xd8b2]        # 140010008 <vmcs>
   140002756:	48 c7 80 98 03 80 00 	mov    QWORD PTR [rax+0x800398],0x0
   14000275d:	00 00 00 00 
   140002761:	48 8b 05 a0 d8 00 00 	mov    rax,QWORD PTR [rip+0xd8a0]        # 140010008 <vmcs>
   140002768:	48 c7 80 a0 03 80 00 	mov    QWORD PTR [rax+0x8003a0],0xb025
   14000276f:	25 b0 00 00 
   140002773:	48 8b 05 8e d8 00 00 	mov    rax,QWORD PTR [rip+0xd88e]        # 140010008 <vmcs>
   14000277a:	48 c7 80 a8 03 80 00 	mov    QWORD PTR [rax+0x8003a8],0x0
   140002781:	00 00 00 00 
   140002785:	48 8b 05 7c d8 00 00 	mov    rax,QWORD PTR [rip+0xd87c]        # 140010008 <vmcs>
   14000278c:	48 8b 95 40 ff ff ff 	mov    rdx,QWORD PTR [rbp-0xc0]
   140002793:	48 89 90 b0 03 80 00 	mov    QWORD PTR [rax+0x8003b0],rdx
   14000279a:	48 8b 05 67 d8 00 00 	mov    rax,QWORD PTR [rip+0xd867]        # 140010008 <vmcs>
   1400027a1:	c7 80 b8 03 80 00 01 	mov    DWORD PTR [rax+0x8003b8],0x1
   1400027a8:	00 00 00 
   1400027ab:	cc                   	int3
   1400027ac:	90                   	nop
   1400027ad:	48 8b 95 38 ff ff ff 	mov    rdx,QWORD PTR [rbp-0xc8]
   1400027b4:	48 8b 85 48 ff ff ff 	mov    rax,QWORD PTR [rbp-0xb8]
   1400027bb:	48 89 10             	mov    QWORD PTR [rax],rdx
   1400027be:	eb 01                	jmp    1400027c1 <_ZN5rvm643elf17patch_elf_importsEv+0x54d>
   1400027c0:	90                   	nop
   1400027c1:	48 83 45 b0 01       	add    QWORD PTR [rbp-0x50],0x1
   1400027c6:	48 8b 45 b0          	mov    rax,QWORD PTR [rbp-0x50]
   1400027ca:	48 3b 85 70 ff ff ff 	cmp    rax,QWORD PTR [rbp-0x90]
   1400027d1:	0f 82 b1 fe ff ff    	jb     140002688 <_ZN5rvm643elf17patch_elf_importsEv+0x414>
   1400027d7:	48 8b 45 98          	mov    rax,QWORD PTR [rbp-0x68]
   1400027db:	48 8b 50 28          	mov    rdx,QWORD PTR [rax+0x28]
   1400027df:	48 8b 45 a0          	mov    rax,QWORD PTR [rbp-0x60]
   1400027e3:	48 01 d0             	add    rax,rdx
   1400027e6:	48 89 85 68 ff ff ff 	mov    QWORD PTR [rbp-0x98],rax
   1400027ed:	48 8b 45 98          	mov    rax,QWORD PTR [rbp-0x68]
   1400027f1:	0f b7 40 3e          	movzx  eax,WORD PTR [rax+0x3e]
   1400027f5:	66 85 c0             	test   ax,ax
   1400027f8:	74 39                	je     140002833 <_ZN5rvm643elf17patch_elf_importsEv+0x5bf>
   1400027fa:	48 8b 45 98          	mov    rax,QWORD PTR [rbp-0x68]
   1400027fe:	0f b7 40 3e          	movzx  eax,WORD PTR [rax+0x3e]
   140002802:	0f b7 c0             	movzx  eax,ax
   140002805:	48 c1 e0 06          	shl    rax,0x6
   140002809:	48 89 c2             	mov    rdx,rax
   14000280c:	48 8b 85 68 ff ff ff 	mov    rax,QWORD PTR [rbp-0x98]
   140002813:	48 01 d0             	add    rax,rdx
   140002816:	48 89 85 60 ff ff ff 	mov    QWORD PTR [rbp-0xa0],rax
   14000281d:	48 8b 85 60 ff ff ff 	mov    rax,QWORD PTR [rbp-0xa0]
   140002824:	48 8b 50 18          	mov    rdx,QWORD PTR [rax+0x18]
   140002828:	48 8b 45 a0          	mov    rax,QWORD PTR [rbp-0x60]
   14000282c:	48 01 d0             	add    rax,rdx
   14000282f:	48 89 45 b8          	mov    QWORD PTR [rbp-0x48],rax
   140002833:	c7 45 ac 00 00 00 00 	mov    DWORD PTR [rbp-0x54],0x0
   14000283a:	e9 97 00 00 00       	jmp    1400028d6 <_ZN5rvm643elf17patch_elf_importsEv+0x662>
   14000283f:	8b 45 ac             	mov    eax,DWORD PTR [rbp-0x54]
   140002842:	48 98                	cdqe
   140002844:	48 c1 e0 06          	shl    rax,0x6
   140002848:	48 89 c2             	mov    rdx,rax
   14000284b:	48 8b 85 68 ff ff ff 	mov    rax,QWORD PTR [rbp-0x98]
   140002852:	48 01 d0             	add    rax,rdx
   140002855:	48 89 85 58 ff ff ff 	mov    QWORD PTR [rbp-0xa8],rax
   14000285c:	48 8b 85 58 ff ff ff 	mov    rax,QWORD PTR [rbp-0xa8]
   140002863:	8b 40 04             	mov    eax,DWORD PTR [rax+0x4]
   140002866:	83 f8 01             	cmp    eax,0x1
   140002869:	75 67                	jne    1400028d2 <_ZN5rvm643elf17patch_elf_importsEv+0x65e>
   14000286b:	48 8b 85 58 ff ff ff 	mov    rax,QWORD PTR [rbp-0xa8]
   140002872:	8b 00                	mov    eax,DWORD PTR [rax]
   140002874:	89 c2                	mov    edx,eax
   140002876:	48 8b 45 b8          	mov    rax,QWORD PTR [rbp-0x48]
   14000287a:	48 01 d0             	add    rax,rdx
   14000287d:	48 8d 15 74 e8 00 00 	lea    rdx,[rip+0xe874]        # 1400110f8 <_ZL3key+0xf8>
   140002884:	48 89 c1             	mov    rcx,rax
   140002887:	e8 9c aa 00 00       	call   14000d328 <strcmp>
   14000288c:	85 c0                	test   eax,eax
   14000288e:	75 42                	jne    1400028d2 <_ZN5rvm643elf17patch_elf_importsEv+0x65e>
   140002890:	48 8b 05 71 d7 00 00 	mov    rax,QWORD PTR [rip+0xd771]        # 140010008 <vmcs>
   140002897:	48 8b 95 58 ff ff ff 	mov    rdx,QWORD PTR [rbp-0xa8]
   14000289e:	48 8b 52 10          	mov    rdx,QWORD PTR [rdx+0x10]
   1400028a2:	48 89 90 70 03 80 00 	mov    QWORD PTR [rax+0x800370],rdx
   1400028a9:	48 8b 85 58 ff ff ff 	mov    rax,QWORD PTR [rbp-0xa8]
   1400028b0:	48 8b 48 10          	mov    rcx,QWORD PTR [rax+0x10]
   1400028b4:	48 8b 85 58 ff ff ff 	mov    rax,QWORD PTR [rbp-0xa8]
   1400028bb:	48 8b 50 20          	mov    rdx,QWORD PTR [rax+0x20]
   1400028bf:	48 8b 05 42 d7 00 00 	mov    rax,QWORD PTR [rip+0xd742]        # 140010008 <vmcs>
   1400028c6:	48 01 ca             	add    rdx,rcx
   1400028c9:	48 89 90 78 03 80 00 	mov    QWORD PTR [rax+0x800378],rdx
   1400028d0:	eb 19                	jmp    1400028eb <_ZN5rvm643elf17patch_elf_importsEv+0x677>
   1400028d2:	83 45 ac 01          	add    DWORD PTR [rbp-0x54],0x1
   1400028d6:	48 8b 45 98          	mov    rax,QWORD PTR [rbp-0x68]
   1400028da:	0f b7 40 3c          	movzx  eax,WORD PTR [rax+0x3c]
   1400028de:	0f b7 c0             	movzx  eax,ax
   1400028e1:	39 45 ac             	cmp    DWORD PTR [rbp-0x54],eax
   1400028e4:	0f 8c 55 ff ff ff    	jl     14000283f <_ZN5rvm643elf17patch_elf_importsEv+0x5cb>
   1400028ea:	90                   	nop
   1400028eb:	90                   	nop
   1400028ec:	48 81 c4 f0 00 00 00 	add    rsp,0xf0
   1400028f3:	5d                   	pop    rbp
   1400028f4:	c3                   	ret

00000001400028f5 <_ZN5rvm643elf14load_elf_imageEPvy>:
   1400028f5:	55                   	push   rbp
   1400028f6:	48 89 e5             	mov    rbp,rsp
   1400028f9:	48 83 ec 60          	sub    rsp,0x60
   1400028fd:	48 89 4d 10          	mov    QWORD PTR [rbp+0x10],rcx
   140002901:	48 89 55 18          	mov    QWORD PTR [rbp+0x18],rdx
   140002905:	48 8b 45 10          	mov    rax,QWORD PTR [rbp+0x10]
   140002909:	48 89 45 e0          	mov    QWORD PTR [rbp-0x20],rax
   14000290d:	48 8b 45 e0          	mov    rax,QWORD PTR [rbp-0x20]
   140002911:	0f b6 00             	movzx  eax,BYTE PTR [rax]
   140002914:	3c 7f                	cmp    al,0x7f
   140002916:	75 24                	jne    14000293c <_ZN5rvm643elf14load_elf_imageEPvy+0x47>
   140002918:	48 8b 45 e0          	mov    rax,QWORD PTR [rbp-0x20]
   14000291c:	0f b6 40 01          	movzx  eax,BYTE PTR [rax+0x1]
   140002920:	3c 45                	cmp    al,0x45
   140002922:	75 18                	jne    14000293c <_ZN5rvm643elf14load_elf_imageEPvy+0x47>
   140002924:	48 8b 45 e0          	mov    rax,QWORD PTR [rbp-0x20]
   140002928:	0f b6 40 02          	movzx  eax,BYTE PTR [rax+0x2]
   14000292c:	3c 4c                	cmp    al,0x4c
   14000292e:	75 0c                	jne    14000293c <_ZN5rvm643elf14load_elf_imageEPvy+0x47>
   140002930:	48 8b 45 e0          	mov    rax,QWORD PTR [rbp-0x20]
   140002934:	0f b6 40 03          	movzx  eax,BYTE PTR [rax+0x3]
   140002938:	3c 46                	cmp    al,0x46
   14000293a:	74 5b                	je     140002997 <_ZN5rvm643elf14load_elf_imageEPvy+0xa2>
   14000293c:	48 8b 05 c5 d6 00 00 	mov    rax,QWORD PTR [rip+0xd6c5]        # 140010008 <vmcs>
   140002943:	48 c7 80 98 03 80 00 	mov    QWORD PTR [rax+0x800398],0x0
   14000294a:	00 00 00 00 
   14000294e:	48 8b 05 b3 d6 00 00 	mov    rax,QWORD PTR [rip+0xd6b3]        # 140010008 <vmcs>
   140002955:	48 c7 80 a0 03 80 00 	mov    QWORD PTR [rax+0x8003a0],0xb027
   14000295c:	27 b0 00 00 
   140002960:	48 8b 05 a1 d6 00 00 	mov    rax,QWORD PTR [rip+0xd6a1]        # 140010008 <vmcs>
   140002967:	48 c7 80 a8 03 80 00 	mov    QWORD PTR [rax+0x8003a8],0x0
   14000296e:	00 00 00 00 
   140002972:	48 8b 05 8f d6 00 00 	mov    rax,QWORD PTR [rip+0xd68f]        # 140010008 <vmcs>
   140002979:	48 c7 80 b0 03 80 00 	mov    QWORD PTR [rax+0x8003b0],0x0
   140002980:	00 00 00 00 
   140002984:	48 8b 05 7d d6 00 00 	mov    rax,QWORD PTR [rip+0xd67d]        # 140010008 <vmcs>
   14000298b:	c7 80 b8 03 80 00 01 	mov    DWORD PTR [rax+0x8003b8],0x1
   140002992:	00 00 00 
   140002995:	cc                   	int3
   140002996:	90                   	nop
   140002997:	48 8b 45 e0          	mov    rax,QWORD PTR [rbp-0x20]
   14000299b:	0f b6 40 04          	movzx  eax,BYTE PTR [rax+0x4]
   14000299f:	3c 02                	cmp    al,0x2
   1400029a1:	75 0e                	jne    1400029b1 <_ZN5rvm643elf14load_elf_imageEPvy+0xbc>
   1400029a3:	48 8b 45 e0          	mov    rax,QWORD PTR [rbp-0x20]
   1400029a7:	0f b7 40 12          	movzx  eax,WORD PTR [rax+0x12]
   1400029ab:	66 3d f3 00          	cmp    ax,0xf3
   1400029af:	74 5b                	je     140002a0c <_ZN5rvm643elf14load_elf_imageEPvy+0x117>
   1400029b1:	48 8b 05 50 d6 00 00 	mov    rax,QWORD PTR [rip+0xd650]        # 140010008 <vmcs>
   1400029b8:	48 c7 80 98 03 80 00 	mov    QWORD PTR [rax+0x800398],0x0
   1400029bf:	00 00 00 00 
   1400029c3:	48 8b 05 3e d6 00 00 	mov    rax,QWORD PTR [rip+0xd63e]        # 140010008 <vmcs>
   1400029ca:	48 c7 80 a0 03 80 00 	mov    QWORD PTR [rax+0x8003a0],0xb027
   1400029d1:	27 b0 00 00 
   1400029d5:	48 8b 05 2c d6 00 00 	mov    rax,QWORD PTR [rip+0xd62c]        # 140010008 <vmcs>
   1400029dc:	48 c7 80 a8 03 80 00 	mov    QWORD PTR [rax+0x8003a8],0x0
   1400029e3:	00 00 00 00 
   1400029e7:	48 8b 05 1a d6 00 00 	mov    rax,QWORD PTR [rip+0xd61a]        # 140010008 <vmcs>
   1400029ee:	48 c7 80 b0 03 80 00 	mov    QWORD PTR [rax+0x8003b0],0x0
   1400029f5:	00 00 00 00 
   1400029f9:	48 8b 05 08 d6 00 00 	mov    rax,QWORD PTR [rip+0xd608]        # 140010008 <vmcs>
   140002a00:	c7 80 b8 03 80 00 01 	mov    DWORD PTR [rax+0x8003b8],0x1
   140002a07:	00 00 00 
   140002a0a:	cc                   	int3
   140002a0b:	90                   	nop
   140002a0c:	48 8b 45 e0          	mov    rax,QWORD PTR [rbp-0x20]
   140002a10:	48 8b 50 20          	mov    rdx,QWORD PTR [rax+0x20]
   140002a14:	48 8b 45 10          	mov    rax,QWORD PTR [rbp+0x10]
   140002a18:	48 01 d0             	add    rax,rdx
   140002a1b:	48 89 45 d8          	mov    QWORD PTR [rbp-0x28],rax
   140002a1f:	48 c7 45 f8 ff ff ff 	mov    QWORD PTR [rbp-0x8],0xffffffffffffffff
   140002a26:	ff 
   140002a27:	48 c7 45 f0 00 00 00 	mov    QWORD PTR [rbp-0x10],0x0
   140002a2e:	00 
   140002a2f:	c7 45 ec 00 00 00 00 	mov    DWORD PTR [rbp-0x14],0x0
   140002a36:	e9 d7 00 00 00       	jmp    140002b12 <_ZN5rvm643elf14load_elf_imageEPvy+0x21d>
   140002a3b:	8b 45 ec             	mov    eax,DWORD PTR [rbp-0x14]
   140002a3e:	48 63 d0             	movsxd rdx,eax
   140002a41:	48 89 d0             	mov    rax,rdx
   140002a44:	48 c1 e0 03          	shl    rax,0x3
   140002a48:	48 29 d0             	sub    rax,rdx
   140002a4b:	48 c1 e0 03          	shl    rax,0x3
   140002a4f:	48 89 c2             	mov    rdx,rax
   140002a52:	48 8b 45 d8          	mov    rax,QWORD PTR [rbp-0x28]
   140002a56:	48 01 d0             	add    rax,rdx
   140002a59:	8b 00                	mov    eax,DWORD PTR [rax]
   140002a5b:	83 f8 01             	cmp    eax,0x1
   140002a5e:	0f 85 aa 00 00 00    	jne    140002b0e <_ZN5rvm643elf14load_elf_imageEPvy+0x219>
   140002a64:	8b 45 ec             	mov    eax,DWORD PTR [rbp-0x14]
   140002a67:	48 63 d0             	movsxd rdx,eax
   140002a6a:	48 89 d0             	mov    rax,rdx
   140002a6d:	48 c1 e0 03          	shl    rax,0x3
   140002a71:	48 29 d0             	sub    rax,rdx
   140002a74:	48 c1 e0 03          	shl    rax,0x3
   140002a78:	48 89 c2             	mov    rdx,rax
   140002a7b:	48 8b 45 d8          	mov    rax,QWORD PTR [rbp-0x28]
   140002a7f:	48 01 d0             	add    rax,rdx
   140002a82:	48 8b 40 10          	mov    rax,QWORD PTR [rax+0x10]
   140002a86:	48 39 45 f8          	cmp    QWORD PTR [rbp-0x8],rax
   140002a8a:	72 24                	jb     140002ab0 <_ZN5rvm643elf14load_elf_imageEPvy+0x1bb>
   140002a8c:	8b 45 ec             	mov    eax,DWORD PTR [rbp-0x14]
   140002a8f:	48 63 d0             	movsxd rdx,eax
   140002a92:	48 89 d0             	mov    rax,rdx
   140002a95:	48 c1 e0 03          	shl    rax,0x3
   140002a99:	48 29 d0             	sub    rax,rdx
   140002a9c:	48 c1 e0 03          	shl    rax,0x3
   140002aa0:	48 89 c2             	mov    rdx,rax
   140002aa3:	48 8b 45 d8          	mov    rax,QWORD PTR [rbp-0x28]
   140002aa7:	48 01 d0             	add    rax,rdx
   140002aaa:	48 8b 40 10          	mov    rax,QWORD PTR [rax+0x10]
   140002aae:	eb 04                	jmp    140002ab4 <_ZN5rvm643elf14load_elf_imageEPvy+0x1bf>
   140002ab0:	48 8b 45 f8          	mov    rax,QWORD PTR [rbp-0x8]
   140002ab4:	48 89 45 f8          	mov    QWORD PTR [rbp-0x8],rax
   140002ab8:	8b 45 ec             	mov    eax,DWORD PTR [rbp-0x14]
   140002abb:	48 63 d0             	movsxd rdx,eax
   140002abe:	48 89 d0             	mov    rax,rdx
   140002ac1:	48 c1 e0 03          	shl    rax,0x3
   140002ac5:	48 29 d0             	sub    rax,rdx
   140002ac8:	48 c1 e0 03          	shl    rax,0x3
   140002acc:	48 89 c2             	mov    rdx,rax
   140002acf:	48 8b 45 d8          	mov    rax,QWORD PTR [rbp-0x28]
   140002ad3:	48 01 d0             	add    rax,rdx
   140002ad6:	48 8b 48 10          	mov    rcx,QWORD PTR [rax+0x10]
   140002ada:	8b 45 ec             	mov    eax,DWORD PTR [rbp-0x14]
   140002add:	48 63 d0             	movsxd rdx,eax
   140002ae0:	48 89 d0             	mov    rax,rdx
   140002ae3:	48 c1 e0 03          	shl    rax,0x3
   140002ae7:	48 29 d0             	sub    rax,rdx
   140002aea:	48 c1 e0 03          	shl    rax,0x3
   140002aee:	48 89 c2             	mov    rdx,rax
   140002af1:	48 8b 45 d8          	mov    rax,QWORD PTR [rbp-0x28]
   140002af5:	48 01 d0             	add    rax,rdx
   140002af8:	48 8b 40 28          	mov    rax,QWORD PTR [rax+0x28]
   140002afc:	48 01 c8             	add    rax,rcx
   140002aff:	48 8b 55 f0          	mov    rdx,QWORD PTR [rbp-0x10]
   140002b03:	48 39 c2             	cmp    rdx,rax
   140002b06:	48 0f 43 c2          	cmovae rax,rdx
   140002b0a:	48 89 45 f0          	mov    QWORD PTR [rbp-0x10],rax
   140002b0e:	83 45 ec 01          	add    DWORD PTR [rbp-0x14],0x1
   140002b12:	48 8b 45 e0          	mov    rax,QWORD PTR [rbp-0x20]
   140002b16:	0f b7 40 38          	movzx  eax,WORD PTR [rax+0x38]
   140002b1a:	0f b7 c0             	movzx  eax,ax
   140002b1d:	39 45 ec             	cmp    DWORD PTR [rbp-0x14],eax
   140002b20:	0f 8c 15 ff ff ff    	jl     140002a3b <_ZN5rvm643elf14load_elf_imageEPvy+0x146>
   140002b26:	48 83 7d f8 ff       	cmp    QWORD PTR [rbp-0x8],0xffffffffffffffff
   140002b2b:	74 0a                	je     140002b37 <_ZN5rvm643elf14load_elf_imageEPvy+0x242>
   140002b2d:	48 8b 45 f0          	mov    rax,QWORD PTR [rbp-0x10]
   140002b31:	48 39 45 f8          	cmp    QWORD PTR [rbp-0x8],rax
   140002b35:	72 5b                	jb     140002b92 <_ZN5rvm643elf14load_elf_imageEPvy+0x29d>
   140002b37:	48 8b 05 ca d4 00 00 	mov    rax,QWORD PTR [rip+0xd4ca]        # 140010008 <vmcs>
   140002b3e:	48 c7 80 98 03 80 00 	mov    QWORD PTR [rax+0x800398],0x0
   140002b45:	00 00 00 00 
   140002b49:	48 8b 05 b8 d4 00 00 	mov    rax,QWORD PTR [rip+0xd4b8]        # 140010008 <vmcs>
   140002b50:	48 c7 80 a0 03 80 00 	mov    QWORD PTR [rax+0x8003a0],0xb026
   140002b57:	26 b0 00 00 
   140002b5b:	48 8b 05 a6 d4 00 00 	mov    rax,QWORD PTR [rip+0xd4a6]        # 140010008 <vmcs>
   140002b62:	48 c7 80 a8 03 80 00 	mov    QWORD PTR [rax+0x8003a8],0x0
   140002b69:	00 00 00 00 
   140002b6d:	48 8b 05 94 d4 00 00 	mov    rax,QWORD PTR [rip+0xd494]        # 140010008 <vmcs>
   140002b74:	48 c7 80 b0 03 80 00 	mov    QWORD PTR [rax+0x8003b0],0x0
   140002b7b:	00 00 00 00 
   140002b7f:	48 8b 05 82 d4 00 00 	mov    rax,QWORD PTR [rip+0xd482]        # 140010008 <vmcs>
   140002b86:	c7 80 b8 03 80 00 01 	mov    DWORD PTR [rax+0x8003b8],0x1
   140002b8d:	00 00 00 
   140002b90:	cc                   	int3
   140002b91:	90                   	nop
   140002b92:	c7 45 e8 00 00 00 00 	mov    DWORD PTR [rbp-0x18],0x0
   140002b99:	e9 9d 01 00 00       	jmp    140002d3b <_ZN5rvm643elf14load_elf_imageEPvy+0x446>
   140002b9e:	8b 45 e8             	mov    eax,DWORD PTR [rbp-0x18]
   140002ba1:	48 63 d0             	movsxd rdx,eax
   140002ba4:	48 89 d0             	mov    rax,rdx
   140002ba7:	48 c1 e0 03          	shl    rax,0x3
   140002bab:	48 29 d0             	sub    rax,rdx
   140002bae:	48 c1 e0 03          	shl    rax,0x3
   140002bb2:	48 89 c2             	mov    rdx,rax
   140002bb5:	48 8b 45 d8          	mov    rax,QWORD PTR [rbp-0x28]
   140002bb9:	48 01 d0             	add    rax,rdx
   140002bbc:	8b 00                	mov    eax,DWORD PTR [rax]
   140002bbe:	83 f8 01             	cmp    eax,0x1
   140002bc1:	0f 85 6f 01 00 00    	jne    140002d36 <_ZN5rvm643elf14load_elf_imageEPvy+0x441>
   140002bc7:	8b 45 e8             	mov    eax,DWORD PTR [rbp-0x18]
   140002bca:	48 63 d0             	movsxd rdx,eax
   140002bcd:	48 89 d0             	mov    rax,rdx
   140002bd0:	48 c1 e0 03          	shl    rax,0x3
   140002bd4:	48 29 d0             	sub    rax,rdx
   140002bd7:	48 c1 e0 03          	shl    rax,0x3
   140002bdb:	48 89 c2             	mov    rdx,rax
   140002bde:	48 8b 45 d8          	mov    rax,QWORD PTR [rbp-0x28]
   140002be2:	48 01 d0             	add    rax,rdx
   140002be5:	48 8b 40 10          	mov    rax,QWORD PTR [rax+0x10]
   140002be9:	48 2b 45 f8          	sub    rax,QWORD PTR [rbp-0x8]
   140002bed:	48 89 c2             	mov    rdx,rax
   140002bf0:	48 8b 05 11 d4 00 00 	mov    rax,QWORD PTR [rip+0xd411]        # 140010008 <vmcs>
   140002bf7:	48 8b 80 50 03 80 00 	mov    rax,QWORD PTR [rax+0x800350]
   140002bfe:	48 01 d0             	add    rax,rdx
   140002c01:	48 89 45 d0          	mov    QWORD PTR [rbp-0x30],rax
   140002c05:	8b 45 e8             	mov    eax,DWORD PTR [rbp-0x18]
   140002c08:	48 63 d0             	movsxd rdx,eax
   140002c0b:	48 89 d0             	mov    rax,rdx
   140002c0e:	48 c1 e0 03          	shl    rax,0x3
   140002c12:	48 29 d0             	sub    rax,rdx
   140002c15:	48 c1 e0 03          	shl    rax,0x3
   140002c19:	48 89 c2             	mov    rdx,rax
   140002c1c:	48 8b 45 d8          	mov    rax,QWORD PTR [rbp-0x28]
   140002c20:	48 01 d0             	add    rax,rdx
   140002c23:	48 8b 50 08          	mov    rdx,QWORD PTR [rax+0x8]
   140002c27:	48 8b 45 10          	mov    rax,QWORD PTR [rbp+0x10]
   140002c2b:	48 01 d0             	add    rax,rdx
   140002c2e:	48 89 45 c8          	mov    QWORD PTR [rbp-0x38],rax
   140002c32:	8b 45 e8             	mov    eax,DWORD PTR [rbp-0x18]
   140002c35:	48 63 d0             	movsxd rdx,eax
   140002c38:	48 89 d0             	mov    rax,rdx
   140002c3b:	48 c1 e0 03          	shl    rax,0x3
   140002c3f:	48 29 d0             	sub    rax,rdx
   140002c42:	48 c1 e0 03          	shl    rax,0x3
   140002c46:	48 89 c2             	mov    rdx,rax
   140002c49:	48 8b 45 d8          	mov    rax,QWORD PTR [rbp-0x28]
   140002c4d:	48 01 d0             	add    rax,rdx
   140002c50:	48 8b 48 20          	mov    rcx,QWORD PTR [rax+0x20]
   140002c54:	48 8b 55 c8          	mov    rdx,QWORD PTR [rbp-0x38]
   140002c58:	48 8b 45 d0          	mov    rax,QWORD PTR [rbp-0x30]
   140002c5c:	49 89 c8             	mov    r8,rcx
   140002c5f:	48 89 c1             	mov    rcx,rax
   140002c62:	e8 a9 a6 00 00       	call   14000d310 <memcpy>
   140002c67:	8b 45 e8             	mov    eax,DWORD PTR [rbp-0x18]
   140002c6a:	48 63 d0             	movsxd rdx,eax
   140002c6d:	48 89 d0             	mov    rax,rdx
   140002c70:	48 c1 e0 03          	shl    rax,0x3
   140002c74:	48 29 d0             	sub    rax,rdx
   140002c77:	48 c1 e0 03          	shl    rax,0x3
   140002c7b:	48 89 c2             	mov    rdx,rax
   140002c7e:	48 8b 45 d8          	mov    rax,QWORD PTR [rbp-0x28]
   140002c82:	48 01 d0             	add    rax,rdx
   140002c85:	48 8b 48 28          	mov    rcx,QWORD PTR [rax+0x28]
   140002c89:	8b 45 e8             	mov    eax,DWORD PTR [rbp-0x18]
   140002c8c:	48 63 d0             	movsxd rdx,eax
   140002c8f:	48 89 d0             	mov    rax,rdx
   140002c92:	48 c1 e0 03          	shl    rax,0x3
   140002c96:	48 29 d0             	sub    rax,rdx
   140002c99:	48 c1 e0 03          	shl    rax,0x3
   140002c9d:	48 89 c2             	mov    rdx,rax
   140002ca0:	48 8b 45 d8          	mov    rax,QWORD PTR [rbp-0x28]
   140002ca4:	48 01 d0             	add    rax,rdx
   140002ca7:	48 8b 40 20          	mov    rax,QWORD PTR [rax+0x20]
   140002cab:	48 39 c8             	cmp    rax,rcx
   140002cae:	0f 83 83 00 00 00    	jae    140002d37 <_ZN5rvm643elf14load_elf_imageEPvy+0x442>
   140002cb4:	8b 45 e8             	mov    eax,DWORD PTR [rbp-0x18]
   140002cb7:	48 63 d0             	movsxd rdx,eax
   140002cba:	48 89 d0             	mov    rax,rdx
   140002cbd:	48 c1 e0 03          	shl    rax,0x3
   140002cc1:	48 29 d0             	sub    rax,rdx
   140002cc4:	48 c1 e0 03          	shl    rax,0x3
   140002cc8:	48 89 c2             	mov    rdx,rax
   140002ccb:	48 8b 45 d8          	mov    rax,QWORD PTR [rbp-0x28]
   140002ccf:	48 01 d0             	add    rax,rdx
   140002cd2:	48 8b 48 28          	mov    rcx,QWORD PTR [rax+0x28]
   140002cd6:	8b 45 e8             	mov    eax,DWORD PTR [rbp-0x18]
   140002cd9:	48 63 d0             	movsxd rdx,eax
   140002cdc:	48 89 d0             	mov    rax,rdx
   140002cdf:	48 c1 e0 03          	shl    rax,0x3
   140002ce3:	48 29 d0             	sub    rax,rdx
   140002ce6:	48 c1 e0 03          	shl    rax,0x3
   140002cea:	48 89 c2             	mov    rdx,rax
   140002ced:	48 8b 45 d8          	mov    rax,QWORD PTR [rbp-0x28]
   140002cf1:	48 01 d0             	add    rax,rdx
   140002cf4:	48 8b 40 20          	mov    rax,QWORD PTR [rax+0x20]
   140002cf8:	48 29 c1             	sub    rcx,rax
   140002cfb:	8b 45 e8             	mov    eax,DWORD PTR [rbp-0x18]
   140002cfe:	48 63 d0             	movsxd rdx,eax
   140002d01:	48 89 d0             	mov    rax,rdx
   140002d04:	48 c1 e0 03          	shl    rax,0x3
   140002d08:	48 29 d0             	sub    rax,rdx
   140002d0b:	48 c1 e0 03          	shl    rax,0x3
   140002d0f:	48 89 c2             	mov    rdx,rax
   140002d12:	48 8b 45 d8          	mov    rax,QWORD PTR [rbp-0x28]
   140002d16:	48 01 d0             	add    rax,rdx
   140002d19:	48 8b 50 20          	mov    rdx,QWORD PTR [rax+0x20]
   140002d1d:	48 8b 45 d0          	mov    rax,QWORD PTR [rbp-0x30]
   140002d21:	48 01 d0             	add    rax,rdx
   140002d24:	49 89 c8             	mov    r8,rcx
   140002d27:	ba 00 00 00 00       	mov    edx,0x0
   140002d2c:	48 89 c1             	mov    rcx,rax
   140002d2f:	e8 e4 a5 00 00       	call   14000d318 <memset>
   140002d34:	eb 01                	jmp    140002d37 <_ZN5rvm643elf14load_elf_imageEPvy+0x442>
   140002d36:	90                   	nop
   140002d37:	83 45 e8 01          	add    DWORD PTR [rbp-0x18],0x1
   140002d3b:	48 8b 45 e0          	mov    rax,QWORD PTR [rbp-0x20]
   140002d3f:	0f b7 40 38          	movzx  eax,WORD PTR [rax+0x38]
   140002d43:	0f b7 c0             	movzx  eax,ax
   140002d46:	39 45 e8             	cmp    DWORD PTR [rbp-0x18],eax
   140002d49:	0f 8c 4f fe ff ff    	jl     140002b9e <_ZN5rvm643elf14load_elf_imageEPvy+0x2a9>
   140002d4f:	48 8b 05 b2 d2 00 00 	mov    rax,QWORD PTR [rip+0xd2b2]        # 140010008 <vmcs>
   140002d56:	48 8b 55 18          	mov    rdx,QWORD PTR [rbp+0x18]
   140002d5a:	48 89 90 68 03 80 00 	mov    QWORD PTR [rax+0x800368],rdx
   140002d61:	48 8b 05 a0 d2 00 00 	mov    rax,QWORD PTR [rip+0xd2a0]        # 140010008 <vmcs>
   140002d68:	48 8b 55 f8          	mov    rdx,QWORD PTR [rbp-0x8]
   140002d6c:	48 89 90 58 03 80 00 	mov    QWORD PTR [rax+0x800358],rdx
   140002d73:	48 8b 05 8e d2 00 00 	mov    rax,QWORD PTR [rip+0xd28e]        # 140010008 <vmcs>
   140002d7a:	48 8b 88 50 03 80 00 	mov    rcx,QWORD PTR [rax+0x800350]
   140002d81:	48 8b 45 e0          	mov    rax,QWORD PTR [rbp-0x20]
   140002d85:	48 8b 40 18          	mov    rax,QWORD PTR [rax+0x18]
   140002d89:	48 2b 45 f8          	sub    rax,QWORD PTR [rbp-0x8]
   140002d8d:	48 89 c2             	mov    rdx,rax
   140002d90:	48 8b 05 71 d2 00 00 	mov    rax,QWORD PTR [rip+0xd271]        # 140010008 <vmcs>
   140002d97:	48 01 ca             	add    rdx,rcx
   140002d9a:	48 89 90 60 03 80 00 	mov    QWORD PTR [rax+0x800360],rdx
   140002da1:	48 8b 15 60 d2 00 00 	mov    rdx,QWORD PTR [rip+0xd260]        # 140010008 <vmcs>
   140002da8:	48 8b 05 59 d2 00 00 	mov    rax,QWORD PTR [rip+0xd259]        # 140010008 <vmcs>
   140002daf:	48 8b 92 60 03 80 00 	mov    rdx,QWORD PTR [rdx+0x800360]
   140002db6:	48 89 10             	mov    QWORD PTR [rax],rdx
   140002db9:	e8 b6 f4 ff ff       	call   140002274 <_ZN5rvm643elf17patch_elf_importsEv>
   140002dbe:	90                   	nop
   140002dbf:	48 83 c4 60          	add    rsp,0x60
   140002dc3:	5d                   	pop    rbp
   140002dc4:	c3                   	ret

0000000140002dc5 <_ZN5rvm646memory12context_initEv>:
   140002dc5:	55                   	push   rbp
   140002dc6:	53                   	push   rbx
   140002dc7:	48 83 ec 28          	sub    rsp,0x28
   140002dcb:	48 8d 6c 24 20       	lea    rbp,[rsp+0x20]
   140002dd0:	41 b9 04 00 00 00    	mov    r9d,0x4
   140002dd6:	41 b8 00 30 00 00    	mov    r8d,0x3000
   140002ddc:	ba 08 00 00 00       	mov    edx,0x8
   140002de1:	b9 00 00 00 00       	mov    ecx,0x0
   140002de6:	48 8b 05 cb 34 01 00 	mov    rax,QWORD PTR [rip+0x134cb]        # 1400162b8 <__imp_VirtualAlloc>
   140002ded:	ff d0                	call   rax
   140002def:	48 89 05 0a d2 00 00 	mov    QWORD PTR [rip+0xd20a],rax        # 140010000 <__data_start__>
   140002df6:	48 8d 05 63 e3 00 00 	lea    rax,[rip+0xe363]        # 140011160 <_ZL3key+0x160>
   140002dfd:	48 89 c1             	mov    rcx,rax
   140002e00:	48 8b 05 69 34 01 00 	mov    rax,QWORD PTR [rip+0x13469]        # 140016270 <__imp_GetModuleHandleA>
   140002e07:	ff d0                	call   rax
   140002e09:	48 89 c1             	mov    rcx,rax
   140002e0c:	48 8b 1d ed d1 00 00 	mov    rbx,QWORD PTR [rip+0xd1ed]        # 140010000 <__data_start__>
   140002e13:	48 8d 05 50 e3 00 00 	lea    rax,[rip+0xe350]        # 14001116a <_ZL3key+0x16a>
   140002e1a:	48 89 c2             	mov    rdx,rax
   140002e1d:	48 8b 05 54 34 01 00 	mov    rax,QWORD PTR [rip+0x13454]        # 140016278 <__imp_GetProcAddress>
   140002e24:	ff d0                	call   rax
   140002e26:	48 89 43 28          	mov    QWORD PTR [rbx+0x28],rax
   140002e2a:	48 8d 05 2f e3 00 00 	lea    rax,[rip+0xe32f]        # 140011160 <_ZL3key+0x160>
   140002e31:	48 89 c1             	mov    rcx,rax
   140002e34:	48 8b 05 35 34 01 00 	mov    rax,QWORD PTR [rip+0x13435]        # 140016270 <__imp_GetModuleHandleA>
   140002e3b:	ff d0                	call   rax
   140002e3d:	48 89 c1             	mov    rcx,rax
   140002e40:	48 8b 1d b9 d1 00 00 	mov    rbx,QWORD PTR [rip+0xd1b9]        # 140010000 <__data_start__>
   140002e47:	48 8d 05 2c e3 00 00 	lea    rax,[rip+0xe32c]        # 14001117a <_ZL3key+0x17a>
   140002e4e:	48 89 c2             	mov    rdx,rax
   140002e51:	48 8b 05 20 34 01 00 	mov    rax,QWORD PTR [rip+0x13420]        # 140016278 <__imp_GetProcAddress>
   140002e58:	ff d0                	call   rax
   140002e5a:	48 89 43 08          	mov    QWORD PTR [rbx+0x8],rax
   140002e5e:	48 8d 05 fb e2 00 00 	lea    rax,[rip+0xe2fb]        # 140011160 <_ZL3key+0x160>
   140002e65:	48 89 c1             	mov    rcx,rax
   140002e68:	48 8b 05 01 34 01 00 	mov    rax,QWORD PTR [rip+0x13401]        # 140016270 <__imp_GetModuleHandleA>
   140002e6f:	ff d0                	call   rax
   140002e71:	48 89 c1             	mov    rcx,rax
   140002e74:	48 8b 1d 85 d1 00 00 	mov    rbx,QWORD PTR [rip+0xd185]        # 140010000 <__data_start__>
   140002e7b:	48 8d 05 0b e3 00 00 	lea    rax,[rip+0xe30b]        # 14001118d <_ZL3key+0x18d>
   140002e82:	48 89 c2             	mov    rdx,rax
   140002e85:	48 8b 05 ec 33 01 00 	mov    rax,QWORD PTR [rip+0x133ec]        # 140016278 <__imp_GetProcAddress>
   140002e8c:	ff d0                	call   rax
   140002e8e:	48 89 43 10          	mov    QWORD PTR [rbx+0x10],rax
   140002e92:	48 8d 05 c7 e2 00 00 	lea    rax,[rip+0xe2c7]        # 140011160 <_ZL3key+0x160>
   140002e99:	48 89 c1             	mov    rcx,rax
   140002e9c:	48 8b 05 cd 33 01 00 	mov    rax,QWORD PTR [rip+0x133cd]        # 140016270 <__imp_GetModuleHandleA>
   140002ea3:	ff d0                	call   rax
   140002ea5:	48 89 c1             	mov    rcx,rax
   140002ea8:	48 8b 1d 51 d1 00 00 	mov    rbx,QWORD PTR [rip+0xd151]        # 140010000 <__data_start__>
   140002eaf:	48 8d 05 ea e2 00 00 	lea    rax,[rip+0xe2ea]        # 1400111a0 <_ZL3key+0x1a0>
   140002eb6:	48 89 c2             	mov    rdx,rax
   140002eb9:	48 8b 05 b8 33 01 00 	mov    rax,QWORD PTR [rip+0x133b8]        # 140016278 <__imp_GetProcAddress>
   140002ec0:	ff d0                	call   rax
   140002ec2:	48 89 43 18          	mov    QWORD PTR [rbx+0x18],rax
   140002ec6:	48 8d 05 93 e2 00 00 	lea    rax,[rip+0xe293]        # 140011160 <_ZL3key+0x160>
   140002ecd:	48 89 c1             	mov    rcx,rax
   140002ed0:	48 8b 05 99 33 01 00 	mov    rax,QWORD PTR [rip+0x13399]        # 140016270 <__imp_GetModuleHandleA>
   140002ed7:	ff d0                	call   rax
   140002ed9:	48 89 c1             	mov    rcx,rax
   140002edc:	48 8b 1d 1d d1 00 00 	mov    rbx,QWORD PTR [rip+0xd11d]        # 140010000 <__data_start__>
   140002ee3:	48 8d 05 ce e2 00 00 	lea    rax,[rip+0xe2ce]        # 1400111b8 <_ZL3key+0x1b8>
   140002eea:	48 89 c2             	mov    rdx,rax
   140002eed:	48 8b 05 84 33 01 00 	mov    rax,QWORD PTR [rip+0x13384]        # 140016278 <__imp_GetProcAddress>
   140002ef4:	ff d0                	call   rax
   140002ef6:	48 89 43 20          	mov    QWORD PTR [rbx+0x20],rax
   140002efa:	48 8d 05 cb e2 00 00 	lea    rax,[rip+0xe2cb]        # 1400111cc <_ZL3key+0x1cc>
   140002f01:	48 89 c1             	mov    rcx,rax
   140002f04:	48 8b 05 65 33 01 00 	mov    rax,QWORD PTR [rip+0x13365]        # 140016270 <__imp_GetModuleHandleA>
   140002f0b:	ff d0                	call   rax
   140002f0d:	48 89 c1             	mov    rcx,rax
   140002f10:	48 8b 1d e9 d0 00 00 	mov    rbx,QWORD PTR [rip+0xd0e9]        # 140010000 <__data_start__>
   140002f17:	48 8d 05 bb e2 00 00 	lea    rax,[rip+0xe2bb]        # 1400111d9 <_ZL3key+0x1d9>
   140002f1e:	48 89 c2             	mov    rdx,rax
   140002f21:	48 8b 05 50 33 01 00 	mov    rax,QWORD PTR [rip+0x13350]        # 140016278 <__imp_GetProcAddress>
   140002f28:	ff d0                	call   rax
   140002f2a:	48 89 43 50          	mov    QWORD PTR [rbx+0x50],rax
   140002f2e:	48 8d 05 97 e2 00 00 	lea    rax,[rip+0xe297]        # 1400111cc <_ZL3key+0x1cc>
   140002f35:	48 89 c1             	mov    rcx,rax
   140002f38:	48 8b 05 31 33 01 00 	mov    rax,QWORD PTR [rip+0x13331]        # 140016270 <__imp_GetModuleHandleA>
   140002f3f:	ff d0                	call   rax
   140002f41:	48 89 c1             	mov    rcx,rax
   140002f44:	48 8b 1d b5 d0 00 00 	mov    rbx,QWORD PTR [rip+0xd0b5]        # 140010000 <__data_start__>
   140002f4b:	48 8d 05 93 e2 00 00 	lea    rax,[rip+0xe293]        # 1400111e5 <_ZL3key+0x1e5>
   140002f52:	48 89 c2             	mov    rdx,rax
   140002f55:	48 8b 05 1c 33 01 00 	mov    rax,QWORD PTR [rip+0x1331c]        # 140016278 <__imp_GetProcAddress>
   140002f5c:	ff d0                	call   rax
   140002f5e:	48 89 43 58          	mov    QWORD PTR [rbx+0x58],rax
   140002f62:	48 8d 05 63 e2 00 00 	lea    rax,[rip+0xe263]        # 1400111cc <_ZL3key+0x1cc>
   140002f69:	48 89 c1             	mov    rcx,rax
   140002f6c:	48 8b 05 fd 32 01 00 	mov    rax,QWORD PTR [rip+0x132fd]        # 140016270 <__imp_GetModuleHandleA>
   140002f73:	ff d0                	call   rax
   140002f75:	48 89 c1             	mov    rcx,rax
   140002f78:	48 8b 1d 81 d0 00 00 	mov    rbx,QWORD PTR [rip+0xd081]        # 140010000 <__data_start__>
   140002f7f:	48 8d 05 68 e2 00 00 	lea    rax,[rip+0xe268]        # 1400111ee <_ZL3key+0x1ee>
   140002f86:	48 89 c2             	mov    rdx,rax
   140002f89:	48 8b 05 e8 32 01 00 	mov    rax,QWORD PTR [rip+0x132e8]        # 140016278 <__imp_GetProcAddress>
   140002f90:	ff d0                	call   rax
   140002f92:	48 89 43 48          	mov    QWORD PTR [rbx+0x48],rax
   140002f96:	48 8d 05 2f e2 00 00 	lea    rax,[rip+0xe22f]        # 1400111cc <_ZL3key+0x1cc>
   140002f9d:	48 89 c1             	mov    rcx,rax
   140002fa0:	48 8b 05 c9 32 01 00 	mov    rax,QWORD PTR [rip+0x132c9]        # 140016270 <__imp_GetModuleHandleA>
   140002fa7:	ff d0                	call   rax
   140002fa9:	48 89 c1             	mov    rcx,rax
   140002fac:	48 8b 1d 4d d0 00 00 	mov    rbx,QWORD PTR [rip+0xd04d]        # 140010000 <__data_start__>
   140002fb3:	48 8d 05 40 e2 00 00 	lea    rax,[rip+0xe240]        # 1400111fa <_ZL3key+0x1fa>
   140002fba:	48 89 c2             	mov    rdx,rax
   140002fbd:	48 8b 05 b4 32 01 00 	mov    rax,QWORD PTR [rip+0x132b4]        # 140016278 <__imp_GetProcAddress>
   140002fc4:	ff d0                	call   rax
   140002fc6:	48 89 43 38          	mov    QWORD PTR [rbx+0x38],rax
   140002fca:	48 8d 05 fb e1 00 00 	lea    rax,[rip+0xe1fb]        # 1400111cc <_ZL3key+0x1cc>
   140002fd1:	48 89 c1             	mov    rcx,rax
   140002fd4:	48 8b 05 95 32 01 00 	mov    rax,QWORD PTR [rip+0x13295]        # 140016270 <__imp_GetModuleHandleA>
   140002fdb:	ff d0                	call   rax
   140002fdd:	48 89 c1             	mov    rcx,rax
   140002fe0:	48 8b 1d 19 d0 00 00 	mov    rbx,QWORD PTR [rip+0xd019]        # 140010000 <__data_start__>
   140002fe7:	48 8d 05 19 e2 00 00 	lea    rax,[rip+0xe219]        # 140011207 <_ZL3key+0x207>
   140002fee:	48 89 c2             	mov    rdx,rax
   140002ff1:	48 8b 05 80 32 01 00 	mov    rax,QWORD PTR [rip+0x13280]        # 140016278 <__imp_GetProcAddress>
   140002ff8:	ff d0                	call   rax
   140002ffa:	48 89 43 40          	mov    QWORD PTR [rbx+0x40],rax
   140002ffe:	48 8d 05 c7 e1 00 00 	lea    rax,[rip+0xe1c7]        # 1400111cc <_ZL3key+0x1cc>
   140003005:	48 89 c1             	mov    rcx,rax
   140003008:	48 8b 05 61 32 01 00 	mov    rax,QWORD PTR [rip+0x13261]        # 140016270 <__imp_GetModuleHandleA>
   14000300f:	ff d0                	call   rax
   140003011:	48 89 c1             	mov    rcx,rax
   140003014:	48 8b 1d e5 cf 00 00 	mov    rbx,QWORD PTR [rip+0xcfe5]        # 140010000 <__data_start__>
   14000301b:	48 8d 05 f2 e1 00 00 	lea    rax,[rip+0xe1f2]        # 140011214 <_ZL3key+0x214>
   140003022:	48 89 c2             	mov    rdx,rax
   140003025:	48 8b 05 4c 32 01 00 	mov    rax,QWORD PTR [rip+0x1324c]        # 140016278 <__imp_GetProcAddress>
   14000302c:	ff d0                	call   rax
   14000302e:	48 89 43 30          	mov    QWORD PTR [rbx+0x30],rax
   140003032:	90                   	nop
   140003033:	48 83 c4 28          	add    rsp,0x28
   140003037:	5b                   	pop    rbx
   140003038:	5d                   	pop    rbp
   140003039:	c3                   	ret

000000014000303a <_ZN5rvm646memory15vm_set_load_rsvEiy>:
   14000303a:	55                   	push   rbp
   14000303b:	48 89 e5             	mov    rbp,rsp
   14000303e:	48 83 ec 20          	sub    rsp,0x20
   140003042:	89 4d 10             	mov    DWORD PTR [rbp+0x10],ecx
   140003045:	48 89 55 18          	mov    QWORD PTR [rbp+0x18],rdx
   140003049:	48 8b 05 b0 cf 00 00 	mov    rax,QWORD PTR [rip+0xcfb0]        # 140010000 <__data_start__>
   140003050:	4c 8b 40 30          	mov    r8,QWORD PTR [rax+0x30]
   140003054:	48 8b 05 b5 cf 00 00 	mov    rax,QWORD PTR [rip+0xcfb5]        # 140010010 <vmcs_mutex>
   14000305b:	ba ff ff ff ff       	mov    edx,0xffffffff
   140003060:	48 89 c1             	mov    rcx,rax
   140003063:	41 ff d0             	call   r8
   140003066:	48 8b 05 9b cf 00 00 	mov    rax,QWORD PTR [rip+0xcf9b]        # 140010008 <vmcs>
   14000306d:	48 8b 55 18          	mov    rdx,QWORD PTR [rbp+0x18]
   140003071:	48 89 90 88 03 80 00 	mov    QWORD PTR [rax+0x800388],rdx
   140003078:	48 8b 05 89 cf 00 00 	mov    rax,QWORD PTR [rip+0xcf89]        # 140010008 <vmcs>
   14000307f:	c7 80 90 03 80 00 01 	mov    DWORD PTR [rax+0x800390],0x1
   140003086:	00 00 00 
   140003089:	48 8b 05 70 cf 00 00 	mov    rax,QWORD PTR [rip+0xcf70]        # 140010000 <__data_start__>
   140003090:	48 8b 50 40          	mov    rdx,QWORD PTR [rax+0x40]
   140003094:	48 8b 05 75 cf 00 00 	mov    rax,QWORD PTR [rip+0xcf75]        # 140010010 <vmcs_mutex>
   14000309b:	48 89 c1             	mov    rcx,rax
   14000309e:	ff d2                	call   rdx
   1400030a0:	90                   	nop
   1400030a1:	48 83 c4 20          	add    rsp,0x20
   1400030a5:	5d                   	pop    rbp
   1400030a6:	c3                   	ret

00000001400030a7 <_ZN5rvm646memory17vm_clear_load_rsvEi>:
   1400030a7:	55                   	push   rbp
   1400030a8:	48 89 e5             	mov    rbp,rsp
   1400030ab:	48 83 ec 20          	sub    rsp,0x20
   1400030af:	89 4d 10             	mov    DWORD PTR [rbp+0x10],ecx
   1400030b2:	48 8b 05 47 cf 00 00 	mov    rax,QWORD PTR [rip+0xcf47]        # 140010000 <__data_start__>
   1400030b9:	4c 8b 40 30          	mov    r8,QWORD PTR [rax+0x30]
   1400030bd:	48 8b 05 4c cf 00 00 	mov    rax,QWORD PTR [rip+0xcf4c]        # 140010010 <vmcs_mutex>
   1400030c4:	ba ff ff ff ff       	mov    edx,0xffffffff
   1400030c9:	48 89 c1             	mov    rcx,rax
   1400030cc:	41 ff d0             	call   r8
   1400030cf:	48 8b 05 32 cf 00 00 	mov    rax,QWORD PTR [rip+0xcf32]        # 140010008 <vmcs>
   1400030d6:	48 c7 80 88 03 80 00 	mov    QWORD PTR [rax+0x800388],0x0
   1400030dd:	00 00 00 00 
   1400030e1:	48 8b 05 20 cf 00 00 	mov    rax,QWORD PTR [rip+0xcf20]        # 140010008 <vmcs>
   1400030e8:	c7 80 90 03 80 00 00 	mov    DWORD PTR [rax+0x800390],0x0
   1400030ef:	00 00 00 
   1400030f2:	48 8b 05 07 cf 00 00 	mov    rax,QWORD PTR [rip+0xcf07]        # 140010000 <__data_start__>
   1400030f9:	48 8b 50 40          	mov    rdx,QWORD PTR [rax+0x40]
   1400030fd:	48 8b 05 0c cf 00 00 	mov    rax,QWORD PTR [rip+0xcf0c]        # 140010010 <vmcs_mutex>
   140003104:	48 89 c1             	mov    rcx,rax
   140003107:	ff d2                	call   rdx
   140003109:	90                   	nop
   14000310a:	48 83 c4 20          	add    rsp,0x20
   14000310e:	5d                   	pop    rbp
   14000310f:	c3                   	ret

0000000140003110 <_ZN5rvm646memory17vm_check_load_rsvEiy>:
   140003110:	55                   	push   rbp
   140003111:	48 89 e5             	mov    rbp,rsp
   140003114:	48 83 ec 30          	sub    rsp,0x30
   140003118:	89 4d 10             	mov    DWORD PTR [rbp+0x10],ecx
   14000311b:	48 89 55 18          	mov    QWORD PTR [rbp+0x18],rdx
   14000311f:	c7 45 fc 00 00 00 00 	mov    DWORD PTR [rbp-0x4],0x0
   140003126:	48 8b 05 d3 ce 00 00 	mov    rax,QWORD PTR [rip+0xced3]        # 140010000 <__data_start__>
   14000312d:	4c 8b 40 30          	mov    r8,QWORD PTR [rax+0x30]
   140003131:	48 8b 05 d8 ce 00 00 	mov    rax,QWORD PTR [rip+0xced8]        # 140010010 <vmcs_mutex>
   140003138:	ba ff ff ff ff       	mov    edx,0xffffffff
   14000313d:	48 89 c1             	mov    rcx,rax
   140003140:	41 ff d0             	call   r8
   140003143:	48 8b 05 be ce 00 00 	mov    rax,QWORD PTR [rip+0xcebe]        # 140010008 <vmcs>
   14000314a:	8b 80 90 03 80 00    	mov    eax,DWORD PTR [rax+0x800390]
   140003150:	85 c0                	test   eax,eax
   140003152:	74 1b                	je     14000316f <_ZN5rvm646memory17vm_check_load_rsvEiy+0x5f>
   140003154:	48 8b 05 ad ce 00 00 	mov    rax,QWORD PTR [rip+0xcead]        # 140010008 <vmcs>
   14000315b:	48 8b 80 88 03 80 00 	mov    rax,QWORD PTR [rax+0x800388]
   140003162:	48 39 45 18          	cmp    QWORD PTR [rbp+0x18],rax
   140003166:	75 07                	jne    14000316f <_ZN5rvm646memory17vm_check_load_rsvEiy+0x5f>
   140003168:	b8 01 00 00 00       	mov    eax,0x1
   14000316d:	eb 05                	jmp    140003174 <_ZN5rvm646memory17vm_check_load_rsvEiy+0x64>
   14000316f:	b8 00 00 00 00       	mov    eax,0x0
   140003174:	0f b6 c0             	movzx  eax,al
   140003177:	89 45 fc             	mov    DWORD PTR [rbp-0x4],eax
   14000317a:	48 8b 05 7f ce 00 00 	mov    rax,QWORD PTR [rip+0xce7f]        # 140010000 <__data_start__>
   140003181:	48 8b 50 40          	mov    rdx,QWORD PTR [rax+0x40]
   140003185:	48 8b 05 84 ce 00 00 	mov    rax,QWORD PTR [rip+0xce84]        # 140010010 <vmcs_mutex>
   14000318c:	48 89 c1             	mov    rcx,rax
   14000318f:	ff d2                	call   rdx
   140003191:	83 7d fc 00          	cmp    DWORD PTR [rbp-0x4],0x0
   140003195:	0f 95 c0             	setne  al
   140003198:	48 83 c4 30          	add    rsp,0x30
   14000319c:	5d                   	pop    rbp
   14000319d:	c3                   	ret

000000014000319e <_ZN5rvm646memory11memory_initEy>:
   14000319e:	55                   	push   rbp
   14000319f:	48 89 e5             	mov    rbp,rsp
   1400031a2:	48 83 ec 40          	sub    rsp,0x40
   1400031a6:	48 89 4d 10          	mov    QWORD PTR [rbp+0x10],rcx
   1400031aa:	c7 45 fc 00 00 00 00 	mov    DWORD PTR [rbp-0x4],0x0
   1400031b1:	48 8b 05 50 ce 00 00 	mov    rax,QWORD PTR [rip+0xce50]        # 140010008 <vmcs>
   1400031b8:	48 8b 55 10          	mov    rdx,QWORD PTR [rbp+0x10]
   1400031bc:	48 89 90 68 03 80 00 	mov    QWORD PTR [rax+0x800368],rdx
   1400031c3:	48 8b 05 36 ce 00 00 	mov    rax,QWORD PTR [rip+0xce36]        # 140010000 <__data_start__>
   1400031ca:	48 8b 40 18          	mov    rax,QWORD PTR [rax+0x18]
   1400031ce:	48 8b 15 33 ce 00 00 	mov    rdx,QWORD PTR [rip+0xce33]        # 140010008 <vmcs>
   1400031d5:	48 8d 8a 68 03 80 00 	lea    rcx,[rdx+0x800368]
   1400031dc:	48 8b 15 25 ce 00 00 	mov    rdx,QWORD PTR [rip+0xce25]        # 140010008 <vmcs>
   1400031e3:	48 81 c2 50 03 80 00 	add    rdx,0x800350
   1400031ea:	c7 44 24 28 04 00 00 	mov    DWORD PTR [rsp+0x28],0x4
   1400031f1:	00 
   1400031f2:	c7 44 24 20 00 30 00 	mov    DWORD PTR [rsp+0x20],0x3000
   1400031f9:	00 
   1400031fa:	49 89 c9             	mov    r9,rcx
   1400031fd:	41 b8 00 00 00 00    	mov    r8d,0x0
   140003203:	48 c7 c1 ff ff ff ff 	mov    rcx,0xffffffffffffffff
   14000320a:	ff d0                	call   rax
   14000320c:	89 45 fc             	mov    DWORD PTR [rbp-0x4],eax
   14000320f:	8b 45 fc             	mov    eax,DWORD PTR [rbp-0x4]
   140003212:	c1 e8 1f             	shr    eax,0x1f
   140003215:	84 c0                	test   al,al
   140003217:	74 64                	je     14000327d <_ZN5rvm646memory11memory_initEy+0xdf>
   140003219:	48 8b 05 e8 cd 00 00 	mov    rax,QWORD PTR [rip+0xcde8]        # 140010008 <vmcs>
   140003220:	48 c7 80 98 03 80 00 	mov    QWORD PTR [rax+0x800398],0x0
   140003227:	00 00 00 00 
   14000322b:	48 8b 05 d6 cd 00 00 	mov    rax,QWORD PTR [rip+0xcdd6]        # 140010008 <vmcs>
   140003232:	48 c7 80 a0 03 80 00 	mov    QWORD PTR [rax+0x8003a0],0xb05
   140003239:	05 0b 00 00 
   14000323d:	48 8b 05 c4 cd 00 00 	mov    rax,QWORD PTR [rip+0xcdc4]        # 140010008 <vmcs>
   140003244:	8b 55 fc             	mov    edx,DWORD PTR [rbp-0x4]
   140003247:	48 63 d2             	movsxd rdx,edx
   14000324a:	48 89 90 a8 03 80 00 	mov    QWORD PTR [rax+0x8003a8],rdx
   140003251:	48 8b 05 b0 cd 00 00 	mov    rax,QWORD PTR [rip+0xcdb0]        # 140010008 <vmcs>
   140003258:	48 c7 80 b0 03 80 00 	mov    QWORD PTR [rax+0x8003b0],0x0
   14000325f:	00 00 00 00 
   140003263:	48 8b 05 9e cd 00 00 	mov    rax,QWORD PTR [rip+0xcd9e]        # 140010008 <vmcs>
   14000326a:	c7 80 b8 03 80 00 01 	mov    DWORD PTR [rax+0x8003b8],0x1
   140003271:	00 00 00 
   140003274:	cc                   	int3
   140003275:	90                   	nop
   140003276:	b8 00 00 00 00       	mov    eax,0x0
   14000327b:	eb 05                	jmp    140003282 <_ZN5rvm646memory11memory_initEy+0xe4>
   14000327d:	b8 01 00 00 00       	mov    eax,0x1
   140003282:	48 83 c4 40          	add    rsp,0x40
   140003286:	5d                   	pop    rbp
   140003287:	c3                   	ret

0000000140003288 <_ZN5rvm646memory10memory_endEv>:
   140003288:	55                   	push   rbp
   140003289:	48 89 e5             	mov    rbp,rsp
   14000328c:	48 83 ec 30          	sub    rsp,0x30
   140003290:	c7 45 fc 00 00 00 00 	mov    DWORD PTR [rbp-0x4],0x0
   140003297:	48 8b 05 62 cd 00 00 	mov    rax,QWORD PTR [rip+0xcd62]        # 140010000 <__data_start__>
   14000329e:	48 8b 40 20          	mov    rax,QWORD PTR [rax+0x20]
   1400032a2:	48 8b 15 5f cd 00 00 	mov    rdx,QWORD PTR [rip+0xcd5f]        # 140010008 <vmcs>
   1400032a9:	48 8d 8a 68 03 80 00 	lea    rcx,[rdx+0x800368]
   1400032b0:	48 8b 15 51 cd 00 00 	mov    rdx,QWORD PTR [rip+0xcd51]        # 140010008 <vmcs>
   1400032b7:	48 81 c2 50 03 80 00 	add    rdx,0x800350
   1400032be:	41 b9 00 80 00 00    	mov    r9d,0x8000
   1400032c4:	49 89 c8             	mov    r8,rcx
   1400032c7:	48 c7 c1 ff ff ff ff 	mov    rcx,0xffffffffffffffff
   1400032ce:	ff d0                	call   rax
   1400032d0:	89 45 fc             	mov    DWORD PTR [rbp-0x4],eax
   1400032d3:	8b 45 fc             	mov    eax,DWORD PTR [rbp-0x4]
   1400032d6:	c1 e8 1f             	shr    eax,0x1f
   1400032d9:	84 c0                	test   al,al
   1400032db:	74 5d                	je     14000333a <_ZN5rvm646memory10memory_endEv+0xb2>
   1400032dd:	48 8b 05 24 cd 00 00 	mov    rax,QWORD PTR [rip+0xcd24]        # 140010008 <vmcs>
   1400032e4:	48 c7 80 98 03 80 00 	mov    QWORD PTR [rax+0x800398],0x0
   1400032eb:	00 00 00 00 
   1400032ef:	48 8b 05 12 cd 00 00 	mov    rax,QWORD PTR [rip+0xcd12]        # 140010008 <vmcs>
   1400032f6:	48 c7 80 a0 03 80 00 	mov    QWORD PTR [rax+0x8003a0],0xb05
   1400032fd:	05 0b 00 00 
   140003301:	48 8b 05 00 cd 00 00 	mov    rax,QWORD PTR [rip+0xcd00]        # 140010008 <vmcs>
   140003308:	8b 55 fc             	mov    edx,DWORD PTR [rbp-0x4]
   14000330b:	48 63 d2             	movsxd rdx,edx
   14000330e:	48 89 90 a8 03 80 00 	mov    QWORD PTR [rax+0x8003a8],rdx
   140003315:	48 8b 05 ec cc 00 00 	mov    rax,QWORD PTR [rip+0xccec]        # 140010008 <vmcs>
   14000331c:	48 c7 80 b0 03 80 00 	mov    QWORD PTR [rax+0x8003b0],0x0
   140003323:	00 00 00 00 
   140003327:	48 8b 05 da cc 00 00 	mov    rax,QWORD PTR [rip+0xccda]        # 140010008 <vmcs>
   14000332e:	c7 80 b8 03 80 00 01 	mov    DWORD PTR [rax+0x8003b8],0x1
   140003335:	00 00 00 
   140003338:	cc                   	int3
   140003339:	90                   	nop
   14000333a:	90                   	nop
   14000333b:	48 83 c4 30          	add    rsp,0x30
   14000333f:	5d                   	pop    rbp
   140003340:	c3                   	ret

0000000140003341 <_ZN5rvm647decoder9vm_decodeEj>:
   140003341:	55                   	push   rbp
   140003342:	48 81 ec 90 0a 00 00 	sub    rsp,0xa90
   140003349:	48 8d ac 24 80 00 00 	lea    rbp,[rsp+0x80]
   140003350:	00 
   140003351:	89 8d 20 0a 00 00    	mov    DWORD PTR [rbp+0xa20],ecx
   140003357:	c6 85 0f 0a 00 00 00 	mov    BYTE PTR [rbp+0xa0f],0x0
   14000335e:	8b 85 20 0a 00 00    	mov    eax,DWORD PTR [rbp+0xa20]
   140003364:	83 e0 7f             	and    eax,0x7f
   140003367:	88 85 07 0a 00 00    	mov    BYTE PTR [rbp+0xa07],al
   14000336d:	c7 85 08 0a 00 00 00 	mov    DWORD PTR [rbp+0xa08],0x0
   140003374:	00 00 00 
   140003377:	eb 4c                	jmp    1400033c5 <_ZN5rvm647decoder9vm_decodeEj+0x84>
   140003379:	8b 85 08 0a 00 00    	mov    eax,DWORD PTR [rbp+0xa08]
   14000337f:	48 98                	cdqe
   140003381:	48 8d 14 c5 00 00 00 	lea    rdx,[rax*8+0x0]
   140003388:	00 
   140003389:	48 8d 05 b0 de 00 00 	lea    rax,[rip+0xdeb0]        # 140011240 <_ZL8encoding>
   140003390:	0f b6 04 02          	movzx  eax,BYTE PTR [rdx+rax*1]
   140003394:	38 85 07 0a 00 00    	cmp    BYTE PTR [rbp+0xa07],al
   14000339a:	75 22                	jne    1400033be <_ZN5rvm647decoder9vm_decodeEj+0x7d>
   14000339c:	8b 85 08 0a 00 00    	mov    eax,DWORD PTR [rbp+0xa08]
   1400033a2:	48 98                	cdqe
   1400033a4:	48 8d 14 c5 00 00 00 	lea    rdx,[rax*8+0x0]
   1400033ab:	00 
   1400033ac:	48 8d 05 91 de 00 00 	lea    rax,[rip+0xde91]        # 140011244 <_ZL8encoding+0x4>
   1400033b3:	8b 04 02             	mov    eax,DWORD PTR [rdx+rax*1]
   1400033b6:	88 85 0f 0a 00 00    	mov    BYTE PTR [rbp+0xa0f],al
   1400033bc:	eb 17                	jmp    1400033d5 <_ZN5rvm647decoder9vm_decodeEj+0x94>
   1400033be:	83 85 08 0a 00 00 01 	add    DWORD PTR [rbp+0xa08],0x1
   1400033c5:	8b 85 08 0a 00 00    	mov    eax,DWORD PTR [rbp+0xa08]
   1400033cb:	48 98                	cdqe
   1400033cd:	48 3d 87 00 00 00    	cmp    rax,0x87
   1400033d3:	76 a4                	jbe    140003379 <_ZN5rvm647decoder9vm_decodeEj+0x38>
   1400033d5:	80 bd 0f 0a 00 00 00 	cmp    BYTE PTR [rbp+0xa0f],0x0
   1400033dc:	75 63                	jne    140003441 <_ZN5rvm647decoder9vm_decodeEj+0x100>
   1400033de:	48 8b 15 23 cc 00 00 	mov    rdx,QWORD PTR [rip+0xcc23]        # 140010008 <vmcs>
   1400033e5:	48 8b 05 1c cc 00 00 	mov    rax,QWORD PTR [rip+0xcc1c]        # 140010008 <vmcs>
   1400033ec:	48 8b 12             	mov    rdx,QWORD PTR [rdx]
   1400033ef:	48 89 90 98 03 80 00 	mov    QWORD PTR [rax+0x800398],rdx
   1400033f6:	48 8b 05 0b cc 00 00 	mov    rax,QWORD PTR [rip+0xcc0b]        # 140010008 <vmcs>
   1400033fd:	48 c7 80 a0 03 80 00 	mov    QWORD PTR [rax+0x8003a0],0xb02
   140003404:	02 0b 00 00 
   140003408:	48 8b 05 f9 cb 00 00 	mov    rax,QWORD PTR [rip+0xcbf9]        # 140010008 <vmcs>
   14000340f:	48 c7 80 a8 03 80 00 	mov    QWORD PTR [rax+0x8003a8],0x0
   140003416:	00 00 00 00 
   14000341a:	48 8b 05 e7 cb 00 00 	mov    rax,QWORD PTR [rip+0xcbe7]        # 140010008 <vmcs>
   140003421:	8b 95 20 0a 00 00    	mov    edx,DWORD PTR [rbp+0xa20]
   140003427:	48 89 90 b0 03 80 00 	mov    QWORD PTR [rax+0x8003b0],rdx
   14000342e:	48 8b 05 d3 cb 00 00 	mov    rax,QWORD PTR [rip+0xcbd3]        # 140010008 <vmcs>
   140003435:	c7 80 b8 03 80 00 01 	mov    DWORD PTR [rax+0x8003b8],0x1
   14000343c:	00 00 00 
   14000343f:	cc                   	int3
   140003440:	90                   	nop
   140003441:	0f b6 85 0f 0a 00 00 	movzx  eax,BYTE PTR [rbp+0xa0f]
   140003448:	83 f8 07             	cmp    eax,0x7
   14000344b:	0f 87 7b 28 00 00    	ja     140005ccc <_ZN5rvm647decoder9vm_decodeEj+0x298b>
   140003451:	89 c0                	mov    eax,eax
   140003453:	48 8d 14 85 00 00 00 	lea    rdx,[rax*4+0x0]
   14000345a:	00 
   14000345b:	48 8d 05 66 de 00 00 	lea    rax,[rip+0xde66]        # 1400112c8 <_ZL8encoding+0x88>
   140003462:	8b 04 02             	mov    eax,DWORD PTR [rdx+rax*1]
   140003465:	48 98                	cdqe
   140003467:	48 8d 15 5a de 00 00 	lea    rdx,[rip+0xde5a]        # 1400112c8 <_ZL8encoding+0x88>
   14000346e:	48 01 d0             	add    rax,rdx
   140003471:	ff e0                	jmp    rax
   140003473:	8b 85 20 0a 00 00    	mov    eax,DWORD PTR [rbp+0xa20]
   140003479:	c1 e8 0c             	shr    eax,0xc
   14000347c:	83 e0 07             	and    eax,0x7
   14000347f:	88 85 06 0a 00 00    	mov    BYTE PTR [rbp+0xa06],al
   140003485:	8b 85 20 0a 00 00    	mov    eax,DWORD PTR [rbp+0xa20]
   14000348b:	c1 e8 0f             	shr    eax,0xf
   14000348e:	0f b6 d0             	movzx  edx,al
   140003491:	48 8b 05 70 cb 00 00 	mov    rax,QWORD PTR [rip+0xcb70]        # 140010008 <vmcs>
   140003498:	83 e2 1f             	and    edx,0x1f
   14000349b:	48 89 50 20          	mov    QWORD PTR [rax+0x20],rdx
   14000349f:	0f b6 85 07 0a 00 00 	movzx  eax,BYTE PTR [rbp+0xa07]
   1400034a6:	83 f8 1b             	cmp    eax,0x1b
   1400034a9:	0f 84 11 04 00 00    	je     1400038c0 <_ZN5rvm647decoder9vm_decodeEj+0x57f>
   1400034af:	83 f8 1b             	cmp    eax,0x1b
   1400034b2:	0f 8f f8 08 00 00    	jg     140003db0 <_ZN5rvm647decoder9vm_decodeEj+0xa6f>
   1400034b8:	83 f8 03             	cmp    eax,0x3
   1400034bb:	0f 84 e6 05 00 00    	je     140003aa7 <_ZN5rvm647decoder9vm_decodeEj+0x766>
   1400034c1:	83 f8 13             	cmp    eax,0x13
   1400034c4:	0f 85 e6 08 00 00    	jne    140003db0 <_ZN5rvm647decoder9vm_decodeEj+0xa6f>
   1400034ca:	0f b6 85 06 0a 00 00 	movzx  eax,BYTE PTR [rbp+0xa06]
   1400034d1:	83 f8 07             	cmp    eax,0x7
   1400034d4:	0f 87 e6 03 00 00    	ja     1400038c0 <_ZN5rvm647decoder9vm_decodeEj+0x57f>
   1400034da:	89 c0                	mov    eax,eax
   1400034dc:	48 8d 14 85 00 00 00 	lea    rdx,[rax*4+0x0]
   1400034e3:	00 
   1400034e4:	48 8d 05 fd dd 00 00 	lea    rax,[rip+0xddfd]        # 1400112e8 <_ZL8encoding+0xa8>
   1400034eb:	8b 04 02             	mov    eax,DWORD PTR [rdx+rax*1]
   1400034ee:	48 98                	cdqe
   1400034f0:	48 8d 15 f1 dd 00 00 	lea    rdx,[rip+0xddf1]        # 1400112e8 <_ZL8encoding+0xa8>
   1400034f7:	48 01 d0             	add    rax,rdx
   1400034fa:	ff e0                	jmp    rax
   1400034fc:	8b 85 20 0a 00 00    	mov    eax,DWORD PTR [rbp+0xa20]
   140003502:	89 c1                	mov    ecx,eax
   140003504:	e8 77 9f 00 00       	call   14000d480 <_Z5imm_ij>
   140003509:	89 c2                	mov    edx,eax
   14000350b:	48 8b 05 f6 ca 00 00 	mov    rax,QWORD PTR [rip+0xcaf6]        # 140010008 <vmcs>
   140003512:	48 63 d2             	movsxd rdx,edx
   140003515:	48 89 50 38          	mov    QWORD PTR [rax+0x38],rdx
   140003519:	48 8b 05 e8 ca 00 00 	mov    rax,QWORD PTR [rip+0xcae8]        # 140010008 <vmcs>
   140003520:	48 8b 40 08          	mov    rax,QWORD PTR [rax+0x8]
   140003524:	48 8b 00             	mov    rax,QWORD PTR [rax]
   140003527:	48 89 85 30 09 00 00 	mov    QWORD PTR [rbp+0x930],rax
   14000352e:	48 8b 85 30 09 00 00 	mov    rax,QWORD PTR [rbp+0x930]
   140003535:	48 89 c1             	mov    rcx,rax
   140003538:	e8 43 df ff ff       	call   140001480 <_ZN5rvm645crypt11decrypt_ptrEy>
   14000353d:	48 89 85 28 09 00 00 	mov    QWORD PTR [rbp+0x928],rax
   140003544:	48 8b 85 28 09 00 00 	mov    rax,QWORD PTR [rbp+0x928]
   14000354b:	48 89 85 20 09 00 00 	mov    QWORD PTR [rbp+0x920],rax
   140003552:	48 8b 85 20 09 00 00 	mov    rax,QWORD PTR [rbp+0x920]
   140003559:	ff d0                	call   rax
   14000355b:	e9 60 03 00 00       	jmp    1400038c0 <_ZN5rvm647decoder9vm_decodeEj+0x57f>
   140003560:	8b 85 20 0a 00 00    	mov    eax,DWORD PTR [rbp+0xa20]
   140003566:	89 c1                	mov    ecx,eax
   140003568:	e8 13 9f 00 00       	call   14000d480 <_Z5imm_ij>
   14000356d:	89 c2                	mov    edx,eax
   14000356f:	48 8b 05 92 ca 00 00 	mov    rax,QWORD PTR [rip+0xca92]        # 140010008 <vmcs>
   140003576:	48 63 d2             	movsxd rdx,edx
   140003579:	48 89 50 38          	mov    QWORD PTR [rax+0x38],rdx
   14000357d:	48 8b 05 84 ca 00 00 	mov    rax,QWORD PTR [rip+0xca84]        # 140010008 <vmcs>
   140003584:	48 8b 40 08          	mov    rax,QWORD PTR [rax+0x8]
   140003588:	48 83 c0 08          	add    rax,0x8
   14000358c:	48 8b 00             	mov    rax,QWORD PTR [rax]
   14000358f:	48 89 85 60 09 00 00 	mov    QWORD PTR [rbp+0x960],rax
   140003596:	48 8b 85 60 09 00 00 	mov    rax,QWORD PTR [rbp+0x960]
   14000359d:	48 89 c1             	mov    rcx,rax
   1400035a0:	e8 db de ff ff       	call   140001480 <_ZN5rvm645crypt11decrypt_ptrEy>
   1400035a5:	48 89 85 58 09 00 00 	mov    QWORD PTR [rbp+0x958],rax
   1400035ac:	48 8b 85 58 09 00 00 	mov    rax,QWORD PTR [rbp+0x958]
   1400035b3:	48 89 85 50 09 00 00 	mov    QWORD PTR [rbp+0x950],rax
   1400035ba:	48 8b 85 50 09 00 00 	mov    rax,QWORD PTR [rbp+0x950]
   1400035c1:	ff d0                	call   rax
   1400035c3:	e9 f8 02 00 00       	jmp    1400038c0 <_ZN5rvm647decoder9vm_decodeEj+0x57f>
   1400035c8:	8b 85 20 0a 00 00    	mov    eax,DWORD PTR [rbp+0xa20]
   1400035ce:	89 c1                	mov    ecx,eax
   1400035d0:	e8 ab 9e 00 00       	call   14000d480 <_Z5imm_ij>
   1400035d5:	89 c2                	mov    edx,eax
   1400035d7:	48 8b 05 2a ca 00 00 	mov    rax,QWORD PTR [rip+0xca2a]        # 140010008 <vmcs>
   1400035de:	48 63 d2             	movsxd rdx,edx
   1400035e1:	48 89 50 38          	mov    QWORD PTR [rax+0x38],rdx
   1400035e5:	48 8b 05 1c ca 00 00 	mov    rax,QWORD PTR [rip+0xca1c]        # 140010008 <vmcs>
   1400035ec:	48 8b 40 08          	mov    rax,QWORD PTR [rax+0x8]
   1400035f0:	48 83 c0 10          	add    rax,0x10
   1400035f4:	48 8b 00             	mov    rax,QWORD PTR [rax]
   1400035f7:	48 89 85 78 09 00 00 	mov    QWORD PTR [rbp+0x978],rax
   1400035fe:	48 8b 85 78 09 00 00 	mov    rax,QWORD PTR [rbp+0x978]
   140003605:	48 89 c1             	mov    rcx,rax
   140003608:	e8 73 de ff ff       	call   140001480 <_ZN5rvm645crypt11decrypt_ptrEy>
   14000360d:	48 89 85 70 09 00 00 	mov    QWORD PTR [rbp+0x970],rax
   140003614:	48 8b 85 70 09 00 00 	mov    rax,QWORD PTR [rbp+0x970]
   14000361b:	48 89 85 68 09 00 00 	mov    QWORD PTR [rbp+0x968],rax
   140003622:	48 8b 85 68 09 00 00 	mov    rax,QWORD PTR [rbp+0x968]
   140003629:	ff d0                	call   rax
   14000362b:	e9 90 02 00 00       	jmp    1400038c0 <_ZN5rvm647decoder9vm_decodeEj+0x57f>
   140003630:	8b 85 20 0a 00 00    	mov    eax,DWORD PTR [rbp+0xa20]
   140003636:	89 c1                	mov    ecx,eax
   140003638:	e8 43 9e 00 00       	call   14000d480 <_Z5imm_ij>
   14000363d:	89 c2                	mov    edx,eax
   14000363f:	48 8b 05 c2 c9 00 00 	mov    rax,QWORD PTR [rip+0xc9c2]        # 140010008 <vmcs>
   140003646:	48 63 d2             	movsxd rdx,edx
   140003649:	48 89 50 38          	mov    QWORD PTR [rax+0x38],rdx
   14000364d:	48 8b 05 b4 c9 00 00 	mov    rax,QWORD PTR [rip+0xc9b4]        # 140010008 <vmcs>
   140003654:	48 8b 40 08          	mov    rax,QWORD PTR [rax+0x8]
   140003658:	48 83 c0 18          	add    rax,0x18
   14000365c:	48 8b 00             	mov    rax,QWORD PTR [rax]
   14000365f:	48 89 85 90 09 00 00 	mov    QWORD PTR [rbp+0x990],rax
   140003666:	48 8b 85 90 09 00 00 	mov    rax,QWORD PTR [rbp+0x990]
   14000366d:	48 89 c1             	mov    rcx,rax
   140003670:	e8 0b de ff ff       	call   140001480 <_ZN5rvm645crypt11decrypt_ptrEy>
   140003675:	48 89 85 88 09 00 00 	mov    QWORD PTR [rbp+0x988],rax
   14000367c:	48 8b 85 88 09 00 00 	mov    rax,QWORD PTR [rbp+0x988]
   140003683:	48 89 85 80 09 00 00 	mov    QWORD PTR [rbp+0x980],rax
   14000368a:	48 8b 85 80 09 00 00 	mov    rax,QWORD PTR [rbp+0x980]
   140003691:	ff d0                	call   rax
   140003693:	e9 28 02 00 00       	jmp    1400038c0 <_ZN5rvm647decoder9vm_decodeEj+0x57f>
   140003698:	8b 85 20 0a 00 00    	mov    eax,DWORD PTR [rbp+0xa20]
   14000369e:	89 c1                	mov    ecx,eax
   1400036a0:	e8 db 9d 00 00       	call   14000d480 <_Z5imm_ij>
   1400036a5:	89 c2                	mov    edx,eax
   1400036a7:	48 8b 05 5a c9 00 00 	mov    rax,QWORD PTR [rip+0xc95a]        # 140010008 <vmcs>
   1400036ae:	48 63 d2             	movsxd rdx,edx
   1400036b1:	48 89 50 38          	mov    QWORD PTR [rax+0x38],rdx
   1400036b5:	48 8b 05 4c c9 00 00 	mov    rax,QWORD PTR [rip+0xc94c]        # 140010008 <vmcs>
   1400036bc:	48 8b 40 08          	mov    rax,QWORD PTR [rax+0x8]
   1400036c0:	48 83 c0 20          	add    rax,0x20
   1400036c4:	48 8b 00             	mov    rax,QWORD PTR [rax]
   1400036c7:	48 89 85 e0 09 00 00 	mov    QWORD PTR [rbp+0x9e0],rax
   1400036ce:	48 8b 85 e0 09 00 00 	mov    rax,QWORD PTR [rbp+0x9e0]
   1400036d5:	48 89 c1             	mov    rcx,rax
   1400036d8:	e8 a3 dd ff ff       	call   140001480 <_ZN5rvm645crypt11decrypt_ptrEy>
   1400036dd:	48 89 85 d8 09 00 00 	mov    QWORD PTR [rbp+0x9d8],rax
   1400036e4:	48 8b 85 d8 09 00 00 	mov    rax,QWORD PTR [rbp+0x9d8]
   1400036eb:	48 89 85 d0 09 00 00 	mov    QWORD PTR [rbp+0x9d0],rax
   1400036f2:	48 8b 85 d0 09 00 00 	mov    rax,QWORD PTR [rbp+0x9d0]
   1400036f9:	ff d0                	call   rax
   1400036fb:	e9 c0 01 00 00       	jmp    1400038c0 <_ZN5rvm647decoder9vm_decodeEj+0x57f>
   140003700:	8b 85 20 0a 00 00    	mov    eax,DWORD PTR [rbp+0xa20]
   140003706:	89 c1                	mov    ecx,eax
   140003708:	e8 73 9d 00 00       	call   14000d480 <_Z5imm_ij>
   14000370d:	89 c2                	mov    edx,eax
   14000370f:	48 8b 05 f2 c8 00 00 	mov    rax,QWORD PTR [rip+0xc8f2]        # 140010008 <vmcs>
   140003716:	48 63 d2             	movsxd rdx,edx
   140003719:	48 89 50 38          	mov    QWORD PTR [rax+0x38],rdx
   14000371d:	48 8b 05 e4 c8 00 00 	mov    rax,QWORD PTR [rip+0xc8e4]        # 140010008 <vmcs>
   140003724:	48 8b 40 08          	mov    rax,QWORD PTR [rax+0x8]
   140003728:	48 83 c0 28          	add    rax,0x28
   14000372c:	48 8b 00             	mov    rax,QWORD PTR [rax]
   14000372f:	48 89 85 f8 09 00 00 	mov    QWORD PTR [rbp+0x9f8],rax
   140003736:	48 8b 85 f8 09 00 00 	mov    rax,QWORD PTR [rbp+0x9f8]
   14000373d:	48 89 c1             	mov    rcx,rax
   140003740:	e8 3b dd ff ff       	call   140001480 <_ZN5rvm645crypt11decrypt_ptrEy>
   140003745:	48 89 85 f0 09 00 00 	mov    QWORD PTR [rbp+0x9f0],rax
   14000374c:	48 8b 85 f0 09 00 00 	mov    rax,QWORD PTR [rbp+0x9f0]
   140003753:	48 89 85 e8 09 00 00 	mov    QWORD PTR [rbp+0x9e8],rax
   14000375a:	48 8b 85 e8 09 00 00 	mov    rax,QWORD PTR [rbp+0x9e8]
   140003761:	ff d0                	call   rax
   140003763:	e9 58 01 00 00       	jmp    1400038c0 <_ZN5rvm647decoder9vm_decodeEj+0x57f>
   140003768:	8b 85 20 0a 00 00    	mov    eax,DWORD PTR [rbp+0xa20]
   14000376e:	89 c1                	mov    ecx,eax
   140003770:	e8 fb 9d 00 00       	call   14000d570 <_Z7shamt_ij>
   140003775:	89 c2                	mov    edx,eax
   140003777:	48 8b 05 8a c8 00 00 	mov    rax,QWORD PTR [rip+0xc88a]        # 140010008 <vmcs>
   14000377e:	0f b6 d2             	movzx  edx,dl
   140003781:	48 89 50 38          	mov    QWORD PTR [rax+0x38],rdx
   140003785:	48 8b 05 7c c8 00 00 	mov    rax,QWORD PTR [rip+0xc87c]        # 140010008 <vmcs>
   14000378c:	48 8b 40 08          	mov    rax,QWORD PTR [rax+0x8]
   140003790:	48 83 c0 30          	add    rax,0x30
   140003794:	48 8b 00             	mov    rax,QWORD PTR [rax]
   140003797:	48 89 85 48 09 00 00 	mov    QWORD PTR [rbp+0x948],rax
   14000379e:	48 8b 85 48 09 00 00 	mov    rax,QWORD PTR [rbp+0x948]
   1400037a5:	48 89 c1             	mov    rcx,rax
   1400037a8:	e8 d3 dc ff ff       	call   140001480 <_ZN5rvm645crypt11decrypt_ptrEy>
   1400037ad:	48 89 85 40 09 00 00 	mov    QWORD PTR [rbp+0x940],rax
   1400037b4:	48 8b 85 40 09 00 00 	mov    rax,QWORD PTR [rbp+0x940]
   1400037bb:	48 89 85 38 09 00 00 	mov    QWORD PTR [rbp+0x938],rax
   1400037c2:	48 8b 85 38 09 00 00 	mov    rax,QWORD PTR [rbp+0x938]
   1400037c9:	ff d0                	call   rax
   1400037cb:	e9 f0 00 00 00       	jmp    1400038c0 <_ZN5rvm647decoder9vm_decodeEj+0x57f>
   1400037d0:	8b 85 20 0a 00 00    	mov    eax,DWORD PTR [rbp+0xa20]
   1400037d6:	c1 e8 18             	shr    eax,0x18
   1400037d9:	83 e0 7f             	and    eax,0x7f
   1400037dc:	88 85 cf 09 00 00    	mov    BYTE PTR [rbp+0x9cf],al
   1400037e2:	0f b6 85 cf 09 00 00 	movzx  eax,BYTE PTR [rbp+0x9cf]
   1400037e9:	85 c0                	test   eax,eax
   1400037eb:	74 0a                	je     1400037f7 <_ZN5rvm647decoder9vm_decodeEj+0x4b6>
   1400037ed:	83 f8 20             	cmp    eax,0x20
   1400037f0:	74 6a                	je     14000385c <_ZN5rvm647decoder9vm_decodeEj+0x51b>
   1400037f2:	e9 c9 00 00 00       	jmp    1400038c0 <_ZN5rvm647decoder9vm_decodeEj+0x57f>
   1400037f7:	8b 85 20 0a 00 00    	mov    eax,DWORD PTR [rbp+0xa20]
   1400037fd:	89 c1                	mov    ecx,eax
   1400037ff:	e8 6c 9d 00 00       	call   14000d570 <_Z7shamt_ij>
   140003804:	89 c2                	mov    edx,eax
   140003806:	48 8b 05 fb c7 00 00 	mov    rax,QWORD PTR [rip+0xc7fb]        # 140010008 <vmcs>
   14000380d:	0f b6 d2             	movzx  edx,dl
   140003810:	48 89 50 38          	mov    QWORD PTR [rax+0x38],rdx
   140003814:	48 8b 05 ed c7 00 00 	mov    rax,QWORD PTR [rip+0xc7ed]        # 140010008 <vmcs>
   14000381b:	48 8b 40 08          	mov    rax,QWORD PTR [rax+0x8]
   14000381f:	48 83 c0 38          	add    rax,0x38
   140003823:	48 8b 00             	mov    rax,QWORD PTR [rax]
   140003826:	48 89 85 a8 09 00 00 	mov    QWORD PTR [rbp+0x9a8],rax
   14000382d:	48 8b 85 a8 09 00 00 	mov    rax,QWORD PTR [rbp+0x9a8]
   140003834:	48 89 c1             	mov    rcx,rax
   140003837:	e8 44 dc ff ff       	call   140001480 <_ZN5rvm645crypt11decrypt_ptrEy>
   14000383c:	48 89 85 a0 09 00 00 	mov    QWORD PTR [rbp+0x9a0],rax
   140003843:	48 8b 85 a0 09 00 00 	mov    rax,QWORD PTR [rbp+0x9a0]
   14000384a:	48 89 85 98 09 00 00 	mov    QWORD PTR [rbp+0x998],rax
   140003851:	48 8b 85 98 09 00 00 	mov    rax,QWORD PTR [rbp+0x998]
   140003858:	ff d0                	call   rax
   14000385a:	eb 64                	jmp    1400038c0 <_ZN5rvm647decoder9vm_decodeEj+0x57f>
   14000385c:	8b 85 20 0a 00 00    	mov    eax,DWORD PTR [rbp+0xa20]
   140003862:	89 c1                	mov    ecx,eax
   140003864:	e8 07 9d 00 00       	call   14000d570 <_Z7shamt_ij>
   140003869:	89 c2                	mov    edx,eax
   14000386b:	48 8b 05 96 c7 00 00 	mov    rax,QWORD PTR [rip+0xc796]        # 140010008 <vmcs>
   140003872:	0f b6 d2             	movzx  edx,dl
   140003875:	48 89 50 38          	mov    QWORD PTR [rax+0x38],rdx
   140003879:	48 8b 05 88 c7 00 00 	mov    rax,QWORD PTR [rip+0xc788]        # 140010008 <vmcs>
   140003880:	48 8b 40 08          	mov    rax,QWORD PTR [rax+0x8]
   140003884:	48 83 c0 40          	add    rax,0x40
   140003888:	48 8b 00             	mov    rax,QWORD PTR [rax]
   14000388b:	48 89 85 c0 09 00 00 	mov    QWORD PTR [rbp+0x9c0],rax
   140003892:	48 8b 85 c0 09 00 00 	mov    rax,QWORD PTR [rbp+0x9c0]
   140003899:	48 89 c1             	mov    rcx,rax
   14000389c:	e8 df db ff ff       	call   140001480 <_ZN5rvm645crypt11decrypt_ptrEy>
   1400038a1:	48 89 85 b8 09 00 00 	mov    QWORD PTR [rbp+0x9b8],rax
   1400038a8:	48 8b 85 b8 09 00 00 	mov    rax,QWORD PTR [rbp+0x9b8]
   1400038af:	48 89 85 b0 09 00 00 	mov    QWORD PTR [rbp+0x9b0],rax
   1400038b6:	48 8b 85 b0 09 00 00 	mov    rax,QWORD PTR [rbp+0x9b0]
   1400038bd:	ff d0                	call   rax
   1400038bf:	90                   	nop
   1400038c0:	0f b6 85 06 0a 00 00 	movzx  eax,BYTE PTR [rbp+0xa06]
   1400038c7:	83 f8 05             	cmp    eax,0x5
   1400038ca:	0f 84 e7 00 00 00    	je     1400039b7 <_ZN5rvm647decoder9vm_decodeEj+0x676>
   1400038d0:	83 f8 05             	cmp    eax,0x5
   1400038d3:	0f 8f ce 01 00 00    	jg     140003aa7 <_ZN5rvm647decoder9vm_decodeEj+0x766>
   1400038d9:	85 c0                	test   eax,eax
   1400038db:	74 0a                	je     1400038e7 <_ZN5rvm647decoder9vm_decodeEj+0x5a6>
   1400038dd:	83 f8 01             	cmp    eax,0x1
   1400038e0:	74 6d                	je     14000394f <_ZN5rvm647decoder9vm_decodeEj+0x60e>
   1400038e2:	e9 c0 01 00 00       	jmp    140003aa7 <_ZN5rvm647decoder9vm_decodeEj+0x766>
   1400038e7:	8b 85 20 0a 00 00    	mov    eax,DWORD PTR [rbp+0xa20]
   1400038ed:	89 c1                	mov    ecx,eax
   1400038ef:	e8 8c 9b 00 00       	call   14000d480 <_Z5imm_ij>
   1400038f4:	89 c2                	mov    edx,eax
   1400038f6:	48 8b 05 0b c7 00 00 	mov    rax,QWORD PTR [rip+0xc70b]        # 140010008 <vmcs>
   1400038fd:	48 63 d2             	movsxd rdx,edx
   140003900:	48 89 50 38          	mov    QWORD PTR [rax+0x38],rdx
   140003904:	48 8b 05 fd c6 00 00 	mov    rax,QWORD PTR [rip+0xc6fd]        # 140010008 <vmcs>
   14000390b:	48 8b 40 08          	mov    rax,QWORD PTR [rax+0x8]
   14000390f:	48 83 c0 48          	add    rax,0x48
   140003913:	48 8b 00             	mov    rax,QWORD PTR [rax]
   140003916:	48 89 85 c8 08 00 00 	mov    QWORD PTR [rbp+0x8c8],rax
   14000391d:	48 8b 85 c8 08 00 00 	mov    rax,QWORD PTR [rbp+0x8c8]
   140003924:	48 89 c1             	mov    rcx,rax
   140003927:	e8 54 db ff ff       	call   140001480 <_ZN5rvm645crypt11decrypt_ptrEy>
   14000392c:	48 89 85 c0 08 00 00 	mov    QWORD PTR [rbp+0x8c0],rax
   140003933:	48 8b 85 c0 08 00 00 	mov    rax,QWORD PTR [rbp+0x8c0]
   14000393a:	48 89 85 b8 08 00 00 	mov    QWORD PTR [rbp+0x8b8],rax
   140003941:	48 8b 85 b8 08 00 00 	mov    rax,QWORD PTR [rbp+0x8b8]
   140003948:	ff d0                	call   rax
   14000394a:	e9 58 01 00 00       	jmp    140003aa7 <_ZN5rvm647decoder9vm_decodeEj+0x766>
   14000394f:	8b 85 20 0a 00 00    	mov    eax,DWORD PTR [rbp+0xa20]
   140003955:	89 c1                	mov    ecx,eax
   140003957:	e8 14 9c 00 00       	call   14000d570 <_Z7shamt_ij>
   14000395c:	89 c2                	mov    edx,eax
   14000395e:	48 8b 05 a3 c6 00 00 	mov    rax,QWORD PTR [rip+0xc6a3]        # 140010008 <vmcs>
   140003965:	0f b6 d2             	movzx  edx,dl
   140003968:	48 89 50 38          	mov    QWORD PTR [rax+0x38],rdx
   14000396c:	48 8b 05 95 c6 00 00 	mov    rax,QWORD PTR [rip+0xc695]        # 140010008 <vmcs>
   140003973:	48 8b 40 08          	mov    rax,QWORD PTR [rax+0x8]
   140003977:	48 83 c0 50          	add    rax,0x50
   14000397b:	48 8b 00             	mov    rax,QWORD PTR [rax]
   14000397e:	48 89 85 e0 08 00 00 	mov    QWORD PTR [rbp+0x8e0],rax
   140003985:	48 8b 85 e0 08 00 00 	mov    rax,QWORD PTR [rbp+0x8e0]
   14000398c:	48 89 c1             	mov    rcx,rax
   14000398f:	e8 ec da ff ff       	call   140001480 <_ZN5rvm645crypt11decrypt_ptrEy>
   140003994:	48 89 85 d8 08 00 00 	mov    QWORD PTR [rbp+0x8d8],rax
   14000399b:	48 8b 85 d8 08 00 00 	mov    rax,QWORD PTR [rbp+0x8d8]
   1400039a2:	48 89 85 d0 08 00 00 	mov    QWORD PTR [rbp+0x8d0],rax
   1400039a9:	48 8b 85 d0 08 00 00 	mov    rax,QWORD PTR [rbp+0x8d0]
   1400039b0:	ff d0                	call   rax
   1400039b2:	e9 f0 00 00 00       	jmp    140003aa7 <_ZN5rvm647decoder9vm_decodeEj+0x766>
   1400039b7:	8b 85 20 0a 00 00    	mov    eax,DWORD PTR [rbp+0xa20]
   1400039bd:	c1 e8 18             	shr    eax,0x18
   1400039c0:	83 e0 7f             	and    eax,0x7f
   1400039c3:	88 85 1f 09 00 00    	mov    BYTE PTR [rbp+0x91f],al
   1400039c9:	0f b6 85 1f 09 00 00 	movzx  eax,BYTE PTR [rbp+0x91f]
   1400039d0:	85 c0                	test   eax,eax
   1400039d2:	74 0a                	je     1400039de <_ZN5rvm647decoder9vm_decodeEj+0x69d>
   1400039d4:	83 f8 20             	cmp    eax,0x20
   1400039d7:	74 6a                	je     140003a43 <_ZN5rvm647decoder9vm_decodeEj+0x702>
   1400039d9:	e9 c9 00 00 00       	jmp    140003aa7 <_ZN5rvm647decoder9vm_decodeEj+0x766>
   1400039de:	8b 85 20 0a 00 00    	mov    eax,DWORD PTR [rbp+0xa20]
   1400039e4:	89 c1                	mov    ecx,eax
   1400039e6:	e8 85 9b 00 00       	call   14000d570 <_Z7shamt_ij>
   1400039eb:	89 c2                	mov    edx,eax
   1400039ed:	48 8b 05 14 c6 00 00 	mov    rax,QWORD PTR [rip+0xc614]        # 140010008 <vmcs>
   1400039f4:	0f b6 d2             	movzx  edx,dl
   1400039f7:	48 89 50 38          	mov    QWORD PTR [rax+0x38],rdx
   1400039fb:	48 8b 05 06 c6 00 00 	mov    rax,QWORD PTR [rip+0xc606]        # 140010008 <vmcs>
   140003a02:	48 8b 40 08          	mov    rax,QWORD PTR [rax+0x8]
   140003a06:	48 83 c0 58          	add    rax,0x58
   140003a0a:	48 8b 00             	mov    rax,QWORD PTR [rax]
   140003a0d:	48 89 85 f8 08 00 00 	mov    QWORD PTR [rbp+0x8f8],rax
   140003a14:	48 8b 85 f8 08 00 00 	mov    rax,QWORD PTR [rbp+0x8f8]
   140003a1b:	48 89 c1             	mov    rcx,rax
   140003a1e:	e8 5d da ff ff       	call   140001480 <_ZN5rvm645crypt11decrypt_ptrEy>
   140003a23:	48 89 85 f0 08 00 00 	mov    QWORD PTR [rbp+0x8f0],rax
   140003a2a:	48 8b 85 f0 08 00 00 	mov    rax,QWORD PTR [rbp+0x8f0]
   140003a31:	48 89 85 e8 08 00 00 	mov    QWORD PTR [rbp+0x8e8],rax
   140003a38:	48 8b 85 e8 08 00 00 	mov    rax,QWORD PTR [rbp+0x8e8]
   140003a3f:	ff d0                	call   rax
   140003a41:	eb 64                	jmp    140003aa7 <_ZN5rvm647decoder9vm_decodeEj+0x766>
   140003a43:	8b 85 20 0a 00 00    	mov    eax,DWORD PTR [rbp+0xa20]
   140003a49:	89 c1                	mov    ecx,eax
   140003a4b:	e8 20 9b 00 00       	call   14000d570 <_Z7shamt_ij>
   140003a50:	89 c2                	mov    edx,eax
   140003a52:	48 8b 05 af c5 00 00 	mov    rax,QWORD PTR [rip+0xc5af]        # 140010008 <vmcs>
   140003a59:	0f b6 d2             	movzx  edx,dl
   140003a5c:	48 89 50 38          	mov    QWORD PTR [rax+0x38],rdx
   140003a60:	48 8b 05 a1 c5 00 00 	mov    rax,QWORD PTR [rip+0xc5a1]        # 140010008 <vmcs>
   140003a67:	48 8b 40 08          	mov    rax,QWORD PTR [rax+0x8]
   140003a6b:	48 83 c0 60          	add    rax,0x60
   140003a6f:	48 8b 00             	mov    rax,QWORD PTR [rax]
   140003a72:	48 89 85 10 09 00 00 	mov    QWORD PTR [rbp+0x910],rax
   140003a79:	48 8b 85 10 09 00 00 	mov    rax,QWORD PTR [rbp+0x910]
   140003a80:	48 89 c1             	mov    rcx,rax
   140003a83:	e8 f8 d9 ff ff       	call   140001480 <_ZN5rvm645crypt11decrypt_ptrEy>
   140003a88:	48 89 85 08 09 00 00 	mov    QWORD PTR [rbp+0x908],rax
   140003a8f:	48 8b 85 08 09 00 00 	mov    rax,QWORD PTR [rbp+0x908]
   140003a96:	48 89 85 00 09 00 00 	mov    QWORD PTR [rbp+0x900],rax
   140003a9d:	48 8b 85 00 09 00 00 	mov    rax,QWORD PTR [rbp+0x900]
   140003aa4:	ff d0                	call   rax
   140003aa6:	90                   	nop
   140003aa7:	0f b6 85 06 0a 00 00 	movzx  eax,BYTE PTR [rbp+0xa06]
   140003aae:	83 f8 06             	cmp    eax,0x6
   140003ab1:	0f 87 f9 02 00 00    	ja     140003db0 <_ZN5rvm647decoder9vm_decodeEj+0xa6f>
   140003ab7:	89 c0                	mov    eax,eax
   140003ab9:	48 8d 14 85 00 00 00 	lea    rdx,[rax*4+0x0]
   140003ac0:	00 
   140003ac1:	48 8d 05 40 d8 00 00 	lea    rax,[rip+0xd840]        # 140011308 <_ZL8encoding+0xc8>
   140003ac8:	8b 04 02             	mov    eax,DWORD PTR [rdx+rax*1]
   140003acb:	48 98                	cdqe
   140003acd:	48 8d 15 34 d8 00 00 	lea    rdx,[rip+0xd834]        # 140011308 <_ZL8encoding+0xc8>
   140003ad4:	48 01 d0             	add    rax,rdx
   140003ad7:	ff e0                	jmp    rax
   140003ad9:	8b 85 20 0a 00 00    	mov    eax,DWORD PTR [rbp+0xa20]
   140003adf:	89 c1                	mov    ecx,eax
   140003ae1:	e8 9a 99 00 00       	call   14000d480 <_Z5imm_ij>
   140003ae6:	89 c2                	mov    edx,eax
   140003ae8:	48 8b 05 19 c5 00 00 	mov    rax,QWORD PTR [rip+0xc519]        # 140010008 <vmcs>
   140003aef:	48 63 d2             	movsxd rdx,edx
   140003af2:	48 89 50 38          	mov    QWORD PTR [rax+0x38],rdx
   140003af6:	48 8b 05 0b c5 00 00 	mov    rax,QWORD PTR [rip+0xc50b]        # 140010008 <vmcs>
   140003afd:	48 8b 40 08          	mov    rax,QWORD PTR [rax+0x8]
   140003b01:	48 83 c0 68          	add    rax,0x68
   140003b05:	48 8b 00             	mov    rax,QWORD PTR [rax]
   140003b08:	48 89 85 20 08 00 00 	mov    QWORD PTR [rbp+0x820],rax
   140003b0f:	48 8b 85 20 08 00 00 	mov    rax,QWORD PTR [rbp+0x820]
   140003b16:	48 89 c1             	mov    rcx,rax
   140003b19:	e8 62 d9 ff ff       	call   140001480 <_ZN5rvm645crypt11decrypt_ptrEy>
   140003b1e:	48 89 85 18 08 00 00 	mov    QWORD PTR [rbp+0x818],rax
   140003b25:	48 8b 85 18 08 00 00 	mov    rax,QWORD PTR [rbp+0x818]
   140003b2c:	48 89 85 10 08 00 00 	mov    QWORD PTR [rbp+0x810],rax
   140003b33:	48 8b 85 10 08 00 00 	mov    rax,QWORD PTR [rbp+0x810]
   140003b3a:	ff d0                	call   rax
   140003b3c:	e9 6f 02 00 00       	jmp    140003db0 <_ZN5rvm647decoder9vm_decodeEj+0xa6f>
   140003b41:	8b 85 20 0a 00 00    	mov    eax,DWORD PTR [rbp+0xa20]
   140003b47:	89 c1                	mov    ecx,eax
   140003b49:	e8 32 99 00 00       	call   14000d480 <_Z5imm_ij>
   140003b4e:	89 c2                	mov    edx,eax
   140003b50:	48 8b 05 b1 c4 00 00 	mov    rax,QWORD PTR [rip+0xc4b1]        # 140010008 <vmcs>
   140003b57:	48 63 d2             	movsxd rdx,edx
   140003b5a:	48 89 50 38          	mov    QWORD PTR [rax+0x38],rdx
   140003b5e:	48 8b 05 a3 c4 00 00 	mov    rax,QWORD PTR [rip+0xc4a3]        # 140010008 <vmcs>
   140003b65:	48 8b 40 08          	mov    rax,QWORD PTR [rax+0x8]
   140003b69:	48 83 c0 70          	add    rax,0x70
   140003b6d:	48 8b 00             	mov    rax,QWORD PTR [rax]
   140003b70:	48 89 85 38 08 00 00 	mov    QWORD PTR [rbp+0x838],rax
   140003b77:	48 8b 85 38 08 00 00 	mov    rax,QWORD PTR [rbp+0x838]
   140003b7e:	48 89 c1             	mov    rcx,rax
   140003b81:	e8 fa d8 ff ff       	call   140001480 <_ZN5rvm645crypt11decrypt_ptrEy>
   140003b86:	48 89 85 30 08 00 00 	mov    QWORD PTR [rbp+0x830],rax
   140003b8d:	48 8b 85 30 08 00 00 	mov    rax,QWORD PTR [rbp+0x830]
   140003b94:	48 89 85 28 08 00 00 	mov    QWORD PTR [rbp+0x828],rax
   140003b9b:	48 8b 85 28 08 00 00 	mov    rax,QWORD PTR [rbp+0x828]
   140003ba2:	ff d0                	call   rax
   140003ba4:	e9 07 02 00 00       	jmp    140003db0 <_ZN5rvm647decoder9vm_decodeEj+0xa6f>
   140003ba9:	8b 85 20 0a 00 00    	mov    eax,DWORD PTR [rbp+0xa20]
   140003baf:	89 c1                	mov    ecx,eax
   140003bb1:	e8 ca 98 00 00       	call   14000d480 <_Z5imm_ij>
   140003bb6:	89 c2                	mov    edx,eax
   140003bb8:	48 8b 05 49 c4 00 00 	mov    rax,QWORD PTR [rip+0xc449]        # 140010008 <vmcs>
   140003bbf:	48 63 d2             	movsxd rdx,edx
   140003bc2:	48 89 50 38          	mov    QWORD PTR [rax+0x38],rdx
   140003bc6:	48 8b 05 3b c4 00 00 	mov    rax,QWORD PTR [rip+0xc43b]        # 140010008 <vmcs>
   140003bcd:	48 8b 40 08          	mov    rax,QWORD PTR [rax+0x8]
   140003bd1:	48 83 c0 78          	add    rax,0x78
   140003bd5:	48 8b 00             	mov    rax,QWORD PTR [rax]
   140003bd8:	48 89 85 50 08 00 00 	mov    QWORD PTR [rbp+0x850],rax
   140003bdf:	48 8b 85 50 08 00 00 	mov    rax,QWORD PTR [rbp+0x850]
   140003be6:	48 89 c1             	mov    rcx,rax
   140003be9:	e8 92 d8 ff ff       	call   140001480 <_ZN5rvm645crypt11decrypt_ptrEy>
   140003bee:	48 89 85 48 08 00 00 	mov    QWORD PTR [rbp+0x848],rax
   140003bf5:	48 8b 85 48 08 00 00 	mov    rax,QWORD PTR [rbp+0x848]
   140003bfc:	48 89 85 40 08 00 00 	mov    QWORD PTR [rbp+0x840],rax
   140003c03:	48 8b 85 40 08 00 00 	mov    rax,QWORD PTR [rbp+0x840]
   140003c0a:	ff d0                	call   rax
   140003c0c:	e9 9f 01 00 00       	jmp    140003db0 <_ZN5rvm647decoder9vm_decodeEj+0xa6f>
   140003c11:	8b 85 20 0a 00 00    	mov    eax,DWORD PTR [rbp+0xa20]
   140003c17:	89 c1                	mov    ecx,eax
   140003c19:	e8 62 98 00 00       	call   14000d480 <_Z5imm_ij>
   140003c1e:	89 c2                	mov    edx,eax
   140003c20:	48 8b 05 e1 c3 00 00 	mov    rax,QWORD PTR [rip+0xc3e1]        # 140010008 <vmcs>
   140003c27:	48 63 d2             	movsxd rdx,edx
   140003c2a:	48 89 50 38          	mov    QWORD PTR [rax+0x38],rdx
   140003c2e:	48 8b 05 d3 c3 00 00 	mov    rax,QWORD PTR [rip+0xc3d3]        # 140010008 <vmcs>
   140003c35:	48 8b 40 08          	mov    rax,QWORD PTR [rax+0x8]
   140003c39:	48 83 e8 80          	sub    rax,0xffffffffffffff80
   140003c3d:	48 8b 00             	mov    rax,QWORD PTR [rax]
   140003c40:	48 89 85 80 08 00 00 	mov    QWORD PTR [rbp+0x880],rax
   140003c47:	48 8b 85 80 08 00 00 	mov    rax,QWORD PTR [rbp+0x880]
   140003c4e:	48 89 c1             	mov    rcx,rax
   140003c51:	e8 2a d8 ff ff       	call   140001480 <_ZN5rvm645crypt11decrypt_ptrEy>
   140003c56:	48 89 85 78 08 00 00 	mov    QWORD PTR [rbp+0x878],rax
   140003c5d:	48 8b 85 78 08 00 00 	mov    rax,QWORD PTR [rbp+0x878]
   140003c64:	48 89 85 70 08 00 00 	mov    QWORD PTR [rbp+0x870],rax
   140003c6b:	48 8b 85 70 08 00 00 	mov    rax,QWORD PTR [rbp+0x870]
   140003c72:	ff d0                	call   rax
   140003c74:	e9 37 01 00 00       	jmp    140003db0 <_ZN5rvm647decoder9vm_decodeEj+0xa6f>
   140003c79:	8b 85 20 0a 00 00    	mov    eax,DWORD PTR [rbp+0xa20]
   140003c7f:	89 c1                	mov    ecx,eax
   140003c81:	e8 fa 97 00 00       	call   14000d480 <_Z5imm_ij>
   140003c86:	89 c2                	mov    edx,eax
   140003c88:	48 8b 05 79 c3 00 00 	mov    rax,QWORD PTR [rip+0xc379]        # 140010008 <vmcs>
   140003c8f:	48 63 d2             	movsxd rdx,edx
   140003c92:	48 89 50 38          	mov    QWORD PTR [rax+0x38],rdx
   140003c96:	48 8b 05 6b c3 00 00 	mov    rax,QWORD PTR [rip+0xc36b]        # 140010008 <vmcs>
   140003c9d:	48 8b 40 08          	mov    rax,QWORD PTR [rax+0x8]
   140003ca1:	48 05 88 00 00 00    	add    rax,0x88
   140003ca7:	48 8b 00             	mov    rax,QWORD PTR [rax]
   140003caa:	48 89 85 98 08 00 00 	mov    QWORD PTR [rbp+0x898],rax
   140003cb1:	48 8b 85 98 08 00 00 	mov    rax,QWORD PTR [rbp+0x898]
   140003cb8:	48 89 c1             	mov    rcx,rax
   140003cbb:	e8 c0 d7 ff ff       	call   140001480 <_ZN5rvm645crypt11decrypt_ptrEy>
   140003cc0:	48 89 85 90 08 00 00 	mov    QWORD PTR [rbp+0x890],rax
   140003cc7:	48 8b 85 90 08 00 00 	mov    rax,QWORD PTR [rbp+0x890]
   140003cce:	48 89 85 88 08 00 00 	mov    QWORD PTR [rbp+0x888],rax
   140003cd5:	48 8b 85 88 08 00 00 	mov    rax,QWORD PTR [rbp+0x888]
   140003cdc:	ff d0                	call   rax
   140003cde:	e9 cd 00 00 00       	jmp    140003db0 <_ZN5rvm647decoder9vm_decodeEj+0xa6f>
   140003ce3:	8b 85 20 0a 00 00    	mov    eax,DWORD PTR [rbp+0xa20]
   140003ce9:	89 c1                	mov    ecx,eax
   140003ceb:	e8 90 97 00 00       	call   14000d480 <_Z5imm_ij>
   140003cf0:	89 c2                	mov    edx,eax
   140003cf2:	48 8b 05 0f c3 00 00 	mov    rax,QWORD PTR [rip+0xc30f]        # 140010008 <vmcs>
   140003cf9:	48 63 d2             	movsxd rdx,edx
   140003cfc:	48 89 50 38          	mov    QWORD PTR [rax+0x38],rdx
   140003d00:	48 8b 05 01 c3 00 00 	mov    rax,QWORD PTR [rip+0xc301]        # 140010008 <vmcs>
   140003d07:	48 8b 40 08          	mov    rax,QWORD PTR [rax+0x8]
   140003d0b:	48 05 90 00 00 00    	add    rax,0x90
   140003d11:	48 8b 00             	mov    rax,QWORD PTR [rax]
   140003d14:	48 89 85 b0 08 00 00 	mov    QWORD PTR [rbp+0x8b0],rax
   140003d1b:	48 8b 85 b0 08 00 00 	mov    rax,QWORD PTR [rbp+0x8b0]
   140003d22:	48 89 c1             	mov    rcx,rax
   140003d25:	e8 56 d7 ff ff       	call   140001480 <_ZN5rvm645crypt11decrypt_ptrEy>
   140003d2a:	48 89 85 a8 08 00 00 	mov    QWORD PTR [rbp+0x8a8],rax
   140003d31:	48 8b 85 a8 08 00 00 	mov    rax,QWORD PTR [rbp+0x8a8]
   140003d38:	48 89 85 a0 08 00 00 	mov    QWORD PTR [rbp+0x8a0],rax
   140003d3f:	48 8b 85 a0 08 00 00 	mov    rax,QWORD PTR [rbp+0x8a0]
   140003d46:	ff d0                	call   rax
   140003d48:	eb 66                	jmp    140003db0 <_ZN5rvm647decoder9vm_decodeEj+0xa6f>
   140003d4a:	8b 85 20 0a 00 00    	mov    eax,DWORD PTR [rbp+0xa20]
   140003d50:	89 c1                	mov    ecx,eax
   140003d52:	e8 29 97 00 00       	call   14000d480 <_Z5imm_ij>
   140003d57:	89 c2                	mov    edx,eax
   140003d59:	48 8b 05 a8 c2 00 00 	mov    rax,QWORD PTR [rip+0xc2a8]        # 140010008 <vmcs>
   140003d60:	48 63 d2             	movsxd rdx,edx
   140003d63:	48 89 50 38          	mov    QWORD PTR [rax+0x38],rdx
   140003d67:	48 8b 05 9a c2 00 00 	mov    rax,QWORD PTR [rip+0xc29a]        # 140010008 <vmcs>
   140003d6e:	48 8b 40 08          	mov    rax,QWORD PTR [rax+0x8]
   140003d72:	48 05 98 00 00 00    	add    rax,0x98
   140003d78:	48 8b 00             	mov    rax,QWORD PTR [rax]
   140003d7b:	48 89 85 68 08 00 00 	mov    QWORD PTR [rbp+0x868],rax
   140003d82:	48 8b 85 68 08 00 00 	mov    rax,QWORD PTR [rbp+0x868]
   140003d89:	48 89 c1             	mov    rcx,rax
   140003d8c:	e8 ef d6 ff ff       	call   140001480 <_ZN5rvm645crypt11decrypt_ptrEy>
   140003d91:	48 89 85 60 08 00 00 	mov    QWORD PTR [rbp+0x860],rax
   140003d98:	48 8b 85 60 08 00 00 	mov    rax,QWORD PTR [rbp+0x860]
   140003d9f:	48 89 85 58 08 00 00 	mov    QWORD PTR [rbp+0x858],rax
   140003da6:	48 8b 85 58 08 00 00 	mov    rax,QWORD PTR [rbp+0x858]
   140003dad:	ff d0                	call   rax
   140003daf:	90                   	nop
   140003db0:	8b 85 20 0a 00 00    	mov    eax,DWORD PTR [rbp+0xa20]
   140003db6:	c1 e8 14             	shr    eax,0x14
   140003db9:	0f b6 d0             	movzx  edx,al
   140003dbc:	48 8b 05 45 c2 00 00 	mov    rax,QWORD PTR [rip+0xc245]        # 140010008 <vmcs>
   140003dc3:	83 e2 1f             	and    edx,0x1f
   140003dc6:	48 89 50 28          	mov    QWORD PTR [rax+0x28],rdx
   140003dca:	8b 85 20 0a 00 00    	mov    eax,DWORD PTR [rbp+0xa20]
   140003dd0:	c1 e8 0f             	shr    eax,0xf
   140003dd3:	0f b6 d0             	movzx  edx,al
   140003dd6:	48 8b 05 2b c2 00 00 	mov    rax,QWORD PTR [rip+0xc22b]        # 140010008 <vmcs>
   140003ddd:	83 e2 1f             	and    edx,0x1f
   140003de0:	48 89 50 20          	mov    QWORD PTR [rax+0x20],rdx
   140003de4:	8b 85 20 0a 00 00    	mov    eax,DWORD PTR [rbp+0xa20]
   140003dea:	c1 e8 07             	shr    eax,0x7
   140003ded:	0f b6 d0             	movzx  edx,al
   140003df0:	48 8b 05 11 c2 00 00 	mov    rax,QWORD PTR [rip+0xc211]        # 140010008 <vmcs>
   140003df7:	83 e2 1f             	and    edx,0x1f
   140003dfa:	48 89 50 18          	mov    QWORD PTR [rax+0x18],rdx
   140003dfe:	0f b6 85 07 0a 00 00 	movzx  eax,BYTE PTR [rbp+0xa07]
   140003e05:	83 f8 53             	cmp    eax,0x53
   140003e08:	74 32                	je     140003e3c <_ZN5rvm647decoder9vm_decodeEj+0xafb>
   140003e0a:	83 f8 53             	cmp    eax,0x53
   140003e0d:	0f 8f 0f 19 00 00    	jg     140005722 <_ZN5rvm647decoder9vm_decodeEj+0x23e1>
   140003e13:	83 f8 3b             	cmp    eax,0x3b
   140003e16:	0f 84 21 0f 00 00    	je     140004d3d <_ZN5rvm647decoder9vm_decodeEj+0x19fc>
   140003e1c:	83 f8 3b             	cmp    eax,0x3b
   140003e1f:	0f 8f fd 18 00 00    	jg     140005722 <_ZN5rvm647decoder9vm_decodeEj+0x23e1>
   140003e25:	83 f8 2f             	cmp    eax,0x2f
   140003e28:	0f 84 ca 07 00 00    	je     1400045f8 <_ZN5rvm647decoder9vm_decodeEj+0x12b7>
   140003e2e:	83 f8 33             	cmp    eax,0x33
   140003e31:	0f 84 97 12 00 00    	je     1400050ce <_ZN5rvm647decoder9vm_decodeEj+0x1d8d>
   140003e37:	e9 e6 18 00 00       	jmp    140005722 <_ZN5rvm647decoder9vm_decodeEj+0x23e1>
   140003e3c:	8b 85 20 0a 00 00    	mov    eax,DWORD PTR [rbp+0xa20]
   140003e42:	c1 e8 18             	shr    eax,0x18
   140003e45:	83 e0 7f             	and    eax,0x7f
   140003e48:	88 85 0f 08 00 00    	mov    BYTE PTR [rbp+0x80f],al
   140003e4e:	0f b6 85 0f 08 00 00 	movzx  eax,BYTE PTR [rbp+0x80f]
   140003e55:	83 f8 79             	cmp    eax,0x79
   140003e58:	0f 84 b9 01 00 00    	je     140004017 <_ZN5rvm647decoder9vm_decodeEj+0xcd6>
   140003e5e:	83 f8 79             	cmp    eax,0x79
   140003e61:	0f 8f 91 07 00 00    	jg     1400045f8 <_ZN5rvm647decoder9vm_decodeEj+0x12b7>
   140003e67:	83 f8 71             	cmp    eax,0x71
   140003e6a:	0f 84 21 07 00 00    	je     140004591 <_ZN5rvm647decoder9vm_decodeEj+0x1250>
   140003e70:	83 f8 71             	cmp    eax,0x71
   140003e73:	0f 8f 7f 07 00 00    	jg     1400045f8 <_ZN5rvm647decoder9vm_decodeEj+0x12b7>
   140003e79:	83 f8 69             	cmp    eax,0x69
   140003e7c:	0f 84 69 03 00 00    	je     1400041eb <_ZN5rvm647decoder9vm_decodeEj+0xeaa>
   140003e82:	83 f8 69             	cmp    eax,0x69
   140003e85:	0f 8f 6d 07 00 00    	jg     1400045f8 <_ZN5rvm647decoder9vm_decodeEj+0x12b7>
   140003e8b:	83 f8 61             	cmp    eax,0x61
   140003e8e:	0f 84 9d 02 00 00    	je     140004131 <_ZN5rvm647decoder9vm_decodeEj+0xdf0>
   140003e94:	83 f8 61             	cmp    eax,0x61
   140003e97:	0f 8f 5b 07 00 00    	jg     1400045f8 <_ZN5rvm647decoder9vm_decodeEj+0x12b7>
   140003e9d:	83 f8 21             	cmp    eax,0x21
   140003ea0:	7f 33                	jg     140003ed5 <_ZN5rvm647decoder9vm_decodeEj+0xb94>
   140003ea2:	85 c0                	test   eax,eax
   140003ea4:	0f 8e 4e 07 00 00    	jle    1400045f8 <_ZN5rvm647decoder9vm_decodeEj+0x12b7>
   140003eaa:	83 f8 21             	cmp    eax,0x21
   140003ead:	0f 87 45 07 00 00    	ja     1400045f8 <_ZN5rvm647decoder9vm_decodeEj+0x12b7>
   140003eb3:	89 c0                	mov    eax,eax
   140003eb5:	48 8d 14 85 00 00 00 	lea    rdx,[rax*4+0x0]
   140003ebc:	00 
   140003ebd:	48 8d 05 60 d4 00 00 	lea    rax,[rip+0xd460]        # 140011324 <_ZL8encoding+0xe4>
   140003ec4:	8b 04 02             	mov    eax,DWORD PTR [rdx+rax*1]
   140003ec7:	48 98                	cdqe
   140003ec9:	48 8d 15 54 d4 00 00 	lea    rdx,[rip+0xd454]        # 140011324 <_ZL8encoding+0xe4>
   140003ed0:	48 01 d0             	add    rax,rdx
   140003ed3:	ff e0                	jmp    rax
   140003ed5:	83 f8 51             	cmp    eax,0x51
   140003ed8:	0f 84 9a 05 00 00    	je     140004478 <_ZN5rvm647decoder9vm_decodeEj+0x1137>
   140003ede:	e9 15 07 00 00       	jmp    1400045f8 <_ZN5rvm647decoder9vm_decodeEj+0x12b7>
   140003ee3:	48 8b 05 1e c1 00 00 	mov    rax,QWORD PTR [rip+0xc11e]        # 140010008 <vmcs>
   140003eea:	48 8b 40 08          	mov    rax,QWORD PTR [rax+0x8]
   140003eee:	48 05 50 01 00 00    	add    rax,0x150
   140003ef4:	48 8b 00             	mov    rax,QWORD PTR [rax]
   140003ef7:	48 89 85 f8 05 00 00 	mov    QWORD PTR [rbp+0x5f8],rax
   140003efe:	48 8b 85 f8 05 00 00 	mov    rax,QWORD PTR [rbp+0x5f8]
   140003f05:	48 89 c1             	mov    rcx,rax
   140003f08:	e8 73 d5 ff ff       	call   140001480 <_ZN5rvm645crypt11decrypt_ptrEy>
   140003f0d:	48 89 85 f0 05 00 00 	mov    QWORD PTR [rbp+0x5f0],rax
   140003f14:	48 8b 85 f0 05 00 00 	mov    rax,QWORD PTR [rbp+0x5f0]
   140003f1b:	48 89 85 e8 05 00 00 	mov    QWORD PTR [rbp+0x5e8],rax
   140003f22:	48 8b 85 e8 05 00 00 	mov    rax,QWORD PTR [rbp+0x5e8]
   140003f29:	ff d0                	call   rax
   140003f2b:	e9 c8 06 00 00       	jmp    1400045f8 <_ZN5rvm647decoder9vm_decodeEj+0x12b7>
   140003f30:	48 8b 05 d1 c0 00 00 	mov    rax,QWORD PTR [rip+0xc0d1]        # 140010008 <vmcs>
   140003f37:	48 8b 40 08          	mov    rax,QWORD PTR [rax+0x8]
   140003f3b:	48 05 58 01 00 00    	add    rax,0x158
   140003f41:	48 8b 00             	mov    rax,QWORD PTR [rax]
   140003f44:	48 89 85 10 06 00 00 	mov    QWORD PTR [rbp+0x610],rax
   140003f4b:	48 8b 85 10 06 00 00 	mov    rax,QWORD PTR [rbp+0x610]
   140003f52:	48 89 c1             	mov    rcx,rax
   140003f55:	e8 26 d5 ff ff       	call   140001480 <_ZN5rvm645crypt11decrypt_ptrEy>
   140003f5a:	48 89 85 08 06 00 00 	mov    QWORD PTR [rbp+0x608],rax
   140003f61:	48 8b 85 08 06 00 00 	mov    rax,QWORD PTR [rbp+0x608]
   140003f68:	48 89 85 00 06 00 00 	mov    QWORD PTR [rbp+0x600],rax
   140003f6f:	48 8b 85 00 06 00 00 	mov    rax,QWORD PTR [rbp+0x600]
   140003f76:	ff d0                	call   rax
   140003f78:	e9 7b 06 00 00       	jmp    1400045f8 <_ZN5rvm647decoder9vm_decodeEj+0x12b7>
   140003f7d:	48 8b 05 84 c0 00 00 	mov    rax,QWORD PTR [rip+0xc084]        # 140010008 <vmcs>
   140003f84:	48 8b 40 08          	mov    rax,QWORD PTR [rax+0x8]
   140003f88:	48 05 60 01 00 00    	add    rax,0x160
   140003f8e:	48 8b 00             	mov    rax,QWORD PTR [rax]
   140003f91:	48 89 85 28 06 00 00 	mov    QWORD PTR [rbp+0x628],rax
   140003f98:	48 8b 85 28 06 00 00 	mov    rax,QWORD PTR [rbp+0x628]
   140003f9f:	48 89 c1             	mov    rcx,rax
   140003fa2:	e8 d9 d4 ff ff       	call   140001480 <_ZN5rvm645crypt11decrypt_ptrEy>
   140003fa7:	48 89 85 20 06 00 00 	mov    QWORD PTR [rbp+0x620],rax
   140003fae:	48 8b 85 20 06 00 00 	mov    rax,QWORD PTR [rbp+0x620]
   140003fb5:	48 89 85 18 06 00 00 	mov    QWORD PTR [rbp+0x618],rax
   140003fbc:	48 8b 85 18 06 00 00 	mov    rax,QWORD PTR [rbp+0x618]
   140003fc3:	ff d0                	call   rax
   140003fc5:	e9 2e 06 00 00       	jmp    1400045f8 <_ZN5rvm647decoder9vm_decodeEj+0x12b7>
   140003fca:	48 8b 05 37 c0 00 00 	mov    rax,QWORD PTR [rip+0xc037]        # 140010008 <vmcs>
   140003fd1:	48 8b 40 08          	mov    rax,QWORD PTR [rax+0x8]
   140003fd5:	48 05 68 01 00 00    	add    rax,0x168
   140003fdb:	48 8b 00             	mov    rax,QWORD PTR [rax]
   140003fde:	48 89 85 40 06 00 00 	mov    QWORD PTR [rbp+0x640],rax
   140003fe5:	48 8b 85 40 06 00 00 	mov    rax,QWORD PTR [rbp+0x640]
   140003fec:	48 89 c1             	mov    rcx,rax
   140003fef:	e8 8c d4 ff ff       	call   140001480 <_ZN5rvm645crypt11decrypt_ptrEy>
   140003ff4:	48 89 85 38 06 00 00 	mov    QWORD PTR [rbp+0x638],rax
   140003ffb:	48 8b 85 38 06 00 00 	mov    rax,QWORD PTR [rbp+0x638]
   140004002:	48 89 85 30 06 00 00 	mov    QWORD PTR [rbp+0x630],rax
   140004009:	48 8b 85 30 06 00 00 	mov    rax,QWORD PTR [rbp+0x630]
   140004010:	ff d0                	call   rax
   140004012:	e9 e1 05 00 00       	jmp    1400045f8 <_ZN5rvm647decoder9vm_decodeEj+0x12b7>
   140004017:	48 8b 05 ea bf 00 00 	mov    rax,QWORD PTR [rip+0xbfea]        # 140010008 <vmcs>
   14000401e:	48 8b 40 08          	mov    rax,QWORD PTR [rax+0x8]
   140004022:	48 05 18 01 00 00    	add    rax,0x118
   140004028:	48 8b 00             	mov    rax,QWORD PTR [rax]
   14000402b:	48 89 85 00 08 00 00 	mov    QWORD PTR [rbp+0x800],rax
   140004032:	48 8b 85 00 08 00 00 	mov    rax,QWORD PTR [rbp+0x800]
   140004039:	48 89 c1             	mov    rcx,rax
   14000403c:	e8 3f d4 ff ff       	call   140001480 <_ZN5rvm645crypt11decrypt_ptrEy>
   140004041:	48 89 85 f8 07 00 00 	mov    QWORD PTR [rbp+0x7f8],rax
   140004048:	48 8b 85 f8 07 00 00 	mov    rax,QWORD PTR [rbp+0x7f8]
   14000404f:	48 89 85 f0 07 00 00 	mov    QWORD PTR [rbp+0x7f0],rax
   140004056:	48 8b 85 f0 07 00 00 	mov    rax,QWORD PTR [rbp+0x7f0]
   14000405d:	ff d0                	call   rax
   14000405f:	e9 94 05 00 00       	jmp    1400045f8 <_ZN5rvm647decoder9vm_decodeEj+0x12b7>
   140004064:	8b 85 20 0a 00 00    	mov    eax,DWORD PTR [rbp+0xa20]
   14000406a:	c1 e8 14             	shr    eax,0x14
   14000406d:	83 e0 1f             	and    eax,0x1f
   140004070:	88 85 ef 07 00 00    	mov    BYTE PTR [rbp+0x7ef],al
   140004076:	0f b6 85 ef 07 00 00 	movzx  eax,BYTE PTR [rbp+0x7ef]
   14000407d:	83 f8 01             	cmp    eax,0x1
   140004080:	75 49                	jne    1400040cb <_ZN5rvm647decoder9vm_decodeEj+0xd8a>
   140004082:	48 8b 05 7f bf 00 00 	mov    rax,QWORD PTR [rip+0xbf7f]        # 140010008 <vmcs>
   140004089:	48 8b 40 08          	mov    rax,QWORD PTR [rax+0x8]
   14000408d:	48 05 20 01 00 00    	add    rax,0x120
   140004093:	48 8b 00             	mov    rax,QWORD PTR [rax]
   140004096:	48 89 85 e0 07 00 00 	mov    QWORD PTR [rbp+0x7e0],rax
   14000409d:	48 8b 85 e0 07 00 00 	mov    rax,QWORD PTR [rbp+0x7e0]
   1400040a4:	48 89 c1             	mov    rcx,rax
   1400040a7:	e8 d4 d3 ff ff       	call   140001480 <_ZN5rvm645crypt11decrypt_ptrEy>
   1400040ac:	48 89 85 d8 07 00 00 	mov    QWORD PTR [rbp+0x7d8],rax
   1400040b3:	48 8b 85 d8 07 00 00 	mov    rax,QWORD PTR [rbp+0x7d8]
   1400040ba:	48 89 85 d0 07 00 00 	mov    QWORD PTR [rbp+0x7d0],rax
   1400040c1:	48 8b 85 d0 07 00 00 	mov    rax,QWORD PTR [rbp+0x7d0]
   1400040c8:	ff d0                	call   rax
   1400040ca:	90                   	nop
   1400040cb:	8b 85 20 0a 00 00    	mov    eax,DWORD PTR [rbp+0xa20]
   1400040d1:	c1 e8 14             	shr    eax,0x14
   1400040d4:	83 e0 1f             	and    eax,0x1f
   1400040d7:	88 85 cf 07 00 00    	mov    BYTE PTR [rbp+0x7cf],al
   1400040dd:	0f b6 85 cf 07 00 00 	movzx  eax,BYTE PTR [rbp+0x7cf]
   1400040e4:	85 c0                	test   eax,eax
   1400040e6:	75 49                	jne    140004131 <_ZN5rvm647decoder9vm_decodeEj+0xdf0>
   1400040e8:	48 8b 05 19 bf 00 00 	mov    rax,QWORD PTR [rip+0xbf19]        # 140010008 <vmcs>
   1400040ef:	48 8b 40 08          	mov    rax,QWORD PTR [rax+0x8]
   1400040f3:	48 05 28 01 00 00    	add    rax,0x128
   1400040f9:	48 8b 00             	mov    rax,QWORD PTR [rax]
   1400040fc:	48 89 85 c0 07 00 00 	mov    QWORD PTR [rbp+0x7c0],rax
   140004103:	48 8b 85 c0 07 00 00 	mov    rax,QWORD PTR [rbp+0x7c0]
   14000410a:	48 89 c1             	mov    rcx,rax
   14000410d:	e8 6e d3 ff ff       	call   140001480 <_ZN5rvm645crypt11decrypt_ptrEy>
   140004112:	48 89 85 b8 07 00 00 	mov    QWORD PTR [rbp+0x7b8],rax
   140004119:	48 8b 85 b8 07 00 00 	mov    rax,QWORD PTR [rbp+0x7b8]
   140004120:	48 89 85 b0 07 00 00 	mov    QWORD PTR [rbp+0x7b0],rax
   140004127:	48 8b 85 b0 07 00 00 	mov    rax,QWORD PTR [rbp+0x7b0]
   14000412e:	ff d0                	call   rax
   140004130:	90                   	nop
   140004131:	8b 85 20 0a 00 00    	mov    eax,DWORD PTR [rbp+0xa20]
   140004137:	c1 e8 14             	shr    eax,0x14
   14000413a:	83 e0 1f             	and    eax,0x1f
   14000413d:	88 85 af 07 00 00    	mov    BYTE PTR [rbp+0x7af],al
   140004143:	0f b6 85 af 07 00 00 	movzx  eax,BYTE PTR [rbp+0x7af]
   14000414a:	85 c0                	test   eax,eax
   14000414c:	74 0a                	je     140004158 <_ZN5rvm647decoder9vm_decodeEj+0xe17>
   14000414e:	83 f8 01             	cmp    eax,0x1
   140004151:	74 4f                	je     1400041a2 <_ZN5rvm647decoder9vm_decodeEj+0xe61>
   140004153:	e9 93 00 00 00       	jmp    1400041eb <_ZN5rvm647decoder9vm_decodeEj+0xeaa>
   140004158:	48 8b 05 a9 be 00 00 	mov    rax,QWORD PTR [rip+0xbea9]        # 140010008 <vmcs>
   14000415f:	48 8b 40 08          	mov    rax,QWORD PTR [rax+0x8]
   140004163:	48 05 30 01 00 00    	add    rax,0x130
   140004169:	48 8b 00             	mov    rax,QWORD PTR [rax]
   14000416c:	48 89 85 88 07 00 00 	mov    QWORD PTR [rbp+0x788],rax
   140004173:	48 8b 85 88 07 00 00 	mov    rax,QWORD PTR [rbp+0x788]
   14000417a:	48 89 c1             	mov    rcx,rax
   14000417d:	e8 fe d2 ff ff       	call   140001480 <_ZN5rvm645crypt11decrypt_ptrEy>
   140004182:	48 89 85 80 07 00 00 	mov    QWORD PTR [rbp+0x780],rax
   140004189:	48 8b 85 80 07 00 00 	mov    rax,QWORD PTR [rbp+0x780]
   140004190:	48 89 85 78 07 00 00 	mov    QWORD PTR [rbp+0x778],rax
   140004197:	48 8b 85 78 07 00 00 	mov    rax,QWORD PTR [rbp+0x778]
   14000419e:	ff d0                	call   rax
   1400041a0:	eb 49                	jmp    1400041eb <_ZN5rvm647decoder9vm_decodeEj+0xeaa>
   1400041a2:	48 8b 05 5f be 00 00 	mov    rax,QWORD PTR [rip+0xbe5f]        # 140010008 <vmcs>
   1400041a9:	48 8b 40 08          	mov    rax,QWORD PTR [rax+0x8]
   1400041ad:	48 05 38 01 00 00    	add    rax,0x138
   1400041b3:	48 8b 00             	mov    rax,QWORD PTR [rax]
   1400041b6:	48 89 85 a0 07 00 00 	mov    QWORD PTR [rbp+0x7a0],rax
   1400041bd:	48 8b 85 a0 07 00 00 	mov    rax,QWORD PTR [rbp+0x7a0]
   1400041c4:	48 89 c1             	mov    rcx,rax
   1400041c7:	e8 b4 d2 ff ff       	call   140001480 <_ZN5rvm645crypt11decrypt_ptrEy>
   1400041cc:	48 89 85 98 07 00 00 	mov    QWORD PTR [rbp+0x798],rax
   1400041d3:	48 8b 85 98 07 00 00 	mov    rax,QWORD PTR [rbp+0x798]
   1400041da:	48 89 85 90 07 00 00 	mov    QWORD PTR [rbp+0x790],rax
   1400041e1:	48 8b 85 90 07 00 00 	mov    rax,QWORD PTR [rbp+0x790]
   1400041e8:	ff d0                	call   rax
   1400041ea:	90                   	nop
   1400041eb:	8b 85 20 0a 00 00    	mov    eax,DWORD PTR [rbp+0xa20]
   1400041f1:	c1 e8 14             	shr    eax,0x14
   1400041f4:	83 e0 1f             	and    eax,0x1f
   1400041f7:	88 85 77 07 00 00    	mov    BYTE PTR [rbp+0x777],al
   1400041fd:	0f b6 85 77 07 00 00 	movzx  eax,BYTE PTR [rbp+0x777]
   140004204:	85 c0                	test   eax,eax
   140004206:	74 0a                	je     140004212 <_ZN5rvm647decoder9vm_decodeEj+0xed1>
   140004208:	83 f8 01             	cmp    eax,0x1
   14000420b:	74 4f                	je     14000425c <_ZN5rvm647decoder9vm_decodeEj+0xf1b>
   14000420d:	e9 93 00 00 00       	jmp    1400042a5 <_ZN5rvm647decoder9vm_decodeEj+0xf64>
   140004212:	48 8b 05 ef bd 00 00 	mov    rax,QWORD PTR [rip+0xbdef]        # 140010008 <vmcs>
   140004219:	48 8b 40 08          	mov    rax,QWORD PTR [rax+0x8]
   14000421d:	48 05 40 01 00 00    	add    rax,0x140
   140004223:	48 8b 00             	mov    rax,QWORD PTR [rax]
   140004226:	48 89 85 50 07 00 00 	mov    QWORD PTR [rbp+0x750],rax
   14000422d:	48 8b 85 50 07 00 00 	mov    rax,QWORD PTR [rbp+0x750]
   140004234:	48 89 c1             	mov    rcx,rax
   140004237:	e8 44 d2 ff ff       	call   140001480 <_ZN5rvm645crypt11decrypt_ptrEy>
   14000423c:	48 89 85 48 07 00 00 	mov    QWORD PTR [rbp+0x748],rax
   140004243:	48 8b 85 48 07 00 00 	mov    rax,QWORD PTR [rbp+0x748]
   14000424a:	48 89 85 40 07 00 00 	mov    QWORD PTR [rbp+0x740],rax
   140004251:	48 8b 85 40 07 00 00 	mov    rax,QWORD PTR [rbp+0x740]
   140004258:	ff d0                	call   rax
   14000425a:	eb 49                	jmp    1400042a5 <_ZN5rvm647decoder9vm_decodeEj+0xf64>
   14000425c:	48 8b 05 a5 bd 00 00 	mov    rax,QWORD PTR [rip+0xbda5]        # 140010008 <vmcs>
   140004263:	48 8b 40 08          	mov    rax,QWORD PTR [rax+0x8]
   140004267:	48 05 48 01 00 00    	add    rax,0x148
   14000426d:	48 8b 00             	mov    rax,QWORD PTR [rax]
   140004270:	48 89 85 68 07 00 00 	mov    QWORD PTR [rbp+0x768],rax
   140004277:	48 8b 85 68 07 00 00 	mov    rax,QWORD PTR [rbp+0x768]
   14000427e:	48 89 c1             	mov    rcx,rax
   140004281:	e8 fa d1 ff ff       	call   140001480 <_ZN5rvm645crypt11decrypt_ptrEy>
   140004286:	48 89 85 60 07 00 00 	mov    QWORD PTR [rbp+0x760],rax
   14000428d:	48 8b 85 60 07 00 00 	mov    rax,QWORD PTR [rbp+0x760]
   140004294:	48 89 85 58 07 00 00 	mov    QWORD PTR [rbp+0x758],rax
   14000429b:	48 8b 85 58 07 00 00 	mov    rax,QWORD PTR [rbp+0x758]
   1400042a2:	ff d0                	call   rax
   1400042a4:	90                   	nop
   1400042a5:	8b 85 20 0a 00 00    	mov    eax,DWORD PTR [rbp+0xa20]
   1400042ab:	c1 e8 0c             	shr    eax,0xc
   1400042ae:	83 e0 07             	and    eax,0x7
   1400042b1:	88 85 3f 07 00 00    	mov    BYTE PTR [rbp+0x73f],al
   1400042b7:	0f b6 85 3f 07 00 00 	movzx  eax,BYTE PTR [rbp+0x73f]
   1400042be:	83 f8 02             	cmp    eax,0x2
   1400042c1:	0f 84 ae 00 00 00    	je     140004375 <_ZN5rvm647decoder9vm_decodeEj+0x1034>
   1400042c7:	83 f8 02             	cmp    eax,0x2
   1400042ca:	0f 8f ee 00 00 00    	jg     1400043be <_ZN5rvm647decoder9vm_decodeEj+0x107d>
   1400042d0:	85 c0                	test   eax,eax
   1400042d2:	74 0a                	je     1400042de <_ZN5rvm647decoder9vm_decodeEj+0xf9d>
   1400042d4:	83 f8 01             	cmp    eax,0x1
   1400042d7:	74 52                	je     14000432b <_ZN5rvm647decoder9vm_decodeEj+0xfea>
   1400042d9:	e9 e0 00 00 00       	jmp    1400043be <_ZN5rvm647decoder9vm_decodeEj+0x107d>
   1400042de:	48 8b 05 23 bd 00 00 	mov    rax,QWORD PTR [rip+0xbd23]        # 140010008 <vmcs>
   1400042e5:	48 8b 40 08          	mov    rax,QWORD PTR [rax+0x8]
   1400042e9:	48 05 70 01 00 00    	add    rax,0x170
   1400042ef:	48 8b 00             	mov    rax,QWORD PTR [rax]
   1400042f2:	48 89 85 00 07 00 00 	mov    QWORD PTR [rbp+0x700],rax
   1400042f9:	48 8b 85 00 07 00 00 	mov    rax,QWORD PTR [rbp+0x700]
   140004300:	48 89 c1             	mov    rcx,rax
   140004303:	e8 78 d1 ff ff       	call   140001480 <_ZN5rvm645crypt11decrypt_ptrEy>
   140004308:	48 89 85 f8 06 00 00 	mov    QWORD PTR [rbp+0x6f8],rax
   14000430f:	48 8b 85 f8 06 00 00 	mov    rax,QWORD PTR [rbp+0x6f8]
   140004316:	48 89 85 f0 06 00 00 	mov    QWORD PTR [rbp+0x6f0],rax
   14000431d:	48 8b 85 f0 06 00 00 	mov    rax,QWORD PTR [rbp+0x6f0]
   140004324:	ff d0                	call   rax
   140004326:	e9 93 00 00 00       	jmp    1400043be <_ZN5rvm647decoder9vm_decodeEj+0x107d>
   14000432b:	48 8b 05 d6 bc 00 00 	mov    rax,QWORD PTR [rip+0xbcd6]        # 140010008 <vmcs>
   140004332:	48 8b 40 08          	mov    rax,QWORD PTR [rax+0x8]
   140004336:	48 05 78 01 00 00    	add    rax,0x178
   14000433c:	48 8b 00             	mov    rax,QWORD PTR [rax]
   14000433f:	48 89 85 18 07 00 00 	mov    QWORD PTR [rbp+0x718],rax
   140004346:	48 8b 85 18 07 00 00 	mov    rax,QWORD PTR [rbp+0x718]
   14000434d:	48 89 c1             	mov    rcx,rax
   140004350:	e8 2b d1 ff ff       	call   140001480 <_ZN5rvm645crypt11decrypt_ptrEy>
   140004355:	48 89 85 10 07 00 00 	mov    QWORD PTR [rbp+0x710],rax
   14000435c:	48 8b 85 10 07 00 00 	mov    rax,QWORD PTR [rbp+0x710]
   140004363:	48 89 85 08 07 00 00 	mov    QWORD PTR [rbp+0x708],rax
   14000436a:	48 8b 85 08 07 00 00 	mov    rax,QWORD PTR [rbp+0x708]
   140004371:	ff d0                	call   rax
   140004373:	eb 49                	jmp    1400043be <_ZN5rvm647decoder9vm_decodeEj+0x107d>
   140004375:	48 8b 05 8c bc 00 00 	mov    rax,QWORD PTR [rip+0xbc8c]        # 140010008 <vmcs>
   14000437c:	48 8b 40 08          	mov    rax,QWORD PTR [rax+0x8]
   140004380:	48 05 80 01 00 00    	add    rax,0x180
   140004386:	48 8b 00             	mov    rax,QWORD PTR [rax]
   140004389:	48 89 85 30 07 00 00 	mov    QWORD PTR [rbp+0x730],rax
   140004390:	48 8b 85 30 07 00 00 	mov    rax,QWORD PTR [rbp+0x730]
   140004397:	48 89 c1             	mov    rcx,rax
   14000439a:	e8 e1 d0 ff ff       	call   140001480 <_ZN5rvm645crypt11decrypt_ptrEy>
   14000439f:	48 89 85 28 07 00 00 	mov    QWORD PTR [rbp+0x728],rax
   1400043a6:	48 8b 85 28 07 00 00 	mov    rax,QWORD PTR [rbp+0x728]
   1400043ad:	48 89 85 20 07 00 00 	mov    QWORD PTR [rbp+0x720],rax
   1400043b4:	48 8b 85 20 07 00 00 	mov    rax,QWORD PTR [rbp+0x720]
   1400043bb:	ff d0                	call   rax
   1400043bd:	90                   	nop
   1400043be:	8b 85 20 0a 00 00    	mov    eax,DWORD PTR [rbp+0xa20]
   1400043c4:	c1 e8 0c             	shr    eax,0xc
   1400043c7:	83 e0 07             	and    eax,0x7
   1400043ca:	88 85 ef 06 00 00    	mov    BYTE PTR [rbp+0x6ef],al
   1400043d0:	0f b6 85 ef 06 00 00 	movzx  eax,BYTE PTR [rbp+0x6ef]
   1400043d7:	85 c0                	test   eax,eax
   1400043d9:	74 0a                	je     1400043e5 <_ZN5rvm647decoder9vm_decodeEj+0x10a4>
   1400043db:	83 f8 01             	cmp    eax,0x1
   1400043de:	74 4f                	je     14000442f <_ZN5rvm647decoder9vm_decodeEj+0x10ee>
   1400043e0:	e9 93 00 00 00       	jmp    140004478 <_ZN5rvm647decoder9vm_decodeEj+0x1137>
   1400043e5:	48 8b 05 1c bc 00 00 	mov    rax,QWORD PTR [rip+0xbc1c]        # 140010008 <vmcs>
   1400043ec:	48 8b 40 08          	mov    rax,QWORD PTR [rax+0x8]
   1400043f0:	48 05 88 01 00 00    	add    rax,0x188
   1400043f6:	48 8b 00             	mov    rax,QWORD PTR [rax]
   1400043f9:	48 89 85 c8 06 00 00 	mov    QWORD PTR [rbp+0x6c8],rax
   140004400:	48 8b 85 c8 06 00 00 	mov    rax,QWORD PTR [rbp+0x6c8]
   140004407:	48 89 c1             	mov    rcx,rax
   14000440a:	e8 71 d0 ff ff       	call   140001480 <_ZN5rvm645crypt11decrypt_ptrEy>
   14000440f:	48 89 85 c0 06 00 00 	mov    QWORD PTR [rbp+0x6c0],rax
   140004416:	48 8b 85 c0 06 00 00 	mov    rax,QWORD PTR [rbp+0x6c0]
   14000441d:	48 89 85 b8 06 00 00 	mov    QWORD PTR [rbp+0x6b8],rax
   140004424:	48 8b 85 b8 06 00 00 	mov    rax,QWORD PTR [rbp+0x6b8]
   14000442b:	ff d0                	call   rax
   14000442d:	eb 49                	jmp    140004478 <_ZN5rvm647decoder9vm_decodeEj+0x1137>
   14000442f:	48 8b 05 d2 bb 00 00 	mov    rax,QWORD PTR [rip+0xbbd2]        # 140010008 <vmcs>
   140004436:	48 8b 40 08          	mov    rax,QWORD PTR [rax+0x8]
   14000443a:	48 05 90 01 00 00    	add    rax,0x190
   140004440:	48 8b 00             	mov    rax,QWORD PTR [rax]
   140004443:	48 89 85 e0 06 00 00 	mov    QWORD PTR [rbp+0x6e0],rax
   14000444a:	48 8b 85 e0 06 00 00 	mov    rax,QWORD PTR [rbp+0x6e0]
   140004451:	48 89 c1             	mov    rcx,rax
   140004454:	e8 27 d0 ff ff       	call   140001480 <_ZN5rvm645crypt11decrypt_ptrEy>
   140004459:	48 89 85 d8 06 00 00 	mov    QWORD PTR [rbp+0x6d8],rax
   140004460:	48 8b 85 d8 06 00 00 	mov    rax,QWORD PTR [rbp+0x6d8]
   140004467:	48 89 85 d0 06 00 00 	mov    QWORD PTR [rbp+0x6d0],rax
   14000446e:	48 8b 85 d0 06 00 00 	mov    rax,QWORD PTR [rbp+0x6d0]
   140004475:	ff d0                	call   rax
   140004477:	90                   	nop
   140004478:	8b 85 20 0a 00 00    	mov    eax,DWORD PTR [rbp+0xa20]
   14000447e:	c1 e8 0c             	shr    eax,0xc
   140004481:	83 e0 07             	and    eax,0x7
   140004484:	88 85 b7 06 00 00    	mov    BYTE PTR [rbp+0x6b7],al
   14000448a:	0f b6 85 b7 06 00 00 	movzx  eax,BYTE PTR [rbp+0x6b7]
   140004491:	83 f8 02             	cmp    eax,0x2
   140004494:	74 1b                	je     1400044b1 <_ZN5rvm647decoder9vm_decodeEj+0x1170>
   140004496:	83 f8 02             	cmp    eax,0x2
   140004499:	0f 8f f2 00 00 00    	jg     140004591 <_ZN5rvm647decoder9vm_decodeEj+0x1250>
   14000449f:	85 c0                	test   eax,eax
   1400044a1:	0f 84 a1 00 00 00    	je     140004548 <_ZN5rvm647decoder9vm_decodeEj+0x1207>
   1400044a7:	83 f8 01             	cmp    eax,0x1
   1400044aa:	74 52                	je     1400044fe <_ZN5rvm647decoder9vm_decodeEj+0x11bd>
   1400044ac:	e9 e0 00 00 00       	jmp    140004591 <_ZN5rvm647decoder9vm_decodeEj+0x1250>
   1400044b1:	48 8b 05 50 bb 00 00 	mov    rax,QWORD PTR [rip+0xbb50]        # 140010008 <vmcs>
   1400044b8:	48 8b 40 08          	mov    rax,QWORD PTR [rax+0x8]
   1400044bc:	48 05 98 01 00 00    	add    rax,0x198
   1400044c2:	48 8b 00             	mov    rax,QWORD PTR [rax]
   1400044c5:	48 89 85 a8 06 00 00 	mov    QWORD PTR [rbp+0x6a8],rax
   1400044cc:	48 8b 85 a8 06 00 00 	mov    rax,QWORD PTR [rbp+0x6a8]
   1400044d3:	48 89 c1             	mov    rcx,rax
   1400044d6:	e8 a5 cf ff ff       	call   140001480 <_ZN5rvm645crypt11decrypt_ptrEy>
   1400044db:	48 89 85 a0 06 00 00 	mov    QWORD PTR [rbp+0x6a0],rax
   1400044e2:	48 8b 85 a0 06 00 00 	mov    rax,QWORD PTR [rbp+0x6a0]
   1400044e9:	48 89 85 98 06 00 00 	mov    QWORD PTR [rbp+0x698],rax
   1400044f0:	48 8b 85 98 06 00 00 	mov    rax,QWORD PTR [rbp+0x698]
   1400044f7:	ff d0                	call   rax
   1400044f9:	e9 93 00 00 00       	jmp    140004591 <_ZN5rvm647decoder9vm_decodeEj+0x1250>
   1400044fe:	48 8b 05 03 bb 00 00 	mov    rax,QWORD PTR [rip+0xbb03]        # 140010008 <vmcs>
   140004505:	48 8b 40 08          	mov    rax,QWORD PTR [rax+0x8]
   140004509:	48 05 a0 01 00 00    	add    rax,0x1a0
   14000450f:	48 8b 00             	mov    rax,QWORD PTR [rax]
   140004512:	48 89 85 90 06 00 00 	mov    QWORD PTR [rbp+0x690],rax
   140004519:	48 8b 85 90 06 00 00 	mov    rax,QWORD PTR [rbp+0x690]
   140004520:	48 89 c1             	mov    rcx,rax
   140004523:	e8 58 cf ff ff       	call   140001480 <_ZN5rvm645crypt11decrypt_ptrEy>
   140004528:	48 89 85 88 06 00 00 	mov    QWORD PTR [rbp+0x688],rax
   14000452f:	48 8b 85 88 06 00 00 	mov    rax,QWORD PTR [rbp+0x688]
   140004536:	48 89 85 80 06 00 00 	mov    QWORD PTR [rbp+0x680],rax
   14000453d:	48 8b 85 80 06 00 00 	mov    rax,QWORD PTR [rbp+0x680]
   140004544:	ff d0                	call   rax
   140004546:	eb 49                	jmp    140004591 <_ZN5rvm647decoder9vm_decodeEj+0x1250>
   140004548:	48 8b 05 b9 ba 00 00 	mov    rax,QWORD PTR [rip+0xbab9]        # 140010008 <vmcs>
   14000454f:	48 8b 40 08          	mov    rax,QWORD PTR [rax+0x8]
   140004553:	48 05 a8 01 00 00    	add    rax,0x1a8
   140004559:	48 8b 00             	mov    rax,QWORD PTR [rax]
   14000455c:	48 89 85 78 06 00 00 	mov    QWORD PTR [rbp+0x678],rax
   140004563:	48 8b 85 78 06 00 00 	mov    rax,QWORD PTR [rbp+0x678]
   14000456a:	48 89 c1             	mov    rcx,rax
   14000456d:	e8 0e cf ff ff       	call   140001480 <_ZN5rvm645crypt11decrypt_ptrEy>
   140004572:	48 89 85 70 06 00 00 	mov    QWORD PTR [rbp+0x670],rax
   140004579:	48 8b 85 70 06 00 00 	mov    rax,QWORD PTR [rbp+0x670]
   140004580:	48 89 85 68 06 00 00 	mov    QWORD PTR [rbp+0x668],rax
   140004587:	48 8b 85 68 06 00 00 	mov    rax,QWORD PTR [rbp+0x668]
   14000458e:	ff d0                	call   rax
   140004590:	90                   	nop
   140004591:	8b 85 20 0a 00 00    	mov    eax,DWORD PTR [rbp+0xa20]
   140004597:	c1 e8 0c             	shr    eax,0xc
   14000459a:	83 e0 07             	and    eax,0x7
   14000459d:	88 85 67 06 00 00    	mov    BYTE PTR [rbp+0x667],al
   1400045a3:	0f b6 85 67 06 00 00 	movzx  eax,BYTE PTR [rbp+0x667]
   1400045aa:	83 f8 01             	cmp    eax,0x1
   1400045ad:	75 49                	jne    1400045f8 <_ZN5rvm647decoder9vm_decodeEj+0x12b7>
   1400045af:	48 8b 05 52 ba 00 00 	mov    rax,QWORD PTR [rip+0xba52]        # 140010008 <vmcs>
   1400045b6:	48 8b 40 08          	mov    rax,QWORD PTR [rax+0x8]
   1400045ba:	48 05 00 01 00 00    	add    rax,0x100
   1400045c0:	48 8b 00             	mov    rax,QWORD PTR [rax]
   1400045c3:	48 89 85 58 06 00 00 	mov    QWORD PTR [rbp+0x658],rax
   1400045ca:	48 8b 85 58 06 00 00 	mov    rax,QWORD PTR [rbp+0x658]
   1400045d1:	48 89 c1             	mov    rcx,rax
   1400045d4:	e8 a7 ce ff ff       	call   140001480 <_ZN5rvm645crypt11decrypt_ptrEy>
   1400045d9:	48 89 85 50 06 00 00 	mov    QWORD PTR [rbp+0x650],rax
   1400045e0:	48 8b 85 50 06 00 00 	mov    rax,QWORD PTR [rbp+0x650]
   1400045e7:	48 89 85 48 06 00 00 	mov    QWORD PTR [rbp+0x648],rax
   1400045ee:	48 8b 85 48 06 00 00 	mov    rax,QWORD PTR [rbp+0x648]
   1400045f5:	ff d0                	call   rax
   1400045f7:	90                   	nop
   1400045f8:	8b 85 20 0a 00 00    	mov    eax,DWORD PTR [rbp+0xa20]
   1400045fe:	c1 e8 18             	shr    eax,0x18
   140004601:	83 e0 7f             	and    eax,0x7f
   140004604:	88 85 e7 05 00 00    	mov    BYTE PTR [rbp+0x5e7],al
   14000460a:	0f b6 85 e7 05 00 00 	movzx  eax,BYTE PTR [rbp+0x5e7]
   140004611:	c0 e8 02             	shr    al,0x2
   140004614:	83 e0 1f             	and    eax,0x1f
   140004617:	88 85 e6 05 00 00    	mov    BYTE PTR [rbp+0x5e6],al
   14000461d:	8b 85 20 0a 00 00    	mov    eax,DWORD PTR [rbp+0xa20]
   140004623:	c1 e8 0c             	shr    eax,0xc
   140004626:	83 e0 07             	and    eax,0x7
   140004629:	88 85 e5 05 00 00    	mov    BYTE PTR [rbp+0x5e5],al
   14000462f:	0f b6 85 e5 05 00 00 	movzx  eax,BYTE PTR [rbp+0x5e5]
   140004636:	83 f8 02             	cmp    eax,0x2
   140004639:	74 0e                	je     140004649 <_ZN5rvm647decoder9vm_decodeEj+0x1308>
   14000463b:	83 f8 03             	cmp    eax,0x3
   14000463e:	0f 84 7f 03 00 00    	je     1400049c3 <_ZN5rvm647decoder9vm_decodeEj+0x1682>
   140004644:	e9 f4 06 00 00       	jmp    140004d3d <_ZN5rvm647decoder9vm_decodeEj+0x19fc>
   140004649:	0f b6 85 e6 05 00 00 	movzx  eax,BYTE PTR [rbp+0x5e6]
   140004650:	83 f8 1c             	cmp    eax,0x1c
   140004653:	0f 87 6a 03 00 00    	ja     1400049c3 <_ZN5rvm647decoder9vm_decodeEj+0x1682>
   140004659:	89 c0                	mov    eax,eax
   14000465b:	48 8d 14 85 00 00 00 	lea    rdx,[rax*4+0x0]
   140004662:	00 
   140004663:	48 8d 05 42 cd 00 00 	lea    rax,[rip+0xcd42]        # 1400113ac <_ZL8encoding+0x16c>
   14000466a:	8b 04 02             	mov    eax,DWORD PTR [rdx+rax*1]
   14000466d:	48 98                	cdqe
   14000466f:	48 8d 15 36 cd 00 00 	lea    rdx,[rip+0xcd36]        # 1400113ac <_ZL8encoding+0x16c>
   140004676:	48 01 d0             	add    rax,rdx
   140004679:	ff e0                	jmp    rax
   14000467b:	48 8b 05 86 b9 00 00 	mov    rax,QWORD PTR [rip+0xb986]        # 140010008 <vmcs>
   140004682:	48 8b 40 08          	mov    rax,QWORD PTR [rax+0x8]
   140004686:	48 05 08 01 00 00    	add    rax,0x108
   14000468c:	48 8b 00             	mov    rax,QWORD PTR [rax]
   14000468f:	48 89 85 18 05 00 00 	mov    QWORD PTR [rbp+0x518],rax
   140004696:	48 8b 85 18 05 00 00 	mov    rax,QWORD PTR [rbp+0x518]
   14000469d:	48 89 c1             	mov    rcx,rax
   1400046a0:	e8 db cd ff ff       	call   140001480 <_ZN5rvm645crypt11decrypt_ptrEy>
   1400046a5:	48 89 85 10 05 00 00 	mov    QWORD PTR [rbp+0x510],rax
   1400046ac:	48 8b 85 10 05 00 00 	mov    rax,QWORD PTR [rbp+0x510]
   1400046b3:	48 89 85 08 05 00 00 	mov    QWORD PTR [rbp+0x508],rax
   1400046ba:	48 8b 85 08 05 00 00 	mov    rax,QWORD PTR [rbp+0x508]
   1400046c1:	ff d0                	call   rax
   1400046c3:	e9 fb 02 00 00       	jmp    1400049c3 <_ZN5rvm647decoder9vm_decodeEj+0x1682>
   1400046c8:	48 8b 05 39 b9 00 00 	mov    rax,QWORD PTR [rip+0xb939]        # 140010008 <vmcs>
   1400046cf:	48 8b 40 08          	mov    rax,QWORD PTR [rax+0x8]
   1400046d3:	48 05 b0 01 00 00    	add    rax,0x1b0
   1400046d9:	48 8b 00             	mov    rax,QWORD PTR [rax]
   1400046dc:	48 89 85 30 05 00 00 	mov    QWORD PTR [rbp+0x530],rax
   1400046e3:	48 8b 85 30 05 00 00 	mov    rax,QWORD PTR [rbp+0x530]
   1400046ea:	48 89 c1             	mov    rcx,rax
   1400046ed:	e8 8e cd ff ff       	call   140001480 <_ZN5rvm645crypt11decrypt_ptrEy>
   1400046f2:	48 89 85 28 05 00 00 	mov    QWORD PTR [rbp+0x528],rax
   1400046f9:	48 8b 85 28 05 00 00 	mov    rax,QWORD PTR [rbp+0x528]
   140004700:	48 89 85 20 05 00 00 	mov    QWORD PTR [rbp+0x520],rax
   140004707:	48 8b 85 20 05 00 00 	mov    rax,QWORD PTR [rbp+0x520]
   14000470e:	ff d0                	call   rax
   140004710:	e9 ae 02 00 00       	jmp    1400049c3 <_ZN5rvm647decoder9vm_decodeEj+0x1682>
   140004715:	48 8b 05 ec b8 00 00 	mov    rax,QWORD PTR [rip+0xb8ec]        # 140010008 <vmcs>
   14000471c:	48 8b 40 08          	mov    rax,QWORD PTR [rax+0x8]
   140004720:	48 05 b8 01 00 00    	add    rax,0x1b8
   140004726:	48 8b 00             	mov    rax,QWORD PTR [rax]
   140004729:	48 89 85 00 05 00 00 	mov    QWORD PTR [rbp+0x500],rax
   140004730:	48 8b 85 00 05 00 00 	mov    rax,QWORD PTR [rbp+0x500]
   140004737:	48 89 c1             	mov    rcx,rax
   14000473a:	e8 41 cd ff ff       	call   140001480 <_ZN5rvm645crypt11decrypt_ptrEy>
   14000473f:	48 89 85 f8 04 00 00 	mov    QWORD PTR [rbp+0x4f8],rax
   140004746:	48 8b 85 f8 04 00 00 	mov    rax,QWORD PTR [rbp+0x4f8]
   14000474d:	48 89 85 f0 04 00 00 	mov    QWORD PTR [rbp+0x4f0],rax
   140004754:	48 8b 85 f0 04 00 00 	mov    rax,QWORD PTR [rbp+0x4f0]
   14000475b:	ff d0                	call   rax
   14000475d:	e9 61 02 00 00       	jmp    1400049c3 <_ZN5rvm647decoder9vm_decodeEj+0x1682>
   140004762:	48 8b 05 9f b8 00 00 	mov    rax,QWORD PTR [rip+0xb89f]        # 140010008 <vmcs>
   140004769:	48 8b 40 08          	mov    rax,QWORD PTR [rax+0x8]
   14000476d:	48 05 c0 01 00 00    	add    rax,0x1c0
   140004773:	48 8b 00             	mov    rax,QWORD PTR [rax]
   140004776:	48 89 85 e8 04 00 00 	mov    QWORD PTR [rbp+0x4e8],rax
   14000477d:	48 8b 85 e8 04 00 00 	mov    rax,QWORD PTR [rbp+0x4e8]
   140004784:	48 89 c1             	mov    rcx,rax
   140004787:	e8 f4 cc ff ff       	call   140001480 <_ZN5rvm645crypt11decrypt_ptrEy>
   14000478c:	48 89 85 e0 04 00 00 	mov    QWORD PTR [rbp+0x4e0],rax
   140004793:	48 8b 85 e0 04 00 00 	mov    rax,QWORD PTR [rbp+0x4e0]
   14000479a:	48 89 85 d8 04 00 00 	mov    QWORD PTR [rbp+0x4d8],rax
   1400047a1:	48 8b 85 d8 04 00 00 	mov    rax,QWORD PTR [rbp+0x4d8]
   1400047a8:	ff d0                	call   rax
   1400047aa:	e9 14 02 00 00       	jmp    1400049c3 <_ZN5rvm647decoder9vm_decodeEj+0x1682>
   1400047af:	48 8b 05 52 b8 00 00 	mov    rax,QWORD PTR [rip+0xb852]        # 140010008 <vmcs>
   1400047b6:	48 8b 40 08          	mov    rax,QWORD PTR [rax+0x8]
   1400047ba:	48 05 c8 01 00 00    	add    rax,0x1c8
   1400047c0:	48 8b 00             	mov    rax,QWORD PTR [rax]
   1400047c3:	48 89 85 48 05 00 00 	mov    QWORD PTR [rbp+0x548],rax
   1400047ca:	48 8b 85 48 05 00 00 	mov    rax,QWORD PTR [rbp+0x548]
   1400047d1:	48 89 c1             	mov    rcx,rax
   1400047d4:	e8 a7 cc ff ff       	call   140001480 <_ZN5rvm645crypt11decrypt_ptrEy>
   1400047d9:	48 89 85 40 05 00 00 	mov    QWORD PTR [rbp+0x540],rax
   1400047e0:	48 8b 85 40 05 00 00 	mov    rax,QWORD PTR [rbp+0x540]
   1400047e7:	48 89 85 38 05 00 00 	mov    QWORD PTR [rbp+0x538],rax
   1400047ee:	48 8b 85 38 05 00 00 	mov    rax,QWORD PTR [rbp+0x538]
   1400047f5:	ff d0                	call   rax
   1400047f7:	e9 c7 01 00 00       	jmp    1400049c3 <_ZN5rvm647decoder9vm_decodeEj+0x1682>
   1400047fc:	48 8b 05 05 b8 00 00 	mov    rax,QWORD PTR [rip+0xb805]        # 140010008 <vmcs>
   140004803:	48 8b 40 08          	mov    rax,QWORD PTR [rax+0x8]
   140004807:	48 05 d0 01 00 00    	add    rax,0x1d0
   14000480d:	48 8b 00             	mov    rax,QWORD PTR [rax]
   140004810:	48 89 85 78 05 00 00 	mov    QWORD PTR [rbp+0x578],rax
   140004817:	48 8b 85 78 05 00 00 	mov    rax,QWORD PTR [rbp+0x578]
   14000481e:	48 89 c1             	mov    rcx,rax
   140004821:	e8 5a cc ff ff       	call   140001480 <_ZN5rvm645crypt11decrypt_ptrEy>
   140004826:	48 89 85 70 05 00 00 	mov    QWORD PTR [rbp+0x570],rax
   14000482d:	48 8b 85 70 05 00 00 	mov    rax,QWORD PTR [rbp+0x570]
   140004834:	48 89 85 68 05 00 00 	mov    QWORD PTR [rbp+0x568],rax
   14000483b:	48 8b 85 68 05 00 00 	mov    rax,QWORD PTR [rbp+0x568]
   140004842:	ff d0                	call   rax
   140004844:	e9 7a 01 00 00       	jmp    1400049c3 <_ZN5rvm647decoder9vm_decodeEj+0x1682>
   140004849:	48 8b 05 b8 b7 00 00 	mov    rax,QWORD PTR [rip+0xb7b8]        # 140010008 <vmcs>
   140004850:	48 8b 40 08          	mov    rax,QWORD PTR [rax+0x8]
   140004854:	48 05 d8 01 00 00    	add    rax,0x1d8
   14000485a:	48 8b 00             	mov    rax,QWORD PTR [rax]
   14000485d:	48 89 85 60 05 00 00 	mov    QWORD PTR [rbp+0x560],rax
   140004864:	48 8b 85 60 05 00 00 	mov    rax,QWORD PTR [rbp+0x560]
   14000486b:	48 89 c1             	mov    rcx,rax
   14000486e:	e8 0d cc ff ff       	call   140001480 <_ZN5rvm645crypt11decrypt_ptrEy>
   140004873:	48 89 85 58 05 00 00 	mov    QWORD PTR [rbp+0x558],rax
   14000487a:	48 8b 85 58 05 00 00 	mov    rax,QWORD PTR [rbp+0x558]
   140004881:	48 89 85 50 05 00 00 	mov    QWORD PTR [rbp+0x550],rax
   140004888:	48 8b 85 50 05 00 00 	mov    rax,QWORD PTR [rbp+0x550]
   14000488f:	ff d0                	call   rax
   140004891:	e9 2d 01 00 00       	jmp    1400049c3 <_ZN5rvm647decoder9vm_decodeEj+0x1682>
   140004896:	48 8b 05 6b b7 00 00 	mov    rax,QWORD PTR [rip+0xb76b]        # 140010008 <vmcs>
   14000489d:	48 8b 40 08          	mov    rax,QWORD PTR [rax+0x8]
   1400048a1:	48 05 e0 01 00 00    	add    rax,0x1e0
   1400048a7:	48 8b 00             	mov    rax,QWORD PTR [rax]
   1400048aa:	48 89 85 90 05 00 00 	mov    QWORD PTR [rbp+0x590],rax
   1400048b1:	48 8b 85 90 05 00 00 	mov    rax,QWORD PTR [rbp+0x590]
   1400048b8:	48 89 c1             	mov    rcx,rax
   1400048bb:	e8 c0 cb ff ff       	call   140001480 <_ZN5rvm645crypt11decrypt_ptrEy>
   1400048c0:	48 89 85 88 05 00 00 	mov    QWORD PTR [rbp+0x588],rax
   1400048c7:	48 8b 85 88 05 00 00 	mov    rax,QWORD PTR [rbp+0x588]
   1400048ce:	48 89 85 80 05 00 00 	mov    QWORD PTR [rbp+0x580],rax
   1400048d5:	48 8b 85 80 05 00 00 	mov    rax,QWORD PTR [rbp+0x580]
   1400048dc:	ff d0                	call   rax
   1400048de:	e9 e0 00 00 00       	jmp    1400049c3 <_ZN5rvm647decoder9vm_decodeEj+0x1682>
   1400048e3:	48 8b 05 1e b7 00 00 	mov    rax,QWORD PTR [rip+0xb71e]        # 140010008 <vmcs>
   1400048ea:	48 8b 40 08          	mov    rax,QWORD PTR [rax+0x8]
   1400048ee:	48 05 e8 01 00 00    	add    rax,0x1e8
   1400048f4:	48 8b 00             	mov    rax,QWORD PTR [rax]
   1400048f7:	48 89 85 a8 05 00 00 	mov    QWORD PTR [rbp+0x5a8],rax
   1400048fe:	48 8b 85 a8 05 00 00 	mov    rax,QWORD PTR [rbp+0x5a8]
   140004905:	48 89 c1             	mov    rcx,rax
   140004908:	e8 73 cb ff ff       	call   140001480 <_ZN5rvm645crypt11decrypt_ptrEy>
   14000490d:	48 89 85 a0 05 00 00 	mov    QWORD PTR [rbp+0x5a0],rax
   140004914:	48 8b 85 a0 05 00 00 	mov    rax,QWORD PTR [rbp+0x5a0]
   14000491b:	48 89 85 98 05 00 00 	mov    QWORD PTR [rbp+0x598],rax
   140004922:	48 8b 85 98 05 00 00 	mov    rax,QWORD PTR [rbp+0x598]
   140004929:	ff d0                	call   rax
   14000492b:	e9 93 00 00 00       	jmp    1400049c3 <_ZN5rvm647decoder9vm_decodeEj+0x1682>
   140004930:	48 8b 05 d1 b6 00 00 	mov    rax,QWORD PTR [rip+0xb6d1]        # 140010008 <vmcs>
   140004937:	48 8b 40 08          	mov    rax,QWORD PTR [rax+0x8]
   14000493b:	48 05 f0 01 00 00    	add    rax,0x1f0
   140004941:	48 8b 00             	mov    rax,QWORD PTR [rax]
   140004944:	48 89 85 c0 05 00 00 	mov    QWORD PTR [rbp+0x5c0],rax
   14000494b:	48 8b 85 c0 05 00 00 	mov    rax,QWORD PTR [rbp+0x5c0]
   140004952:	48 89 c1             	mov    rcx,rax
   140004955:	e8 26 cb ff ff       	call   140001480 <_ZN5rvm645crypt11decrypt_ptrEy>
   14000495a:	48 89 85 b8 05 00 00 	mov    QWORD PTR [rbp+0x5b8],rax
   140004961:	48 8b 85 b8 05 00 00 	mov    rax,QWORD PTR [rbp+0x5b8]
   140004968:	48 89 85 b0 05 00 00 	mov    QWORD PTR [rbp+0x5b0],rax
   14000496f:	48 8b 85 b0 05 00 00 	mov    rax,QWORD PTR [rbp+0x5b0]
   140004976:	ff d0                	call   rax
   140004978:	eb 49                	jmp    1400049c3 <_ZN5rvm647decoder9vm_decodeEj+0x1682>
   14000497a:	48 8b 05 87 b6 00 00 	mov    rax,QWORD PTR [rip+0xb687]        # 140010008 <vmcs>
   140004981:	48 8b 40 08          	mov    rax,QWORD PTR [rax+0x8]
   140004985:	48 05 f8 01 00 00    	add    rax,0x1f8
   14000498b:	48 8b 00             	mov    rax,QWORD PTR [rax]
   14000498e:	48 89 85 d8 05 00 00 	mov    QWORD PTR [rbp+0x5d8],rax
   140004995:	48 8b 85 d8 05 00 00 	mov    rax,QWORD PTR [rbp+0x5d8]
   14000499c:	48 89 c1             	mov    rcx,rax
   14000499f:	e8 dc ca ff ff       	call   140001480 <_ZN5rvm645crypt11decrypt_ptrEy>
   1400049a4:	48 89 85 d0 05 00 00 	mov    QWORD PTR [rbp+0x5d0],rax
   1400049ab:	48 8b 85 d0 05 00 00 	mov    rax,QWORD PTR [rbp+0x5d0]
   1400049b2:	48 89 85 c8 05 00 00 	mov    QWORD PTR [rbp+0x5c8],rax
   1400049b9:	48 8b 85 c8 05 00 00 	mov    rax,QWORD PTR [rbp+0x5c8]
   1400049c0:	ff d0                	call   rax
   1400049c2:	90                   	nop
   1400049c3:	0f b6 85 e6 05 00 00 	movzx  eax,BYTE PTR [rbp+0x5e6]
   1400049ca:	83 f8 1c             	cmp    eax,0x1c
   1400049cd:	0f 87 6a 03 00 00    	ja     140004d3d <_ZN5rvm647decoder9vm_decodeEj+0x19fc>
   1400049d3:	89 c0                	mov    eax,eax
   1400049d5:	48 8d 14 85 00 00 00 	lea    rdx,[rax*4+0x0]
   1400049dc:	00 
   1400049dd:	48 8d 05 3c ca 00 00 	lea    rax,[rip+0xca3c]        # 140011420 <_ZL8encoding+0x1e0>
   1400049e4:	8b 04 02             	mov    eax,DWORD PTR [rdx+rax*1]
   1400049e7:	48 98                	cdqe
   1400049e9:	48 8d 15 30 ca 00 00 	lea    rdx,[rip+0xca30]        # 140011420 <_ZL8encoding+0x1e0>
   1400049f0:	48 01 d0             	add    rax,rdx
   1400049f3:	ff e0                	jmp    rax
   1400049f5:	48 8b 05 0c b6 00 00 	mov    rax,QWORD PTR [rip+0xb60c]        # 140010008 <vmcs>
   1400049fc:	48 8b 40 08          	mov    rax,QWORD PTR [rax+0x8]
   140004a00:	48 05 10 01 00 00    	add    rax,0x110
   140004a06:	48 8b 00             	mov    rax,QWORD PTR [rax]
   140004a09:	48 89 85 10 04 00 00 	mov    QWORD PTR [rbp+0x410],rax
   140004a10:	48 8b 85 10 04 00 00 	mov    rax,QWORD PTR [rbp+0x410]
   140004a17:	48 89 c1             	mov    rcx,rax
   140004a1a:	e8 61 ca ff ff       	call   140001480 <_ZN5rvm645crypt11decrypt_ptrEy>
   140004a1f:	48 89 85 08 04 00 00 	mov    QWORD PTR [rbp+0x408],rax
   140004a26:	48 8b 85 08 04 00 00 	mov    rax,QWORD PTR [rbp+0x408]
   140004a2d:	48 89 85 00 04 00 00 	mov    QWORD PTR [rbp+0x400],rax
   140004a34:	48 8b 85 00 04 00 00 	mov    rax,QWORD PTR [rbp+0x400]
   140004a3b:	ff d0                	call   rax
   140004a3d:	e9 fb 02 00 00       	jmp    140004d3d <_ZN5rvm647decoder9vm_decodeEj+0x19fc>
   140004a42:	48 8b 05 bf b5 00 00 	mov    rax,QWORD PTR [rip+0xb5bf]        # 140010008 <vmcs>
   140004a49:	48 8b 40 08          	mov    rax,QWORD PTR [rax+0x8]
   140004a4d:	48 05 00 02 00 00    	add    rax,0x200
   140004a53:	48 8b 00             	mov    rax,QWORD PTR [rax]
   140004a56:	48 89 85 28 04 00 00 	mov    QWORD PTR [rbp+0x428],rax
   140004a5d:	48 8b 85 28 04 00 00 	mov    rax,QWORD PTR [rbp+0x428]
   140004a64:	48 89 c1             	mov    rcx,rax
   140004a67:	e8 14 ca ff ff       	call   140001480 <_ZN5rvm645crypt11decrypt_ptrEy>
   140004a6c:	48 89 85 20 04 00 00 	mov    QWORD PTR [rbp+0x420],rax
   140004a73:	48 8b 85 20 04 00 00 	mov    rax,QWORD PTR [rbp+0x420]
   140004a7a:	48 89 85 18 04 00 00 	mov    QWORD PTR [rbp+0x418],rax
   140004a81:	48 8b 85 18 04 00 00 	mov    rax,QWORD PTR [rbp+0x418]
   140004a88:	ff d0                	call   rax
   140004a8a:	e9 ae 02 00 00       	jmp    140004d3d <_ZN5rvm647decoder9vm_decodeEj+0x19fc>
   140004a8f:	48 8b 05 72 b5 00 00 	mov    rax,QWORD PTR [rip+0xb572]        # 140010008 <vmcs>
   140004a96:	48 8b 40 08          	mov    rax,QWORD PTR [rax+0x8]
   140004a9a:	48 05 08 02 00 00    	add    rax,0x208
   140004aa0:	48 8b 00             	mov    rax,QWORD PTR [rax]
   140004aa3:	48 89 85 f8 03 00 00 	mov    QWORD PTR [rbp+0x3f8],rax
   140004aaa:	48 8b 85 f8 03 00 00 	mov    rax,QWORD PTR [rbp+0x3f8]
   140004ab1:	48 89 c1             	mov    rcx,rax
   140004ab4:	e8 c7 c9 ff ff       	call   140001480 <_ZN5rvm645crypt11decrypt_ptrEy>
   140004ab9:	48 89 85 f0 03 00 00 	mov    QWORD PTR [rbp+0x3f0],rax
   140004ac0:	48 8b 85 f0 03 00 00 	mov    rax,QWORD PTR [rbp+0x3f0]
   140004ac7:	48 89 85 e8 03 00 00 	mov    QWORD PTR [rbp+0x3e8],rax
   140004ace:	48 8b 85 e8 03 00 00 	mov    rax,QWORD PTR [rbp+0x3e8]
   140004ad5:	ff d0                	call   rax
   140004ad7:	e9 61 02 00 00       	jmp    140004d3d <_ZN5rvm647decoder9vm_decodeEj+0x19fc>
   140004adc:	48 8b 05 25 b5 00 00 	mov    rax,QWORD PTR [rip+0xb525]        # 140010008 <vmcs>
   140004ae3:	48 8b 40 08          	mov    rax,QWORD PTR [rax+0x8]
   140004ae7:	48 05 10 02 00 00    	add    rax,0x210
   140004aed:	48 8b 00             	mov    rax,QWORD PTR [rax]
   140004af0:	48 89 85 e0 03 00 00 	mov    QWORD PTR [rbp+0x3e0],rax
   140004af7:	48 8b 85 e0 03 00 00 	mov    rax,QWORD PTR [rbp+0x3e0]
   140004afe:	48 89 c1             	mov    rcx,rax
   140004b01:	e8 7a c9 ff ff       	call   140001480 <_ZN5rvm645crypt11decrypt_ptrEy>
   140004b06:	48 89 85 d8 03 00 00 	mov    QWORD PTR [rbp+0x3d8],rax
   140004b0d:	48 8b 85 d8 03 00 00 	mov    rax,QWORD PTR [rbp+0x3d8]
   140004b14:	48 89 85 d0 03 00 00 	mov    QWORD PTR [rbp+0x3d0],rax
   140004b1b:	48 8b 85 d0 03 00 00 	mov    rax,QWORD PTR [rbp+0x3d0]
   140004b22:	ff d0                	call   rax
   140004b24:	e9 14 02 00 00       	jmp    140004d3d <_ZN5rvm647decoder9vm_decodeEj+0x19fc>
   140004b29:	48 8b 05 d8 b4 00 00 	mov    rax,QWORD PTR [rip+0xb4d8]        # 140010008 <vmcs>
   140004b30:	48 8b 40 08          	mov    rax,QWORD PTR [rax+0x8]
   140004b34:	48 05 18 02 00 00    	add    rax,0x218
   140004b3a:	48 8b 00             	mov    rax,QWORD PTR [rax]
   140004b3d:	48 89 85 40 04 00 00 	mov    QWORD PTR [rbp+0x440],rax
   140004b44:	48 8b 85 40 04 00 00 	mov    rax,QWORD PTR [rbp+0x440]
   140004b4b:	48 89 c1             	mov    rcx,rax
   140004b4e:	e8 2d c9 ff ff       	call   140001480 <_ZN5rvm645crypt11decrypt_ptrEy>
   140004b53:	48 89 85 38 04 00 00 	mov    QWORD PTR [rbp+0x438],rax
   140004b5a:	48 8b 85 38 04 00 00 	mov    rax,QWORD PTR [rbp+0x438]
   140004b61:	48 89 85 30 04 00 00 	mov    QWORD PTR [rbp+0x430],rax
   140004b68:	48 8b 85 30 04 00 00 	mov    rax,QWORD PTR [rbp+0x430]
   140004b6f:	ff d0                	call   rax
   140004b71:	e9 c7 01 00 00       	jmp    140004d3d <_ZN5rvm647decoder9vm_decodeEj+0x19fc>
   140004b76:	48 8b 05 8b b4 00 00 	mov    rax,QWORD PTR [rip+0xb48b]        # 140010008 <vmcs>
   140004b7d:	48 8b 40 08          	mov    rax,QWORD PTR [rax+0x8]
   140004b81:	48 05 20 02 00 00    	add    rax,0x220
   140004b87:	48 8b 00             	mov    rax,QWORD PTR [rax]
   140004b8a:	48 89 85 70 04 00 00 	mov    QWORD PTR [rbp+0x470],rax
   140004b91:	48 8b 85 70 04 00 00 	mov    rax,QWORD PTR [rbp+0x470]
   140004b98:	48 89 c1             	mov    rcx,rax
   140004b9b:	e8 e0 c8 ff ff       	call   140001480 <_ZN5rvm645crypt11decrypt_ptrEy>
   140004ba0:	48 89 85 68 04 00 00 	mov    QWORD PTR [rbp+0x468],rax
   140004ba7:	48 8b 85 68 04 00 00 	mov    rax,QWORD PTR [rbp+0x468]
   140004bae:	48 89 85 60 04 00 00 	mov    QWORD PTR [rbp+0x460],rax
   140004bb5:	48 8b 85 60 04 00 00 	mov    rax,QWORD PTR [rbp+0x460]
   140004bbc:	ff d0                	call   rax
   140004bbe:	e9 7a 01 00 00       	jmp    140004d3d <_ZN5rvm647decoder9vm_decodeEj+0x19fc>
   140004bc3:	48 8b 05 3e b4 00 00 	mov    rax,QWORD PTR [rip+0xb43e]        # 140010008 <vmcs>
   140004bca:	48 8b 40 08          	mov    rax,QWORD PTR [rax+0x8]
   140004bce:	48 05 28 02 00 00    	add    rax,0x228
   140004bd4:	48 8b 00             	mov    rax,QWORD PTR [rax]
   140004bd7:	48 89 85 58 04 00 00 	mov    QWORD PTR [rbp+0x458],rax
   140004bde:	48 8b 85 58 04 00 00 	mov    rax,QWORD PTR [rbp+0x458]
   140004be5:	48 89 c1             	mov    rcx,rax
   140004be8:	e8 93 c8 ff ff       	call   140001480 <_ZN5rvm645crypt11decrypt_ptrEy>
   140004bed:	48 89 85 50 04 00 00 	mov    QWORD PTR [rbp+0x450],rax
   140004bf4:	48 8b 85 50 04 00 00 	mov    rax,QWORD PTR [rbp+0x450]
   140004bfb:	48 89 85 48 04 00 00 	mov    QWORD PTR [rbp+0x448],rax
   140004c02:	48 8b 85 48 04 00 00 	mov    rax,QWORD PTR [rbp+0x448]
   140004c09:	ff d0                	call   rax
   140004c0b:	e9 2d 01 00 00       	jmp    140004d3d <_ZN5rvm647decoder9vm_decodeEj+0x19fc>
   140004c10:	48 8b 05 f1 b3 00 00 	mov    rax,QWORD PTR [rip+0xb3f1]        # 140010008 <vmcs>
   140004c17:	48 8b 40 08          	mov    rax,QWORD PTR [rax+0x8]
   140004c1b:	48 05 30 02 00 00    	add    rax,0x230
   140004c21:	48 8b 00             	mov    rax,QWORD PTR [rax]
   140004c24:	48 89 85 88 04 00 00 	mov    QWORD PTR [rbp+0x488],rax
   140004c2b:	48 8b 85 88 04 00 00 	mov    rax,QWORD PTR [rbp+0x488]
   140004c32:	48 89 c1             	mov    rcx,rax
   140004c35:	e8 46 c8 ff ff       	call   140001480 <_ZN5rvm645crypt11decrypt_ptrEy>
   140004c3a:	48 89 85 80 04 00 00 	mov    QWORD PTR [rbp+0x480],rax
   140004c41:	48 8b 85 80 04 00 00 	mov    rax,QWORD PTR [rbp+0x480]
   140004c48:	48 89 85 78 04 00 00 	mov    QWORD PTR [rbp+0x478],rax
   140004c4f:	48 8b 85 78 04 00 00 	mov    rax,QWORD PTR [rbp+0x478]
   140004c56:	ff d0                	call   rax
   140004c58:	e9 e0 00 00 00       	jmp    140004d3d <_ZN5rvm647decoder9vm_decodeEj+0x19fc>
   140004c5d:	48 8b 05 a4 b3 00 00 	mov    rax,QWORD PTR [rip+0xb3a4]        # 140010008 <vmcs>
   140004c64:	48 8b 40 08          	mov    rax,QWORD PTR [rax+0x8]
   140004c68:	48 05 38 02 00 00    	add    rax,0x238
   140004c6e:	48 8b 00             	mov    rax,QWORD PTR [rax]
   140004c71:	48 89 85 a0 04 00 00 	mov    QWORD PTR [rbp+0x4a0],rax
   140004c78:	48 8b 85 a0 04 00 00 	mov    rax,QWORD PTR [rbp+0x4a0]
   140004c7f:	48 89 c1             	mov    rcx,rax
   140004c82:	e8 f9 c7 ff ff       	call   140001480 <_ZN5rvm645crypt11decrypt_ptrEy>
   140004c87:	48 89 85 98 04 00 00 	mov    QWORD PTR [rbp+0x498],rax
   140004c8e:	48 8b 85 98 04 00 00 	mov    rax,QWORD PTR [rbp+0x498]
   140004c95:	48 89 85 90 04 00 00 	mov    QWORD PTR [rbp+0x490],rax
   140004c9c:	48 8b 85 90 04 00 00 	mov    rax,QWORD PTR [rbp+0x490]
   140004ca3:	ff d0                	call   rax
   140004ca5:	e9 93 00 00 00       	jmp    140004d3d <_ZN5rvm647decoder9vm_decodeEj+0x19fc>
   140004caa:	48 8b 05 57 b3 00 00 	mov    rax,QWORD PTR [rip+0xb357]        # 140010008 <vmcs>
   140004cb1:	48 8b 40 08          	mov    rax,QWORD PTR [rax+0x8]
   140004cb5:	48 05 40 02 00 00    	add    rax,0x240
   140004cbb:	48 8b 00             	mov    rax,QWORD PTR [rax]
   140004cbe:	48 89 85 b8 04 00 00 	mov    QWORD PTR [rbp+0x4b8],rax
   140004cc5:	48 8b 85 b8 04 00 00 	mov    rax,QWORD PTR [rbp+0x4b8]
   140004ccc:	48 89 c1             	mov    rcx,rax
   140004ccf:	e8 ac c7 ff ff       	call   140001480 <_ZN5rvm645crypt11decrypt_ptrEy>
   140004cd4:	48 89 85 b0 04 00 00 	mov    QWORD PTR [rbp+0x4b0],rax
   140004cdb:	48 8b 85 b0 04 00 00 	mov    rax,QWORD PTR [rbp+0x4b0]
   140004ce2:	48 89 85 a8 04 00 00 	mov    QWORD PTR [rbp+0x4a8],rax
   140004ce9:	48 8b 85 a8 04 00 00 	mov    rax,QWORD PTR [rbp+0x4a8]
   140004cf0:	ff d0                	call   rax
   140004cf2:	eb 49                	jmp    140004d3d <_ZN5rvm647decoder9vm_decodeEj+0x19fc>
   140004cf4:	48 8b 05 0d b3 00 00 	mov    rax,QWORD PTR [rip+0xb30d]        # 140010008 <vmcs>
   140004cfb:	48 8b 40 08          	mov    rax,QWORD PTR [rax+0x8]
   140004cff:	48 05 48 02 00 00    	add    rax,0x248
   140004d05:	48 8b 00             	mov    rax,QWORD PTR [rax]
   140004d08:	48 89 85 d0 04 00 00 	mov    QWORD PTR [rbp+0x4d0],rax
   140004d0f:	48 8b 85 d0 04 00 00 	mov    rax,QWORD PTR [rbp+0x4d0]
   140004d16:	48 89 c1             	mov    rcx,rax
   140004d19:	e8 62 c7 ff ff       	call   140001480 <_ZN5rvm645crypt11decrypt_ptrEy>
   140004d1e:	48 89 85 c8 04 00 00 	mov    QWORD PTR [rbp+0x4c8],rax
   140004d25:	48 8b 85 c8 04 00 00 	mov    rax,QWORD PTR [rbp+0x4c8]
   140004d2c:	48 89 85 c0 04 00 00 	mov    QWORD PTR [rbp+0x4c0],rax
   140004d33:	48 8b 85 c0 04 00 00 	mov    rax,QWORD PTR [rbp+0x4c0]
   140004d3a:	ff d0                	call   rax
   140004d3c:	90                   	nop
   140004d3d:	8b 85 20 0a 00 00    	mov    eax,DWORD PTR [rbp+0xa20]
   140004d43:	c1 e8 18             	shr    eax,0x18
   140004d46:	83 e0 7f             	and    eax,0x7f
   140004d49:	88 85 cf 03 00 00    	mov    BYTE PTR [rbp+0x3cf],al
   140004d4f:	8b 85 20 0a 00 00    	mov    eax,DWORD PTR [rbp+0xa20]
   140004d55:	c1 e8 0c             	shr    eax,0xc
   140004d58:	83 e0 07             	and    eax,0x7
   140004d5b:	88 85 ce 03 00 00    	mov    BYTE PTR [rbp+0x3ce],al
   140004d61:	0f b6 85 ce 03 00 00 	movzx  eax,BYTE PTR [rbp+0x3ce]
   140004d68:	83 f8 07             	cmp    eax,0x7
   140004d6b:	0f 87 5d 03 00 00    	ja     1400050ce <_ZN5rvm647decoder9vm_decodeEj+0x1d8d>
   140004d71:	89 c0                	mov    eax,eax
   140004d73:	48 8d 14 85 00 00 00 	lea    rdx,[rax*4+0x0]
   140004d7a:	00 
   140004d7b:	48 8d 05 12 c7 00 00 	lea    rax,[rip+0xc712]        # 140011494 <_ZL8encoding+0x254>
   140004d82:	8b 04 02             	mov    eax,DWORD PTR [rdx+rax*1]
   140004d85:	48 98                	cdqe
   140004d87:	48 8d 15 06 c7 00 00 	lea    rdx,[rip+0xc706]        # 140011494 <_ZL8encoding+0x254>
   140004d8e:	48 01 d0             	add    rax,rdx
   140004d91:	ff e0                	jmp    rax
   140004d93:	0f b6 85 cf 03 00 00 	movzx  eax,BYTE PTR [rbp+0x3cf]
   140004d9a:	83 f8 20             	cmp    eax,0x20
   140004d9d:	74 68                	je     140004e07 <_ZN5rvm647decoder9vm_decodeEj+0x1ac6>
   140004d9f:	83 f8 20             	cmp    eax,0x20
   140004da2:	0f 8f f2 00 00 00    	jg     140004e9a <_ZN5rvm647decoder9vm_decodeEj+0x1b59>
   140004da8:	85 c0                	test   eax,eax
   140004daa:	74 0e                	je     140004dba <_ZN5rvm647decoder9vm_decodeEj+0x1a79>
   140004dac:	83 f8 01             	cmp    eax,0x1
   140004daf:	0f 84 9c 00 00 00    	je     140004e51 <_ZN5rvm647decoder9vm_decodeEj+0x1b10>
   140004db5:	e9 e0 00 00 00       	jmp    140004e9a <_ZN5rvm647decoder9vm_decodeEj+0x1b59>
   140004dba:	48 8b 05 47 b2 00 00 	mov    rax,QWORD PTR [rip+0xb247]        # 140010008 <vmcs>
   140004dc1:	48 8b 40 08          	mov    rax,QWORD PTR [rax+0x8]
   140004dc5:	48 05 50 02 00 00    	add    rax,0x250
   140004dcb:	48 8b 00             	mov    rax,QWORD PTR [rax]
   140004dce:	48 89 85 48 03 00 00 	mov    QWORD PTR [rbp+0x348],rax
   140004dd5:	48 8b 85 48 03 00 00 	mov    rax,QWORD PTR [rbp+0x348]
   140004ddc:	48 89 c1             	mov    rcx,rax
   140004ddf:	e8 9c c6 ff ff       	call   140001480 <_ZN5rvm645crypt11decrypt_ptrEy>
   140004de4:	48 89 85 40 03 00 00 	mov    QWORD PTR [rbp+0x340],rax
   140004deb:	48 8b 85 40 03 00 00 	mov    rax,QWORD PTR [rbp+0x340]
   140004df2:	48 89 85 38 03 00 00 	mov    QWORD PTR [rbp+0x338],rax
   140004df9:	48 8b 85 38 03 00 00 	mov    rax,QWORD PTR [rbp+0x338]
   140004e00:	ff d0                	call   rax
   140004e02:	e9 93 00 00 00       	jmp    140004e9a <_ZN5rvm647decoder9vm_decodeEj+0x1b59>
   140004e07:	48 8b 05 fa b1 00 00 	mov    rax,QWORD PTR [rip+0xb1fa]        # 140010008 <vmcs>
   140004e0e:	48 8b 40 08          	mov    rax,QWORD PTR [rax+0x8]
   140004e12:	48 05 58 02 00 00    	add    rax,0x258
   140004e18:	48 8b 00             	mov    rax,QWORD PTR [rax]
   140004e1b:	48 89 85 78 03 00 00 	mov    QWORD PTR [rbp+0x378],rax
   140004e22:	48 8b 85 78 03 00 00 	mov    rax,QWORD PTR [rbp+0x378]
   140004e29:	48 89 c1             	mov    rcx,rax
   140004e2c:	e8 4f c6 ff ff       	call   140001480 <_ZN5rvm645crypt11decrypt_ptrEy>
   140004e31:	48 89 85 70 03 00 00 	mov    QWORD PTR [rbp+0x370],rax
   140004e38:	48 8b 85 70 03 00 00 	mov    rax,QWORD PTR [rbp+0x370]
   140004e3f:	48 89 85 68 03 00 00 	mov    QWORD PTR [rbp+0x368],rax
   140004e46:	48 8b 85 68 03 00 00 	mov    rax,QWORD PTR [rbp+0x368]
   140004e4d:	ff d0                	call   rax
   140004e4f:	eb 49                	jmp    140004e9a <_ZN5rvm647decoder9vm_decodeEj+0x1b59>
   140004e51:	48 8b 05 b0 b1 00 00 	mov    rax,QWORD PTR [rip+0xb1b0]        # 140010008 <vmcs>
   140004e58:	48 8b 40 08          	mov    rax,QWORD PTR [rax+0x8]
   140004e5c:	48 05 60 02 00 00    	add    rax,0x260
   140004e62:	48 8b 00             	mov    rax,QWORD PTR [rax]
   140004e65:	48 89 85 60 03 00 00 	mov    QWORD PTR [rbp+0x360],rax
   140004e6c:	48 8b 85 60 03 00 00 	mov    rax,QWORD PTR [rbp+0x360]
   140004e73:	48 89 c1             	mov    rcx,rax
   140004e76:	e8 05 c6 ff ff       	call   140001480 <_ZN5rvm645crypt11decrypt_ptrEy>
   140004e7b:	48 89 85 58 03 00 00 	mov    QWORD PTR [rbp+0x358],rax
   140004e82:	48 8b 85 58 03 00 00 	mov    rax,QWORD PTR [rbp+0x358]
   140004e89:	48 89 85 50 03 00 00 	mov    QWORD PTR [rbp+0x350],rax
   140004e90:	48 8b 85 50 03 00 00 	mov    rax,QWORD PTR [rbp+0x350]
   140004e97:	ff d0                	call   rax
   140004e99:	90                   	nop
   140004e9a:	0f b6 85 cf 03 00 00 	movzx  eax,BYTE PTR [rbp+0x3cf]
   140004ea1:	83 f8 20             	cmp    eax,0x20
   140004ea4:	74 68                	je     140004f0e <_ZN5rvm647decoder9vm_decodeEj+0x1bcd>
   140004ea6:	83 f8 20             	cmp    eax,0x20
   140004ea9:	0f 8f f2 00 00 00    	jg     140004fa1 <_ZN5rvm647decoder9vm_decodeEj+0x1c60>
   140004eaf:	85 c0                	test   eax,eax
   140004eb1:	74 0e                	je     140004ec1 <_ZN5rvm647decoder9vm_decodeEj+0x1b80>
   140004eb3:	83 f8 01             	cmp    eax,0x1
   140004eb6:	0f 84 9c 00 00 00    	je     140004f58 <_ZN5rvm647decoder9vm_decodeEj+0x1c17>
   140004ebc:	e9 e0 00 00 00       	jmp    140004fa1 <_ZN5rvm647decoder9vm_decodeEj+0x1c60>
   140004ec1:	48 8b 05 40 b1 00 00 	mov    rax,QWORD PTR [rip+0xb140]        # 140010008 <vmcs>
   140004ec8:	48 8b 40 08          	mov    rax,QWORD PTR [rax+0x8]
   140004ecc:	48 05 68 02 00 00    	add    rax,0x268
   140004ed2:	48 8b 00             	mov    rax,QWORD PTR [rax]
   140004ed5:	48 89 85 00 03 00 00 	mov    QWORD PTR [rbp+0x300],rax
   140004edc:	48 8b 85 00 03 00 00 	mov    rax,QWORD PTR [rbp+0x300]
   140004ee3:	48 89 c1             	mov    rcx,rax
   140004ee6:	e8 95 c5 ff ff       	call   140001480 <_ZN5rvm645crypt11decrypt_ptrEy>
   140004eeb:	48 89 85 f8 02 00 00 	mov    QWORD PTR [rbp+0x2f8],rax
   140004ef2:	48 8b 85 f8 02 00 00 	mov    rax,QWORD PTR [rbp+0x2f8]
   140004ef9:	48 89 85 f0 02 00 00 	mov    QWORD PTR [rbp+0x2f0],rax
   140004f00:	48 8b 85 f0 02 00 00 	mov    rax,QWORD PTR [rbp+0x2f0]
   140004f07:	ff d0                	call   rax
   140004f09:	e9 93 00 00 00       	jmp    140004fa1 <_ZN5rvm647decoder9vm_decodeEj+0x1c60>
   140004f0e:	48 8b 05 f3 b0 00 00 	mov    rax,QWORD PTR [rip+0xb0f3]        # 140010008 <vmcs>
   140004f15:	48 8b 40 08          	mov    rax,QWORD PTR [rax+0x8]
   140004f19:	48 05 70 02 00 00    	add    rax,0x270
   140004f1f:	48 8b 00             	mov    rax,QWORD PTR [rax]
   140004f22:	48 89 85 30 03 00 00 	mov    QWORD PTR [rbp+0x330],rax
   140004f29:	48 8b 85 30 03 00 00 	mov    rax,QWORD PTR [rbp+0x330]
   140004f30:	48 89 c1             	mov    rcx,rax
   140004f33:	e8 48 c5 ff ff       	call   140001480 <_ZN5rvm645crypt11decrypt_ptrEy>
   140004f38:	48 89 85 28 03 00 00 	mov    QWORD PTR [rbp+0x328],rax
   140004f3f:	48 8b 85 28 03 00 00 	mov    rax,QWORD PTR [rbp+0x328]
   140004f46:	48 89 85 20 03 00 00 	mov    QWORD PTR [rbp+0x320],rax
   140004f4d:	48 8b 85 20 03 00 00 	mov    rax,QWORD PTR [rbp+0x320]
   140004f54:	ff d0                	call   rax
   140004f56:	eb 49                	jmp    140004fa1 <_ZN5rvm647decoder9vm_decodeEj+0x1c60>
   140004f58:	48 8b 05 a9 b0 00 00 	mov    rax,QWORD PTR [rip+0xb0a9]        # 140010008 <vmcs>
   140004f5f:	48 8b 40 08          	mov    rax,QWORD PTR [rax+0x8]
   140004f63:	48 05 78 02 00 00    	add    rax,0x278
   140004f69:	48 8b 00             	mov    rax,QWORD PTR [rax]
   140004f6c:	48 89 85 18 03 00 00 	mov    QWORD PTR [rbp+0x318],rax
   140004f73:	48 8b 85 18 03 00 00 	mov    rax,QWORD PTR [rbp+0x318]
   140004f7a:	48 89 c1             	mov    rcx,rax
   140004f7d:	e8 fe c4 ff ff       	call   140001480 <_ZN5rvm645crypt11decrypt_ptrEy>
   140004f82:	48 89 85 10 03 00 00 	mov    QWORD PTR [rbp+0x310],rax
   140004f89:	48 8b 85 10 03 00 00 	mov    rax,QWORD PTR [rbp+0x310]
   140004f90:	48 89 85 08 03 00 00 	mov    QWORD PTR [rbp+0x308],rax
   140004f97:	48 8b 85 08 03 00 00 	mov    rax,QWORD PTR [rbp+0x308]
   140004f9e:	ff d0                	call   rax
   140004fa0:	90                   	nop
   140004fa1:	48 8b 05 60 b0 00 00 	mov    rax,QWORD PTR [rip+0xb060]        # 140010008 <vmcs>
   140004fa8:	48 8b 40 08          	mov    rax,QWORD PTR [rax+0x8]
   140004fac:	48 05 80 02 00 00    	add    rax,0x280
   140004fb2:	48 8b 00             	mov    rax,QWORD PTR [rax]
   140004fb5:	48 89 85 e8 02 00 00 	mov    QWORD PTR [rbp+0x2e8],rax
   140004fbc:	48 8b 85 e8 02 00 00 	mov    rax,QWORD PTR [rbp+0x2e8]
   140004fc3:	48 89 c1             	mov    rcx,rax
   140004fc6:	e8 b5 c4 ff ff       	call   140001480 <_ZN5rvm645crypt11decrypt_ptrEy>
   140004fcb:	48 89 85 e0 02 00 00 	mov    QWORD PTR [rbp+0x2e0],rax
   140004fd2:	48 8b 85 e0 02 00 00 	mov    rax,QWORD PTR [rbp+0x2e0]
   140004fd9:	48 89 85 d8 02 00 00 	mov    QWORD PTR [rbp+0x2d8],rax
   140004fe0:	48 8b 85 d8 02 00 00 	mov    rax,QWORD PTR [rbp+0x2d8]
   140004fe7:	ff d0                	call   rax
   140004fe9:	e9 e0 00 00 00       	jmp    1400050ce <_ZN5rvm647decoder9vm_decodeEj+0x1d8d>
   140004fee:	48 8b 05 13 b0 00 00 	mov    rax,QWORD PTR [rip+0xb013]        # 140010008 <vmcs>
   140004ff5:	48 8b 40 08          	mov    rax,QWORD PTR [rax+0x8]
   140004ff9:	48 05 88 02 00 00    	add    rax,0x288
   140004fff:	48 8b 00             	mov    rax,QWORD PTR [rax]
   140005002:	48 89 85 90 03 00 00 	mov    QWORD PTR [rbp+0x390],rax
   140005009:	48 8b 85 90 03 00 00 	mov    rax,QWORD PTR [rbp+0x390]
   140005010:	48 89 c1             	mov    rcx,rax
   140005013:	e8 68 c4 ff ff       	call   140001480 <_ZN5rvm645crypt11decrypt_ptrEy>
   140005018:	48 89 85 88 03 00 00 	mov    QWORD PTR [rbp+0x388],rax
   14000501f:	48 8b 85 88 03 00 00 	mov    rax,QWORD PTR [rbp+0x388]
   140005026:	48 89 85 80 03 00 00 	mov    QWORD PTR [rbp+0x380],rax
   14000502d:	48 8b 85 80 03 00 00 	mov    rax,QWORD PTR [rbp+0x380]
   140005034:	ff d0                	call   rax
   140005036:	e9 93 00 00 00       	jmp    1400050ce <_ZN5rvm647decoder9vm_decodeEj+0x1d8d>
   14000503b:	48 8b 05 c6 af 00 00 	mov    rax,QWORD PTR [rip+0xafc6]        # 140010008 <vmcs>
   140005042:	48 8b 40 08          	mov    rax,QWORD PTR [rax+0x8]
   140005046:	48 05 90 02 00 00    	add    rax,0x290
   14000504c:	48 8b 00             	mov    rax,QWORD PTR [rax]
   14000504f:	48 89 85 a8 03 00 00 	mov    QWORD PTR [rbp+0x3a8],rax
   140005056:	48 8b 85 a8 03 00 00 	mov    rax,QWORD PTR [rbp+0x3a8]
   14000505d:	48 89 c1             	mov    rcx,rax
   140005060:	e8 1b c4 ff ff       	call   140001480 <_ZN5rvm645crypt11decrypt_ptrEy>
   140005065:	48 89 85 a0 03 00 00 	mov    QWORD PTR [rbp+0x3a0],rax
   14000506c:	48 8b 85 a0 03 00 00 	mov    rax,QWORD PTR [rbp+0x3a0]
   140005073:	48 89 85 98 03 00 00 	mov    QWORD PTR [rbp+0x398],rax
   14000507a:	48 8b 85 98 03 00 00 	mov    rax,QWORD PTR [rbp+0x398]
   140005081:	ff d0                	call   rax
   140005083:	eb 49                	jmp    1400050ce <_ZN5rvm647decoder9vm_decodeEj+0x1d8d>
   140005085:	48 8b 05 7c af 00 00 	mov    rax,QWORD PTR [rip+0xaf7c]        # 140010008 <vmcs>
   14000508c:	48 8b 40 08          	mov    rax,QWORD PTR [rax+0x8]
   140005090:	48 05 98 02 00 00    	add    rax,0x298
   140005096:	48 8b 00             	mov    rax,QWORD PTR [rax]
   140005099:	48 89 85 c0 03 00 00 	mov    QWORD PTR [rbp+0x3c0],rax
   1400050a0:	48 8b 85 c0 03 00 00 	mov    rax,QWORD PTR [rbp+0x3c0]
   1400050a7:	48 89 c1             	mov    rcx,rax
   1400050aa:	e8 d1 c3 ff ff       	call   140001480 <_ZN5rvm645crypt11decrypt_ptrEy>
   1400050af:	48 89 85 b8 03 00 00 	mov    QWORD PTR [rbp+0x3b8],rax
   1400050b6:	48 8b 85 b8 03 00 00 	mov    rax,QWORD PTR [rbp+0x3b8]
   1400050bd:	48 89 85 b0 03 00 00 	mov    QWORD PTR [rbp+0x3b0],rax
   1400050c4:	48 8b 85 b0 03 00 00 	mov    rax,QWORD PTR [rbp+0x3b0]
   1400050cb:	ff d0                	call   rax
   1400050cd:	90                   	nop
   1400050ce:	8b 85 20 0a 00 00    	mov    eax,DWORD PTR [rbp+0xa20]
   1400050d4:	c1 e8 18             	shr    eax,0x18
   1400050d7:	83 e0 7f             	and    eax,0x7f
   1400050da:	88 85 d7 02 00 00    	mov    BYTE PTR [rbp+0x2d7],al
   1400050e0:	8b 85 20 0a 00 00    	mov    eax,DWORD PTR [rbp+0xa20]
   1400050e6:	c1 e8 0c             	shr    eax,0xc
   1400050e9:	83 e0 07             	and    eax,0x7
   1400050ec:	88 85 d6 02 00 00    	mov    BYTE PTR [rbp+0x2d6],al
   1400050f2:	0f b6 85 d6 02 00 00 	movzx  eax,BYTE PTR [rbp+0x2d6]
   1400050f9:	83 f8 07             	cmp    eax,0x7
   1400050fc:	0f 87 20 06 00 00    	ja     140005722 <_ZN5rvm647decoder9vm_decodeEj+0x23e1>
   140005102:	89 c0                	mov    eax,eax
   140005104:	48 8d 14 85 00 00 00 	lea    rdx,[rax*4+0x0]
   14000510b:	00 
   14000510c:	48 8d 05 a1 c3 00 00 	lea    rax,[rip+0xc3a1]        # 1400114b4 <_ZL8encoding+0x274>
   140005113:	8b 04 02             	mov    eax,DWORD PTR [rdx+rax*1]
   140005116:	48 98                	cdqe
   140005118:	48 8d 15 95 c3 00 00 	lea    rdx,[rip+0xc395]        # 1400114b4 <_ZL8encoding+0x274>
   14000511f:	48 01 d0             	add    rax,rdx
   140005122:	ff e0                	jmp    rax
   140005124:	0f b6 85 d7 02 00 00 	movzx  eax,BYTE PTR [rbp+0x2d7]
   14000512b:	83 f8 20             	cmp    eax,0x20
   14000512e:	74 68                	je     140005198 <_ZN5rvm647decoder9vm_decodeEj+0x1e57>
   140005130:	83 f8 20             	cmp    eax,0x20
   140005133:	0f 8f f2 00 00 00    	jg     14000522b <_ZN5rvm647decoder9vm_decodeEj+0x1eea>
   140005139:	85 c0                	test   eax,eax
   14000513b:	74 0e                	je     14000514b <_ZN5rvm647decoder9vm_decodeEj+0x1e0a>
   14000513d:	83 f8 01             	cmp    eax,0x1
   140005140:	0f 84 9c 00 00 00    	je     1400051e2 <_ZN5rvm647decoder9vm_decodeEj+0x1ea1>
   140005146:	e9 e0 00 00 00       	jmp    14000522b <_ZN5rvm647decoder9vm_decodeEj+0x1eea>
   14000514b:	48 8b 05 b6 ae 00 00 	mov    rax,QWORD PTR [rip+0xaeb6]        # 140010008 <vmcs>
   140005152:	48 8b 40 08          	mov    rax,QWORD PTR [rax+0x8]
   140005156:	48 05 a0 02 00 00    	add    rax,0x2a0
   14000515c:	48 8b 00             	mov    rax,QWORD PTR [rax]
   14000515f:	48 89 85 98 02 00 00 	mov    QWORD PTR [rbp+0x298],rax
   140005166:	48 8b 85 98 02 00 00 	mov    rax,QWORD PTR [rbp+0x298]
   14000516d:	48 89 c1             	mov    rcx,rax
   140005170:	e8 0b c3 ff ff       	call   140001480 <_ZN5rvm645crypt11decrypt_ptrEy>
   140005175:	48 89 85 90 02 00 00 	mov    QWORD PTR [rbp+0x290],rax
   14000517c:	48 8b 85 90 02 00 00 	mov    rax,QWORD PTR [rbp+0x290]
   140005183:	48 89 85 88 02 00 00 	mov    QWORD PTR [rbp+0x288],rax
   14000518a:	48 8b 85 88 02 00 00 	mov    rax,QWORD PTR [rbp+0x288]
   140005191:	ff d0                	call   rax
   140005193:	e9 93 00 00 00       	jmp    14000522b <_ZN5rvm647decoder9vm_decodeEj+0x1eea>
   140005198:	48 8b 05 69 ae 00 00 	mov    rax,QWORD PTR [rip+0xae69]        # 140010008 <vmcs>
   14000519f:	48 8b 40 08          	mov    rax,QWORD PTR [rax+0x8]
   1400051a3:	48 05 a8 02 00 00    	add    rax,0x2a8
   1400051a9:	48 8b 00             	mov    rax,QWORD PTR [rax]
   1400051ac:	48 89 85 c8 02 00 00 	mov    QWORD PTR [rbp+0x2c8],rax
   1400051b3:	48 8b 85 c8 02 00 00 	mov    rax,QWORD PTR [rbp+0x2c8]
   1400051ba:	48 89 c1             	mov    rcx,rax
   1400051bd:	e8 be c2 ff ff       	call   140001480 <_ZN5rvm645crypt11decrypt_ptrEy>
   1400051c2:	48 89 85 c0 02 00 00 	mov    QWORD PTR [rbp+0x2c0],rax
   1400051c9:	48 8b 85 c0 02 00 00 	mov    rax,QWORD PTR [rbp+0x2c0]
   1400051d0:	48 89 85 b8 02 00 00 	mov    QWORD PTR [rbp+0x2b8],rax
   1400051d7:	48 8b 85 b8 02 00 00 	mov    rax,QWORD PTR [rbp+0x2b8]
   1400051de:	ff d0                	call   rax
   1400051e0:	eb 49                	jmp    14000522b <_ZN5rvm647decoder9vm_decodeEj+0x1eea>
   1400051e2:	48 8b 05 1f ae 00 00 	mov    rax,QWORD PTR [rip+0xae1f]        # 140010008 <vmcs>
   1400051e9:	48 8b 40 08          	mov    rax,QWORD PTR [rax+0x8]
   1400051ed:	48 05 b0 02 00 00    	add    rax,0x2b0
   1400051f3:	48 8b 00             	mov    rax,QWORD PTR [rax]
   1400051f6:	48 89 85 b0 02 00 00 	mov    QWORD PTR [rbp+0x2b0],rax
   1400051fd:	48 8b 85 b0 02 00 00 	mov    rax,QWORD PTR [rbp+0x2b0]
   140005204:	48 89 c1             	mov    rcx,rax
   140005207:	e8 74 c2 ff ff       	call   140001480 <_ZN5rvm645crypt11decrypt_ptrEy>
   14000520c:	48 89 85 a8 02 00 00 	mov    QWORD PTR [rbp+0x2a8],rax
   140005213:	48 8b 85 a8 02 00 00 	mov    rax,QWORD PTR [rbp+0x2a8]
   14000521a:	48 89 85 a0 02 00 00 	mov    QWORD PTR [rbp+0x2a0],rax
   140005221:	48 8b 85 a0 02 00 00 	mov    rax,QWORD PTR [rbp+0x2a0]
   140005228:	ff d0                	call   rax
   14000522a:	90                   	nop
   14000522b:	0f b6 85 d7 02 00 00 	movzx  eax,BYTE PTR [rbp+0x2d7]
   140005232:	85 c0                	test   eax,eax
   140005234:	74 0a                	je     140005240 <_ZN5rvm647decoder9vm_decodeEj+0x1eff>
   140005236:	83 f8 01             	cmp    eax,0x1
   140005239:	74 4f                	je     14000528a <_ZN5rvm647decoder9vm_decodeEj+0x1f49>
   14000523b:	e9 93 00 00 00       	jmp    1400052d3 <_ZN5rvm647decoder9vm_decodeEj+0x1f92>
   140005240:	48 8b 05 c1 ad 00 00 	mov    rax,QWORD PTR [rip+0xadc1]        # 140010008 <vmcs>
   140005247:	48 8b 40 08          	mov    rax,QWORD PTR [rax+0x8]
   14000524b:	48 05 b8 02 00 00    	add    rax,0x2b8
   140005251:	48 8b 00             	mov    rax,QWORD PTR [rax]
   140005254:	48 89 85 68 02 00 00 	mov    QWORD PTR [rbp+0x268],rax
   14000525b:	48 8b 85 68 02 00 00 	mov    rax,QWORD PTR [rbp+0x268]
   140005262:	48 89 c1             	mov    rcx,rax
   140005265:	e8 16 c2 ff ff       	call   140001480 <_ZN5rvm645crypt11decrypt_ptrEy>
   14000526a:	48 89 85 60 02 00 00 	mov    QWORD PTR [rbp+0x260],rax
   140005271:	48 8b 85 60 02 00 00 	mov    rax,QWORD PTR [rbp+0x260]
   140005278:	48 89 85 58 02 00 00 	mov    QWORD PTR [rbp+0x258],rax
   14000527f:	48 8b 85 58 02 00 00 	mov    rax,QWORD PTR [rbp+0x258]
   140005286:	ff d0                	call   rax
   140005288:	eb 49                	jmp    1400052d3 <_ZN5rvm647decoder9vm_decodeEj+0x1f92>
   14000528a:	48 8b 05 77 ad 00 00 	mov    rax,QWORD PTR [rip+0xad77]        # 140010008 <vmcs>
   140005291:	48 8b 40 08          	mov    rax,QWORD PTR [rax+0x8]
   140005295:	48 05 c0 02 00 00    	add    rax,0x2c0
   14000529b:	48 8b 00             	mov    rax,QWORD PTR [rax]
   14000529e:	48 89 85 80 02 00 00 	mov    QWORD PTR [rbp+0x280],rax
   1400052a5:	48 8b 85 80 02 00 00 	mov    rax,QWORD PTR [rbp+0x280]
   1400052ac:	48 89 c1             	mov    rcx,rax
   1400052af:	e8 cc c1 ff ff       	call   140001480 <_ZN5rvm645crypt11decrypt_ptrEy>
   1400052b4:	48 89 85 78 02 00 00 	mov    QWORD PTR [rbp+0x278],rax
   1400052bb:	48 8b 85 78 02 00 00 	mov    rax,QWORD PTR [rbp+0x278]
   1400052c2:	48 89 85 70 02 00 00 	mov    QWORD PTR [rbp+0x270],rax
   1400052c9:	48 8b 85 70 02 00 00 	mov    rax,QWORD PTR [rbp+0x270]
   1400052d0:	ff d0                	call   rax
   1400052d2:	90                   	nop
   1400052d3:	0f b6 85 d7 02 00 00 	movzx  eax,BYTE PTR [rbp+0x2d7]
   1400052da:	85 c0                	test   eax,eax
   1400052dc:	74 0a                	je     1400052e8 <_ZN5rvm647decoder9vm_decodeEj+0x1fa7>
   1400052de:	83 f8 01             	cmp    eax,0x1
   1400052e1:	74 4f                	je     140005332 <_ZN5rvm647decoder9vm_decodeEj+0x1ff1>
   1400052e3:	e9 93 00 00 00       	jmp    14000537b <_ZN5rvm647decoder9vm_decodeEj+0x203a>
   1400052e8:	48 8b 05 19 ad 00 00 	mov    rax,QWORD PTR [rip+0xad19]        # 140010008 <vmcs>
   1400052ef:	48 8b 40 08          	mov    rax,QWORD PTR [rax+0x8]
   1400052f3:	48 05 c8 02 00 00    	add    rax,0x2c8
   1400052f9:	48 8b 00             	mov    rax,QWORD PTR [rax]
   1400052fc:	48 89 85 38 02 00 00 	mov    QWORD PTR [rbp+0x238],rax
   140005303:	48 8b 85 38 02 00 00 	mov    rax,QWORD PTR [rbp+0x238]
   14000530a:	48 89 c1             	mov    rcx,rax
   14000530d:	e8 6e c1 ff ff       	call   140001480 <_ZN5rvm645crypt11decrypt_ptrEy>
   140005312:	48 89 85 30 02 00 00 	mov    QWORD PTR [rbp+0x230],rax
   140005319:	48 8b 85 30 02 00 00 	mov    rax,QWORD PTR [rbp+0x230]
   140005320:	48 89 85 28 02 00 00 	mov    QWORD PTR [rbp+0x228],rax
   140005327:	48 8b 85 28 02 00 00 	mov    rax,QWORD PTR [rbp+0x228]
   14000532e:	ff d0                	call   rax
   140005330:	eb 49                	jmp    14000537b <_ZN5rvm647decoder9vm_decodeEj+0x203a>
   140005332:	48 8b 05 cf ac 00 00 	mov    rax,QWORD PTR [rip+0xaccf]        # 140010008 <vmcs>
   140005339:	48 8b 40 08          	mov    rax,QWORD PTR [rax+0x8]
   14000533d:	48 05 d0 02 00 00    	add    rax,0x2d0
   140005343:	48 8b 00             	mov    rax,QWORD PTR [rax]
   140005346:	48 89 85 50 02 00 00 	mov    QWORD PTR [rbp+0x250],rax
   14000534d:	48 8b 85 50 02 00 00 	mov    rax,QWORD PTR [rbp+0x250]
   140005354:	48 89 c1             	mov    rcx,rax
   140005357:	e8 24 c1 ff ff       	call   140001480 <_ZN5rvm645crypt11decrypt_ptrEy>
   14000535c:	48 89 85 48 02 00 00 	mov    QWORD PTR [rbp+0x248],rax
   140005363:	48 8b 85 48 02 00 00 	mov    rax,QWORD PTR [rbp+0x248]
   14000536a:	48 89 85 40 02 00 00 	mov    QWORD PTR [rbp+0x240],rax
   140005371:	48 8b 85 40 02 00 00 	mov    rax,QWORD PTR [rbp+0x240]
   140005378:	ff d0                	call   rax
   14000537a:	90                   	nop
   14000537b:	0f b6 85 d7 02 00 00 	movzx  eax,BYTE PTR [rbp+0x2d7]
   140005382:	85 c0                	test   eax,eax
   140005384:	74 0a                	je     140005390 <_ZN5rvm647decoder9vm_decodeEj+0x204f>
   140005386:	83 f8 01             	cmp    eax,0x1
   140005389:	74 4f                	je     1400053da <_ZN5rvm647decoder9vm_decodeEj+0x2099>
   14000538b:	e9 93 00 00 00       	jmp    140005423 <_ZN5rvm647decoder9vm_decodeEj+0x20e2>
   140005390:	48 8b 05 71 ac 00 00 	mov    rax,QWORD PTR [rip+0xac71]        # 140010008 <vmcs>
   140005397:	48 8b 40 08          	mov    rax,QWORD PTR [rax+0x8]
   14000539b:	48 05 d8 02 00 00    	add    rax,0x2d8
   1400053a1:	48 8b 00             	mov    rax,QWORD PTR [rax]
   1400053a4:	48 89 85 08 02 00 00 	mov    QWORD PTR [rbp+0x208],rax
   1400053ab:	48 8b 85 08 02 00 00 	mov    rax,QWORD PTR [rbp+0x208]
   1400053b2:	48 89 c1             	mov    rcx,rax
   1400053b5:	e8 c6 c0 ff ff       	call   140001480 <_ZN5rvm645crypt11decrypt_ptrEy>
   1400053ba:	48 89 85 00 02 00 00 	mov    QWORD PTR [rbp+0x200],rax
   1400053c1:	48 8b 85 00 02 00 00 	mov    rax,QWORD PTR [rbp+0x200]
   1400053c8:	48 89 85 f8 01 00 00 	mov    QWORD PTR [rbp+0x1f8],rax
   1400053cf:	48 8b 85 f8 01 00 00 	mov    rax,QWORD PTR [rbp+0x1f8]
   1400053d6:	ff d0                	call   rax
   1400053d8:	eb 49                	jmp    140005423 <_ZN5rvm647decoder9vm_decodeEj+0x20e2>
   1400053da:	48 8b 05 27 ac 00 00 	mov    rax,QWORD PTR [rip+0xac27]        # 140010008 <vmcs>
   1400053e1:	48 8b 40 08          	mov    rax,QWORD PTR [rax+0x8]
   1400053e5:	48 05 e0 02 00 00    	add    rax,0x2e0
   1400053eb:	48 8b 00             	mov    rax,QWORD PTR [rax]
   1400053ee:	48 89 85 20 02 00 00 	mov    QWORD PTR [rbp+0x220],rax
   1400053f5:	48 8b 85 20 02 00 00 	mov    rax,QWORD PTR [rbp+0x220]
   1400053fc:	48 89 c1             	mov    rcx,rax
   1400053ff:	e8 7c c0 ff ff       	call   140001480 <_ZN5rvm645crypt11decrypt_ptrEy>
   140005404:	48 89 85 18 02 00 00 	mov    QWORD PTR [rbp+0x218],rax
   14000540b:	48 8b 85 18 02 00 00 	mov    rax,QWORD PTR [rbp+0x218]
   140005412:	48 89 85 10 02 00 00 	mov    QWORD PTR [rbp+0x210],rax
   140005419:	48 8b 85 10 02 00 00 	mov    rax,QWORD PTR [rbp+0x210]
   140005420:	ff d0                	call   rax
   140005422:	90                   	nop
   140005423:	0f b6 85 d7 02 00 00 	movzx  eax,BYTE PTR [rbp+0x2d7]
   14000542a:	85 c0                	test   eax,eax
   14000542c:	74 0a                	je     140005438 <_ZN5rvm647decoder9vm_decodeEj+0x20f7>
   14000542e:	83 f8 01             	cmp    eax,0x1
   140005431:	74 4f                	je     140005482 <_ZN5rvm647decoder9vm_decodeEj+0x2141>
   140005433:	e9 93 00 00 00       	jmp    1400054cb <_ZN5rvm647decoder9vm_decodeEj+0x218a>
   140005438:	48 8b 05 c9 ab 00 00 	mov    rax,QWORD PTR [rip+0xabc9]        # 140010008 <vmcs>
   14000543f:	48 8b 40 08          	mov    rax,QWORD PTR [rax+0x8]
   140005443:	48 05 e8 02 00 00    	add    rax,0x2e8
   140005449:	48 8b 00             	mov    rax,QWORD PTR [rax]
   14000544c:	48 89 85 d8 01 00 00 	mov    QWORD PTR [rbp+0x1d8],rax
   140005453:	48 8b 85 d8 01 00 00 	mov    rax,QWORD PTR [rbp+0x1d8]
   14000545a:	48 89 c1             	mov    rcx,rax
   14000545d:	e8 1e c0 ff ff       	call   140001480 <_ZN5rvm645crypt11decrypt_ptrEy>
   140005462:	48 89 85 d0 01 00 00 	mov    QWORD PTR [rbp+0x1d0],rax
   140005469:	48 8b 85 d0 01 00 00 	mov    rax,QWORD PTR [rbp+0x1d0]
   140005470:	48 89 85 c8 01 00 00 	mov    QWORD PTR [rbp+0x1c8],rax
   140005477:	48 8b 85 c8 01 00 00 	mov    rax,QWORD PTR [rbp+0x1c8]
   14000547e:	ff d0                	call   rax
   140005480:	eb 49                	jmp    1400054cb <_ZN5rvm647decoder9vm_decodeEj+0x218a>
   140005482:	48 8b 05 7f ab 00 00 	mov    rax,QWORD PTR [rip+0xab7f]        # 140010008 <vmcs>
   140005489:	48 8b 40 08          	mov    rax,QWORD PTR [rax+0x8]
   14000548d:	48 05 f0 02 00 00    	add    rax,0x2f0
   140005493:	48 8b 00             	mov    rax,QWORD PTR [rax]
   140005496:	48 89 85 f0 01 00 00 	mov    QWORD PTR [rbp+0x1f0],rax
   14000549d:	48 8b 85 f0 01 00 00 	mov    rax,QWORD PTR [rbp+0x1f0]
   1400054a4:	48 89 c1             	mov    rcx,rax
   1400054a7:	e8 d4 bf ff ff       	call   140001480 <_ZN5rvm645crypt11decrypt_ptrEy>
   1400054ac:	48 89 85 e8 01 00 00 	mov    QWORD PTR [rbp+0x1e8],rax
   1400054b3:	48 8b 85 e8 01 00 00 	mov    rax,QWORD PTR [rbp+0x1e8]
   1400054ba:	48 89 85 e0 01 00 00 	mov    QWORD PTR [rbp+0x1e0],rax
   1400054c1:	48 8b 85 e0 01 00 00 	mov    rax,QWORD PTR [rbp+0x1e0]
   1400054c8:	ff d0                	call   rax
   1400054ca:	90                   	nop
   1400054cb:	0f b6 85 d7 02 00 00 	movzx  eax,BYTE PTR [rbp+0x2d7]
   1400054d2:	83 f8 20             	cmp    eax,0x20
   1400054d5:	74 68                	je     14000553f <_ZN5rvm647decoder9vm_decodeEj+0x21fe>
   1400054d7:	83 f8 20             	cmp    eax,0x20
   1400054da:	0f 8f f2 00 00 00    	jg     1400055d2 <_ZN5rvm647decoder9vm_decodeEj+0x2291>
   1400054e0:	85 c0                	test   eax,eax
   1400054e2:	74 0e                	je     1400054f2 <_ZN5rvm647decoder9vm_decodeEj+0x21b1>
   1400054e4:	83 f8 01             	cmp    eax,0x1
   1400054e7:	0f 84 9c 00 00 00    	je     140005589 <_ZN5rvm647decoder9vm_decodeEj+0x2248>
   1400054ed:	e9 e0 00 00 00       	jmp    1400055d2 <_ZN5rvm647decoder9vm_decodeEj+0x2291>
   1400054f2:	48 8b 05 0f ab 00 00 	mov    rax,QWORD PTR [rip+0xab0f]        # 140010008 <vmcs>
   1400054f9:	48 8b 40 08          	mov    rax,QWORD PTR [rax+0x8]
   1400054fd:	48 05 f8 02 00 00    	add    rax,0x2f8
   140005503:	48 8b 00             	mov    rax,QWORD PTR [rax]
   140005506:	48 89 85 90 01 00 00 	mov    QWORD PTR [rbp+0x190],rax
   14000550d:	48 8b 85 90 01 00 00 	mov    rax,QWORD PTR [rbp+0x190]
   140005514:	48 89 c1             	mov    rcx,rax
   140005517:	e8 64 bf ff ff       	call   140001480 <_ZN5rvm645crypt11decrypt_ptrEy>
   14000551c:	48 89 85 88 01 00 00 	mov    QWORD PTR [rbp+0x188],rax
   140005523:	48 8b 85 88 01 00 00 	mov    rax,QWORD PTR [rbp+0x188]
   14000552a:	48 89 85 80 01 00 00 	mov    QWORD PTR [rbp+0x180],rax
   140005531:	48 8b 85 80 01 00 00 	mov    rax,QWORD PTR [rbp+0x180]
   140005538:	ff d0                	call   rax
   14000553a:	e9 93 00 00 00       	jmp    1400055d2 <_ZN5rvm647decoder9vm_decodeEj+0x2291>
   14000553f:	48 8b 05 c2 aa 00 00 	mov    rax,QWORD PTR [rip+0xaac2]        # 140010008 <vmcs>
   140005546:	48 8b 40 08          	mov    rax,QWORD PTR [rax+0x8]
   14000554a:	48 05 00 03 00 00    	add    rax,0x300
   140005550:	48 8b 00             	mov    rax,QWORD PTR [rax]
   140005553:	48 89 85 c0 01 00 00 	mov    QWORD PTR [rbp+0x1c0],rax
   14000555a:	48 8b 85 c0 01 00 00 	mov    rax,QWORD PTR [rbp+0x1c0]
   140005561:	48 89 c1             	mov    rcx,rax
   140005564:	e8 17 bf ff ff       	call   140001480 <_ZN5rvm645crypt11decrypt_ptrEy>
   140005569:	48 89 85 b8 01 00 00 	mov    QWORD PTR [rbp+0x1b8],rax
   140005570:	48 8b 85 b8 01 00 00 	mov    rax,QWORD PTR [rbp+0x1b8]
   140005577:	48 89 85 b0 01 00 00 	mov    QWORD PTR [rbp+0x1b0],rax
   14000557e:	48 8b 85 b0 01 00 00 	mov    rax,QWORD PTR [rbp+0x1b0]
   140005585:	ff d0                	call   rax
   140005587:	eb 49                	jmp    1400055d2 <_ZN5rvm647decoder9vm_decodeEj+0x2291>
   140005589:	48 8b 05 78 aa 00 00 	mov    rax,QWORD PTR [rip+0xaa78]        # 140010008 <vmcs>
   140005590:	48 8b 40 08          	mov    rax,QWORD PTR [rax+0x8]
   140005594:	48 05 08 03 00 00    	add    rax,0x308
   14000559a:	48 8b 00             	mov    rax,QWORD PTR [rax]
   14000559d:	48 89 85 a8 01 00 00 	mov    QWORD PTR [rbp+0x1a8],rax
   1400055a4:	48 8b 85 a8 01 00 00 	mov    rax,QWORD PTR [rbp+0x1a8]
   1400055ab:	48 89 c1             	mov    rcx,rax
   1400055ae:	e8 cd be ff ff       	call   140001480 <_ZN5rvm645crypt11decrypt_ptrEy>
   1400055b3:	48 89 85 a0 01 00 00 	mov    QWORD PTR [rbp+0x1a0],rax
   1400055ba:	48 8b 85 a0 01 00 00 	mov    rax,QWORD PTR [rbp+0x1a0]
   1400055c1:	48 89 85 98 01 00 00 	mov    QWORD PTR [rbp+0x198],rax
   1400055c8:	48 8b 85 98 01 00 00 	mov    rax,QWORD PTR [rbp+0x198]
   1400055cf:	ff d0                	call   rax
   1400055d1:	90                   	nop
   1400055d2:	0f b6 85 d7 02 00 00 	movzx  eax,BYTE PTR [rbp+0x2d7]
   1400055d9:	85 c0                	test   eax,eax
   1400055db:	74 0a                	je     1400055e7 <_ZN5rvm647decoder9vm_decodeEj+0x22a6>
   1400055dd:	83 f8 01             	cmp    eax,0x1
   1400055e0:	74 4f                	je     140005631 <_ZN5rvm647decoder9vm_decodeEj+0x22f0>
   1400055e2:	e9 93 00 00 00       	jmp    14000567a <_ZN5rvm647decoder9vm_decodeEj+0x2339>
   1400055e7:	48 8b 05 1a aa 00 00 	mov    rax,QWORD PTR [rip+0xaa1a]        # 140010008 <vmcs>
   1400055ee:	48 8b 40 08          	mov    rax,QWORD PTR [rax+0x8]
   1400055f2:	48 05 10 03 00 00    	add    rax,0x310
   1400055f8:	48 8b 00             	mov    rax,QWORD PTR [rax]
   1400055fb:	48 89 85 60 01 00 00 	mov    QWORD PTR [rbp+0x160],rax
   140005602:	48 8b 85 60 01 00 00 	mov    rax,QWORD PTR [rbp+0x160]
   140005609:	48 89 c1             	mov    rcx,rax
   14000560c:	e8 6f be ff ff       	call   140001480 <_ZN5rvm645crypt11decrypt_ptrEy>
   140005611:	48 89 85 58 01 00 00 	mov    QWORD PTR [rbp+0x158],rax
   140005618:	48 8b 85 58 01 00 00 	mov    rax,QWORD PTR [rbp+0x158]
   14000561f:	48 89 85 50 01 00 00 	mov    QWORD PTR [rbp+0x150],rax
   140005626:	48 8b 85 50 01 00 00 	mov    rax,QWORD PTR [rbp+0x150]
   14000562d:	ff d0                	call   rax
   14000562f:	eb 49                	jmp    14000567a <_ZN5rvm647decoder9vm_decodeEj+0x2339>
   140005631:	48 8b 05 d0 a9 00 00 	mov    rax,QWORD PTR [rip+0xa9d0]        # 140010008 <vmcs>
   140005638:	48 8b 40 08          	mov    rax,QWORD PTR [rax+0x8]
   14000563c:	48 05 18 03 00 00    	add    rax,0x318
   140005642:	48 8b 00             	mov    rax,QWORD PTR [rax]
   140005645:	48 89 85 78 01 00 00 	mov    QWORD PTR [rbp+0x178],rax
   14000564c:	48 8b 85 78 01 00 00 	mov    rax,QWORD PTR [rbp+0x178]
   140005653:	48 89 c1             	mov    rcx,rax
   140005656:	e8 25 be ff ff       	call   140001480 <_ZN5rvm645crypt11decrypt_ptrEy>
   14000565b:	48 89 85 70 01 00 00 	mov    QWORD PTR [rbp+0x170],rax
   140005662:	48 8b 85 70 01 00 00 	mov    rax,QWORD PTR [rbp+0x170]
   140005669:	48 89 85 68 01 00 00 	mov    QWORD PTR [rbp+0x168],rax
   140005670:	48 8b 85 68 01 00 00 	mov    rax,QWORD PTR [rbp+0x168]
   140005677:	ff d0                	call   rax
   140005679:	90                   	nop
   14000567a:	0f b6 85 d7 02 00 00 	movzx  eax,BYTE PTR [rbp+0x2d7]
   140005681:	85 c0                	test   eax,eax
   140005683:	74 0a                	je     14000568f <_ZN5rvm647decoder9vm_decodeEj+0x234e>
   140005685:	83 f8 01             	cmp    eax,0x1
   140005688:	74 4f                	je     1400056d9 <_ZN5rvm647decoder9vm_decodeEj+0x2398>
   14000568a:	e9 93 00 00 00       	jmp    140005722 <_ZN5rvm647decoder9vm_decodeEj+0x23e1>
   14000568f:	48 8b 05 72 a9 00 00 	mov    rax,QWORD PTR [rip+0xa972]        # 140010008 <vmcs>
   140005696:	48 8b 40 08          	mov    rax,QWORD PTR [rax+0x8]
   14000569a:	48 05 20 03 00 00    	add    rax,0x320
   1400056a0:	48 8b 00             	mov    rax,QWORD PTR [rax]
   1400056a3:	48 89 85 30 01 00 00 	mov    QWORD PTR [rbp+0x130],rax
   1400056aa:	48 8b 85 30 01 00 00 	mov    rax,QWORD PTR [rbp+0x130]
   1400056b1:	48 89 c1             	mov    rcx,rax
   1400056b4:	e8 c7 bd ff ff       	call   140001480 <_ZN5rvm645crypt11decrypt_ptrEy>
   1400056b9:	48 89 85 28 01 00 00 	mov    QWORD PTR [rbp+0x128],rax
   1400056c0:	48 8b 85 28 01 00 00 	mov    rax,QWORD PTR [rbp+0x128]
   1400056c7:	48 89 85 20 01 00 00 	mov    QWORD PTR [rbp+0x120],rax
   1400056ce:	48 8b 85 20 01 00 00 	mov    rax,QWORD PTR [rbp+0x120]
   1400056d5:	ff d0                	call   rax
   1400056d7:	eb 49                	jmp    140005722 <_ZN5rvm647decoder9vm_decodeEj+0x23e1>
   1400056d9:	48 8b 05 28 a9 00 00 	mov    rax,QWORD PTR [rip+0xa928]        # 140010008 <vmcs>
   1400056e0:	48 8b 40 08          	mov    rax,QWORD PTR [rax+0x8]
   1400056e4:	48 05 28 03 00 00    	add    rax,0x328
   1400056ea:	48 8b 00             	mov    rax,QWORD PTR [rax]
   1400056ed:	48 89 85 48 01 00 00 	mov    QWORD PTR [rbp+0x148],rax
   1400056f4:	48 8b 85 48 01 00 00 	mov    rax,QWORD PTR [rbp+0x148]
   1400056fb:	48 89 c1             	mov    rcx,rax
   1400056fe:	e8 7d bd ff ff       	call   140001480 <_ZN5rvm645crypt11decrypt_ptrEy>
   140005703:	48 89 85 40 01 00 00 	mov    QWORD PTR [rbp+0x140],rax
   14000570a:	48 8b 85 40 01 00 00 	mov    rax,QWORD PTR [rbp+0x140]
   140005711:	48 89 85 38 01 00 00 	mov    QWORD PTR [rbp+0x138],rax
   140005718:	48 8b 85 38 01 00 00 	mov    rax,QWORD PTR [rbp+0x138]
   14000571f:	ff d0                	call   rax
   140005721:	90                   	nop
   140005722:	8b 85 20 0a 00 00    	mov    eax,DWORD PTR [rbp+0xa20]
   140005728:	c1 e8 0c             	shr    eax,0xc
   14000572b:	83 e0 07             	and    eax,0x7
   14000572e:	88 85 1f 01 00 00    	mov    BYTE PTR [rbp+0x11f],al
   140005734:	8b 85 20 0a 00 00    	mov    eax,DWORD PTR [rbp+0xa20]
   14000573a:	c1 e8 14             	shr    eax,0x14
   14000573d:	0f b6 d0             	movzx  edx,al
   140005740:	48 8b 05 c1 a8 00 00 	mov    rax,QWORD PTR [rip+0xa8c1]        # 140010008 <vmcs>
   140005747:	83 e2 1f             	and    edx,0x1f
   14000574a:	48 89 50 28          	mov    QWORD PTR [rax+0x28],rdx
   14000574e:	8b 85 20 0a 00 00    	mov    eax,DWORD PTR [rbp+0xa20]
   140005754:	c1 e8 0f             	shr    eax,0xf
   140005757:	0f b6 d0             	movzx  edx,al
   14000575a:	48 8b 05 a7 a8 00 00 	mov    rax,QWORD PTR [rip+0xa8a7]        # 140010008 <vmcs>
   140005761:	83 e2 1f             	and    edx,0x1f
   140005764:	48 89 50 20          	mov    QWORD PTR [rax+0x20],rdx
   140005768:	8b 85 20 0a 00 00    	mov    eax,DWORD PTR [rbp+0xa20]
   14000576e:	89 c1                	mov    ecx,eax
   140005770:	e8 9b 7d 00 00       	call   14000d510 <_Z5imm_sj>
   140005775:	89 c2                	mov    edx,eax
   140005777:	48 8b 05 8a a8 00 00 	mov    rax,QWORD PTR [rip+0xa88a]        # 140010008 <vmcs>
   14000577e:	48 63 d2             	movsxd rdx,edx
   140005781:	48 89 50 38          	mov    QWORD PTR [rax+0x38],rdx
   140005785:	0f b6 85 07 0a 00 00 	movzx  eax,BYTE PTR [rbp+0xa07]
   14000578c:	83 f8 23             	cmp    eax,0x23
   14000578f:	74 0e                	je     14000579f <_ZN5rvm647decoder9vm_decodeEj+0x245e>
   140005791:	83 f8 27             	cmp    eax,0x27
   140005794:	0f 84 6b 01 00 00    	je     140005905 <_ZN5rvm647decoder9vm_decodeEj+0x25c4>
   14000579a:	e9 0f 02 00 00       	jmp    1400059ae <_ZN5rvm647decoder9vm_decodeEj+0x266d>
   14000579f:	0f b6 85 1f 01 00 00 	movzx  eax,BYTE PTR [rbp+0x11f]
   1400057a6:	83 f8 03             	cmp    eax,0x3
   1400057a9:	0f 84 0d 01 00 00    	je     1400058bc <_ZN5rvm647decoder9vm_decodeEj+0x257b>
   1400057af:	83 f8 03             	cmp    eax,0x3
   1400057b2:	0f 8f 4d 01 00 00    	jg     140005905 <_ZN5rvm647decoder9vm_decodeEj+0x25c4>
   1400057b8:	83 f8 02             	cmp    eax,0x2
   1400057bb:	0f 84 b1 00 00 00    	je     140005872 <_ZN5rvm647decoder9vm_decodeEj+0x2531>
   1400057c1:	83 f8 02             	cmp    eax,0x2
   1400057c4:	0f 8f 3b 01 00 00    	jg     140005905 <_ZN5rvm647decoder9vm_decodeEj+0x25c4>
   1400057ca:	85 c0                	test   eax,eax
   1400057cc:	74 0a                	je     1400057d8 <_ZN5rvm647decoder9vm_decodeEj+0x2497>
   1400057ce:	83 f8 01             	cmp    eax,0x1
   1400057d1:	74 52                	je     140005825 <_ZN5rvm647decoder9vm_decodeEj+0x24e4>
   1400057d3:	e9 2d 01 00 00       	jmp    140005905 <_ZN5rvm647decoder9vm_decodeEj+0x25c4>
   1400057d8:	48 8b 05 29 a8 00 00 	mov    rax,QWORD PTR [rip+0xa829]        # 140010008 <vmcs>
   1400057df:	48 8b 40 08          	mov    rax,QWORD PTR [rax+0x8]
   1400057e3:	48 05 30 03 00 00    	add    rax,0x330
   1400057e9:	48 8b 00             	mov    rax,QWORD PTR [rax]
   1400057ec:	48 89 85 c8 00 00 00 	mov    QWORD PTR [rbp+0xc8],rax
   1400057f3:	48 8b 85 c8 00 00 00 	mov    rax,QWORD PTR [rbp+0xc8]
   1400057fa:	48 89 c1             	mov    rcx,rax
   1400057fd:	e8 7e bc ff ff       	call   140001480 <_ZN5rvm645crypt11decrypt_ptrEy>
   140005802:	48 89 85 c0 00 00 00 	mov    QWORD PTR [rbp+0xc0],rax
   140005809:	48 8b 85 c0 00 00 00 	mov    rax,QWORD PTR [rbp+0xc0]
   140005810:	48 89 85 b8 00 00 00 	mov    QWORD PTR [rbp+0xb8],rax
   140005817:	48 8b 85 b8 00 00 00 	mov    rax,QWORD PTR [rbp+0xb8]
   14000581e:	ff d0                	call   rax
   140005820:	e9 e0 00 00 00       	jmp    140005905 <_ZN5rvm647decoder9vm_decodeEj+0x25c4>
   140005825:	48 8b 05 dc a7 00 00 	mov    rax,QWORD PTR [rip+0xa7dc]        # 140010008 <vmcs>
   14000582c:	48 8b 40 08          	mov    rax,QWORD PTR [rax+0x8]
   140005830:	48 05 38 03 00 00    	add    rax,0x338
   140005836:	48 8b 00             	mov    rax,QWORD PTR [rax]
   140005839:	48 89 85 e0 00 00 00 	mov    QWORD PTR [rbp+0xe0],rax
   140005840:	48 8b 85 e0 00 00 00 	mov    rax,QWORD PTR [rbp+0xe0]
   140005847:	48 89 c1             	mov    rcx,rax
   14000584a:	e8 31 bc ff ff       	call   140001480 <_ZN5rvm645crypt11decrypt_ptrEy>
   14000584f:	48 89 85 d8 00 00 00 	mov    QWORD PTR [rbp+0xd8],rax
   140005856:	48 8b 85 d8 00 00 00 	mov    rax,QWORD PTR [rbp+0xd8]
   14000585d:	48 89 85 d0 00 00 00 	mov    QWORD PTR [rbp+0xd0],rax
   140005864:	48 8b 85 d0 00 00 00 	mov    rax,QWORD PTR [rbp+0xd0]
   14000586b:	ff d0                	call   rax
   14000586d:	e9 93 00 00 00       	jmp    140005905 <_ZN5rvm647decoder9vm_decodeEj+0x25c4>
   140005872:	48 8b 05 8f a7 00 00 	mov    rax,QWORD PTR [rip+0xa78f]        # 140010008 <vmcs>
   140005879:	48 8b 40 08          	mov    rax,QWORD PTR [rax+0x8]
   14000587d:	48 05 40 03 00 00    	add    rax,0x340
   140005883:	48 8b 00             	mov    rax,QWORD PTR [rax]
   140005886:	48 89 85 f8 00 00 00 	mov    QWORD PTR [rbp+0xf8],rax
   14000588d:	48 8b 85 f8 00 00 00 	mov    rax,QWORD PTR [rbp+0xf8]
   140005894:	48 89 c1             	mov    rcx,rax
   140005897:	e8 e4 bb ff ff       	call   140001480 <_ZN5rvm645crypt11decrypt_ptrEy>
   14000589c:	48 89 85 f0 00 00 00 	mov    QWORD PTR [rbp+0xf0],rax
   1400058a3:	48 8b 85 f0 00 00 00 	mov    rax,QWORD PTR [rbp+0xf0]
   1400058aa:	48 89 85 e8 00 00 00 	mov    QWORD PTR [rbp+0xe8],rax
   1400058b1:	48 8b 85 e8 00 00 00 	mov    rax,QWORD PTR [rbp+0xe8]
   1400058b8:	ff d0                	call   rax
   1400058ba:	eb 49                	jmp    140005905 <_ZN5rvm647decoder9vm_decodeEj+0x25c4>
   1400058bc:	48 8b 05 45 a7 00 00 	mov    rax,QWORD PTR [rip+0xa745]        # 140010008 <vmcs>
   1400058c3:	48 8b 40 08          	mov    rax,QWORD PTR [rax+0x8]
   1400058c7:	48 05 48 03 00 00    	add    rax,0x348
   1400058cd:	48 8b 00             	mov    rax,QWORD PTR [rax]
   1400058d0:	48 89 85 10 01 00 00 	mov    QWORD PTR [rbp+0x110],rax
   1400058d7:	48 8b 85 10 01 00 00 	mov    rax,QWORD PTR [rbp+0x110]
   1400058de:	48 89 c1             	mov    rcx,rax
   1400058e1:	e8 9a bb ff ff       	call   140001480 <_ZN5rvm645crypt11decrypt_ptrEy>
   1400058e6:	48 89 85 08 01 00 00 	mov    QWORD PTR [rbp+0x108],rax
   1400058ed:	48 8b 85 08 01 00 00 	mov    rax,QWORD PTR [rbp+0x108]
   1400058f4:	48 89 85 00 01 00 00 	mov    QWORD PTR [rbp+0x100],rax
   1400058fb:	48 8b 85 00 01 00 00 	mov    rax,QWORD PTR [rbp+0x100]
   140005902:	ff d0                	call   rax
   140005904:	90                   	nop
   140005905:	0f b6 85 1f 01 00 00 	movzx  eax,BYTE PTR [rbp+0x11f]
   14000590c:	83 f8 02             	cmp    eax,0x2
   14000590f:	74 0a                	je     14000591b <_ZN5rvm647decoder9vm_decodeEj+0x25da>
   140005911:	83 f8 03             	cmp    eax,0x3
   140005914:	74 4f                	je     140005965 <_ZN5rvm647decoder9vm_decodeEj+0x2624>
   140005916:	e9 93 00 00 00       	jmp    1400059ae <_ZN5rvm647decoder9vm_decodeEj+0x266d>
   14000591b:	48 8b 05 e6 a6 00 00 	mov    rax,QWORD PTR [rip+0xa6e6]        # 140010008 <vmcs>
   140005922:	48 8b 40 08          	mov    rax,QWORD PTR [rax+0x8]
   140005926:	48 05 50 03 00 00    	add    rax,0x350
   14000592c:	48 8b 00             	mov    rax,QWORD PTR [rax]
   14000592f:	48 89 85 98 00 00 00 	mov    QWORD PTR [rbp+0x98],rax
   140005936:	48 8b 85 98 00 00 00 	mov    rax,QWORD PTR [rbp+0x98]
   14000593d:	48 89 c1             	mov    rcx,rax
   140005940:	e8 3b bb ff ff       	call   140001480 <_ZN5rvm645crypt11decrypt_ptrEy>
   140005945:	48 89 85 90 00 00 00 	mov    QWORD PTR [rbp+0x90],rax
   14000594c:	48 8b 85 90 00 00 00 	mov    rax,QWORD PTR [rbp+0x90]
   140005953:	48 89 85 88 00 00 00 	mov    QWORD PTR [rbp+0x88],rax
   14000595a:	48 8b 85 88 00 00 00 	mov    rax,QWORD PTR [rbp+0x88]
   140005961:	ff d0                	call   rax
   140005963:	eb 49                	jmp    1400059ae <_ZN5rvm647decoder9vm_decodeEj+0x266d>
   140005965:	48 8b 05 9c a6 00 00 	mov    rax,QWORD PTR [rip+0xa69c]        # 140010008 <vmcs>
   14000596c:	48 8b 40 08          	mov    rax,QWORD PTR [rax+0x8]
   140005970:	48 05 58 03 00 00    	add    rax,0x358
   140005976:	48 8b 00             	mov    rax,QWORD PTR [rax]
   140005979:	48 89 85 b0 00 00 00 	mov    QWORD PTR [rbp+0xb0],rax
   140005980:	48 8b 85 b0 00 00 00 	mov    rax,QWORD PTR [rbp+0xb0]
   140005987:	48 89 c1             	mov    rcx,rax
   14000598a:	e8 f1 ba ff ff       	call   140001480 <_ZN5rvm645crypt11decrypt_ptrEy>
   14000598f:	48 89 85 a8 00 00 00 	mov    QWORD PTR [rbp+0xa8],rax
   140005996:	48 8b 85 a8 00 00 00 	mov    rax,QWORD PTR [rbp+0xa8]
   14000599d:	48 89 85 a0 00 00 00 	mov    QWORD PTR [rbp+0xa0],rax
   1400059a4:	48 8b 85 a0 00 00 00 	mov    rax,QWORD PTR [rbp+0xa0]
   1400059ab:	ff d0                	call   rax
   1400059ad:	90                   	nop
   1400059ae:	8b 85 20 0a 00 00    	mov    eax,DWORD PTR [rbp+0xa20]
   1400059b4:	c1 e8 0c             	shr    eax,0xc
   1400059b7:	83 e0 07             	and    eax,0x7
   1400059ba:	88 85 87 00 00 00    	mov    BYTE PTR [rbp+0x87],al
   1400059c0:	8b 85 20 0a 00 00    	mov    eax,DWORD PTR [rbp+0xa20]
   1400059c6:	c1 e8 14             	shr    eax,0x14
   1400059c9:	0f b6 d0             	movzx  edx,al
   1400059cc:	48 8b 05 35 a6 00 00 	mov    rax,QWORD PTR [rip+0xa635]        # 140010008 <vmcs>
   1400059d3:	83 e2 1f             	and    edx,0x1f
   1400059d6:	48 89 50 28          	mov    QWORD PTR [rax+0x28],rdx
   1400059da:	8b 85 20 0a 00 00    	mov    eax,DWORD PTR [rbp+0xa20]
   1400059e0:	c1 e8 0f             	shr    eax,0xf
   1400059e3:	0f b6 d0             	movzx  edx,al
   1400059e6:	48 8b 05 1b a6 00 00 	mov    rax,QWORD PTR [rip+0xa61b]        # 140010008 <vmcs>
   1400059ed:	83 e2 1f             	and    edx,0x1f
   1400059f0:	48 89 50 20          	mov    QWORD PTR [rax+0x20],rdx
   1400059f4:	8b 85 20 0a 00 00    	mov    eax,DWORD PTR [rbp+0xa20]
   1400059fa:	89 c1                	mov    ecx,eax
   1400059fc:	e8 1f 7a 00 00       	call   14000d420 <_Z5imm_bj>
   140005a01:	89 c2                	mov    edx,eax
   140005a03:	48 8b 05 fe a5 00 00 	mov    rax,QWORD PTR [rip+0xa5fe]        # 140010008 <vmcs>
   140005a0a:	48 63 d2             	movsxd rdx,edx
   140005a0d:	48 89 50 38          	mov    QWORD PTR [rax+0x38],rdx
   140005a11:	0f b6 85 87 00 00 00 	movzx  eax,BYTE PTR [rbp+0x87]
   140005a18:	83 f8 07             	cmp    eax,0x7
   140005a1b:	0f 87 7a 01 00 00    	ja     140005b9b <_ZN5rvm647decoder9vm_decodeEj+0x285a>
   140005a21:	89 c0                	mov    eax,eax
   140005a23:	48 8d 14 85 00 00 00 	lea    rdx,[rax*4+0x0]
   140005a2a:	00 
   140005a2b:	48 8d 05 a2 ba 00 00 	lea    rax,[rip+0xbaa2]        # 1400114d4 <_ZL8encoding+0x294>
   140005a32:	8b 04 02             	mov    eax,DWORD PTR [rdx+rax*1]
   140005a35:	48 98                	cdqe
   140005a37:	48 8d 15 96 ba 00 00 	lea    rdx,[rip+0xba96]        # 1400114d4 <_ZL8encoding+0x294>
   140005a3e:	48 01 d0             	add    rax,rdx
   140005a41:	ff e0                	jmp    rax
   140005a43:	48 8b 05 be a5 00 00 	mov    rax,QWORD PTR [rip+0xa5be]        # 140010008 <vmcs>
   140005a4a:	48 8b 40 08          	mov    rax,QWORD PTR [rax+0x8]
   140005a4e:	48 05 60 03 00 00    	add    rax,0x360
   140005a54:	48 8b 00             	mov    rax,QWORD PTR [rax]
   140005a57:	48 89 45 00          	mov    QWORD PTR [rbp+0x0],rax
   140005a5b:	48 8b 45 00          	mov    rax,QWORD PTR [rbp+0x0]
   140005a5f:	48 89 c1             	mov    rcx,rax
   140005a62:	e8 19 ba ff ff       	call   140001480 <_ZN5rvm645crypt11decrypt_ptrEy>
   140005a67:	48 89 45 f8          	mov    QWORD PTR [rbp-0x8],rax
   140005a6b:	48 8b 45 f8          	mov    rax,QWORD PTR [rbp-0x8]
   140005a6f:	48 89 45 f0          	mov    QWORD PTR [rbp-0x10],rax
   140005a73:	48 8b 45 f0          	mov    rax,QWORD PTR [rbp-0x10]
   140005a77:	ff d0                	call   rax
   140005a79:	e9 1d 01 00 00       	jmp    140005b9b <_ZN5rvm647decoder9vm_decodeEj+0x285a>
   140005a7e:	48 8b 05 83 a5 00 00 	mov    rax,QWORD PTR [rip+0xa583]        # 140010008 <vmcs>
   140005a85:	48 8b 40 08          	mov    rax,QWORD PTR [rax+0x8]
   140005a89:	48 05 68 03 00 00    	add    rax,0x368
   140005a8f:	48 8b 00             	mov    rax,QWORD PTR [rax]
   140005a92:	48 89 45 18          	mov    QWORD PTR [rbp+0x18],rax
   140005a96:	48 8b 45 18          	mov    rax,QWORD PTR [rbp+0x18]
   140005a9a:	48 89 c1             	mov    rcx,rax
   140005a9d:	e8 de b9 ff ff       	call   140001480 <_ZN5rvm645crypt11decrypt_ptrEy>
   140005aa2:	48 89 45 10          	mov    QWORD PTR [rbp+0x10],rax
   140005aa6:	48 8b 45 10          	mov    rax,QWORD PTR [rbp+0x10]
   140005aaa:	48 89 45 08          	mov    QWORD PTR [rbp+0x8],rax
   140005aae:	48 8b 45 08          	mov    rax,QWORD PTR [rbp+0x8]
   140005ab2:	ff d0                	call   rax
   140005ab4:	e9 e2 00 00 00       	jmp    140005b9b <_ZN5rvm647decoder9vm_decodeEj+0x285a>
   140005ab9:	48 8b 05 48 a5 00 00 	mov    rax,QWORD PTR [rip+0xa548]        # 140010008 <vmcs>
   140005ac0:	48 8b 40 08          	mov    rax,QWORD PTR [rax+0x8]
   140005ac4:	48 05 70 03 00 00    	add    rax,0x370
   140005aca:	48 8b 00             	mov    rax,QWORD PTR [rax]
   140005acd:	48 89 45 30          	mov    QWORD PTR [rbp+0x30],rax
   140005ad1:	48 8b 45 30          	mov    rax,QWORD PTR [rbp+0x30]
   140005ad5:	48 89 c1             	mov    rcx,rax
   140005ad8:	e8 a3 b9 ff ff       	call   140001480 <_ZN5rvm645crypt11decrypt_ptrEy>
   140005add:	48 89 45 28          	mov    QWORD PTR [rbp+0x28],rax
   140005ae1:	48 8b 45 28          	mov    rax,QWORD PTR [rbp+0x28]
   140005ae5:	48 89 45 20          	mov    QWORD PTR [rbp+0x20],rax
   140005ae9:	48 8b 45 20          	mov    rax,QWORD PTR [rbp+0x20]
   140005aed:	ff d0                	call   rax
   140005aef:	e9 a7 00 00 00       	jmp    140005b9b <_ZN5rvm647decoder9vm_decodeEj+0x285a>
   140005af4:	48 8b 05 0d a5 00 00 	mov    rax,QWORD PTR [rip+0xa50d]        # 140010008 <vmcs>
   140005afb:	48 8b 40 08          	mov    rax,QWORD PTR [rax+0x8]
   140005aff:	48 05 78 03 00 00    	add    rax,0x378
   140005b05:	48 8b 00             	mov    rax,QWORD PTR [rax]
   140005b08:	48 89 45 48          	mov    QWORD PTR [rbp+0x48],rax
   140005b0c:	48 8b 45 48          	mov    rax,QWORD PTR [rbp+0x48]
   140005b10:	48 89 c1             	mov    rcx,rax
   140005b13:	e8 68 b9 ff ff       	call   140001480 <_ZN5rvm645crypt11decrypt_ptrEy>
   140005b18:	48 89 45 40          	mov    QWORD PTR [rbp+0x40],rax
   140005b1c:	48 8b 45 40          	mov    rax,QWORD PTR [rbp+0x40]
   140005b20:	48 89 45 38          	mov    QWORD PTR [rbp+0x38],rax
   140005b24:	48 8b 45 38          	mov    rax,QWORD PTR [rbp+0x38]
   140005b28:	ff d0                	call   rax
   140005b2a:	eb 6f                	jmp    140005b9b <_ZN5rvm647decoder9vm_decodeEj+0x285a>
   140005b2c:	48 8b 05 d5 a4 00 00 	mov    rax,QWORD PTR [rip+0xa4d5]        # 140010008 <vmcs>
   140005b33:	48 8b 40 08          	mov    rax,QWORD PTR [rax+0x8]
   140005b37:	48 05 80 03 00 00    	add    rax,0x380
   140005b3d:	48 8b 00             	mov    rax,QWORD PTR [rax]
   140005b40:	48 89 45 60          	mov    QWORD PTR [rbp+0x60],rax
   140005b44:	48 8b 45 60          	mov    rax,QWORD PTR [rbp+0x60]
   140005b48:	48 89 c1             	mov    rcx,rax
   140005b4b:	e8 30 b9 ff ff       	call   140001480 <_ZN5rvm645crypt11decrypt_ptrEy>
   140005b50:	48 89 45 58          	mov    QWORD PTR [rbp+0x58],rax
   140005b54:	48 8b 45 58          	mov    rax,QWORD PTR [rbp+0x58]
   140005b58:	48 89 45 50          	mov    QWORD PTR [rbp+0x50],rax
   140005b5c:	48 8b 45 50          	mov    rax,QWORD PTR [rbp+0x50]
   140005b60:	ff d0                	call   rax
   140005b62:	eb 37                	jmp    140005b9b <_ZN5rvm647decoder9vm_decodeEj+0x285a>
   140005b64:	48 8b 05 9d a4 00 00 	mov    rax,QWORD PTR [rip+0xa49d]        # 140010008 <vmcs>
   140005b6b:	48 8b 40 08          	mov    rax,QWORD PTR [rax+0x8]
   140005b6f:	48 05 88 03 00 00    	add    rax,0x388
   140005b75:	48 8b 00             	mov    rax,QWORD PTR [rax]
   140005b78:	48 89 45 78          	mov    QWORD PTR [rbp+0x78],rax
   140005b7c:	48 8b 45 78          	mov    rax,QWORD PTR [rbp+0x78]
   140005b80:	48 89 c1             	mov    rcx,rax
   140005b83:	e8 f8 b8 ff ff       	call   140001480 <_ZN5rvm645crypt11decrypt_ptrEy>
   140005b88:	48 89 45 70          	mov    QWORD PTR [rbp+0x70],rax
   140005b8c:	48 8b 45 70          	mov    rax,QWORD PTR [rbp+0x70]
   140005b90:	48 89 45 68          	mov    QWORD PTR [rbp+0x68],rax
   140005b94:	48 8b 45 68          	mov    rax,QWORD PTR [rbp+0x68]
   140005b98:	ff d0                	call   rax
   140005b9a:	90                   	nop
   140005b9b:	8b 85 20 0a 00 00    	mov    eax,DWORD PTR [rbp+0xa20]
   140005ba1:	c1 e8 07             	shr    eax,0x7
   140005ba4:	0f b6 d0             	movzx  edx,al
   140005ba7:	48 8b 05 5a a4 00 00 	mov    rax,QWORD PTR [rip+0xa45a]        # 140010008 <vmcs>
   140005bae:	83 e2 1f             	and    edx,0x1f
   140005bb1:	48 89 50 18          	mov    QWORD PTR [rax+0x18],rdx
   140005bb5:	8b 85 20 0a 00 00    	mov    eax,DWORD PTR [rbp+0xa20]
   140005bbb:	89 c1                	mov    ecx,eax
   140005bbd:	e8 8e 79 00 00       	call   14000d550 <_Z5imm_uj>
   140005bc2:	89 c2                	mov    edx,eax
   140005bc4:	48 8b 05 3d a4 00 00 	mov    rax,QWORD PTR [rip+0xa43d]        # 140010008 <vmcs>
   140005bcb:	48 63 d2             	movsxd rdx,edx
   140005bce:	48 89 50 38          	mov    QWORD PTR [rax+0x38],rdx
   140005bd2:	0f b6 85 07 0a 00 00 	movzx  eax,BYTE PTR [rbp+0xa07]
   140005bd9:	83 f8 17             	cmp    eax,0x17
   140005bdc:	74 3d                	je     140005c1b <_ZN5rvm647decoder9vm_decodeEj+0x28da>
   140005bde:	83 f8 37             	cmp    eax,0x37
   140005be1:	75 6f                	jne    140005c52 <_ZN5rvm647decoder9vm_decodeEj+0x2911>
   140005be3:	48 8b 05 1e a4 00 00 	mov    rax,QWORD PTR [rip+0xa41e]        # 140010008 <vmcs>
   140005bea:	48 8b 40 08          	mov    rax,QWORD PTR [rax+0x8]
   140005bee:	48 05 90 03 00 00    	add    rax,0x390
   140005bf4:	48 8b 00             	mov    rax,QWORD PTR [rax]
   140005bf7:	48 89 45 e8          	mov    QWORD PTR [rbp-0x18],rax
   140005bfb:	48 8b 45 e8          	mov    rax,QWORD PTR [rbp-0x18]
   140005bff:	48 89 c1             	mov    rcx,rax
   140005c02:	e8 79 b8 ff ff       	call   140001480 <_ZN5rvm645crypt11decrypt_ptrEy>
   140005c07:	48 89 45 e0          	mov    QWORD PTR [rbp-0x20],rax
   140005c0b:	48 8b 45 e0          	mov    rax,QWORD PTR [rbp-0x20]
   140005c0f:	48 89 45 d8          	mov    QWORD PTR [rbp-0x28],rax
   140005c13:	48 8b 45 d8          	mov    rax,QWORD PTR [rbp-0x28]
   140005c17:	ff d0                	call   rax
   140005c19:	eb 37                	jmp    140005c52 <_ZN5rvm647decoder9vm_decodeEj+0x2911>
   140005c1b:	48 8b 05 e6 a3 00 00 	mov    rax,QWORD PTR [rip+0xa3e6]        # 140010008 <vmcs>
   140005c22:	48 8b 40 08          	mov    rax,QWORD PTR [rax+0x8]
   140005c26:	48 05 98 03 00 00    	add    rax,0x398
   140005c2c:	48 8b 00             	mov    rax,QWORD PTR [rax]
   140005c2f:	48 89 45 d0          	mov    QWORD PTR [rbp-0x30],rax
   140005c33:	48 8b 45 d0          	mov    rax,QWORD PTR [rbp-0x30]
   140005c37:	48 89 c1             	mov    rcx,rax
   140005c3a:	e8 41 b8 ff ff       	call   140001480 <_ZN5rvm645crypt11decrypt_ptrEy>
   140005c3f:	48 89 45 c8          	mov    QWORD PTR [rbp-0x38],rax
   140005c43:	48 8b 45 c8          	mov    rax,QWORD PTR [rbp-0x38]
   140005c47:	48 89 45 c0          	mov    QWORD PTR [rbp-0x40],rax
   140005c4b:	48 8b 45 c0          	mov    rax,QWORD PTR [rbp-0x40]
   140005c4f:	ff d0                	call   rax
   140005c51:	90                   	nop
   140005c52:	8b 85 20 0a 00 00    	mov    eax,DWORD PTR [rbp+0xa20]
   140005c58:	c1 e8 07             	shr    eax,0x7
   140005c5b:	0f b6 d0             	movzx  edx,al
   140005c5e:	48 8b 05 a3 a3 00 00 	mov    rax,QWORD PTR [rip+0xa3a3]        # 140010008 <vmcs>
   140005c65:	83 e2 1f             	and    edx,0x1f
   140005c68:	48 89 50 18          	mov    QWORD PTR [rax+0x18],rdx
   140005c6c:	8b 85 20 0a 00 00    	mov    eax,DWORD PTR [rbp+0xa20]
   140005c72:	89 c1                	mov    ecx,eax
   140005c74:	e8 37 78 00 00       	call   14000d4b0 <_Z5imm_jj>
   140005c79:	89 c2                	mov    edx,eax
   140005c7b:	48 8b 05 86 a3 00 00 	mov    rax,QWORD PTR [rip+0xa386]        # 140010008 <vmcs>
   140005c82:	48 63 d2             	movsxd rdx,edx
   140005c85:	48 89 50 38          	mov    QWORD PTR [rax+0x38],rdx
   140005c89:	0f b6 85 07 0a 00 00 	movzx  eax,BYTE PTR [rbp+0xa07]
   140005c90:	83 f8 6f             	cmp    eax,0x6f
   140005c93:	75 37                	jne    140005ccc <_ZN5rvm647decoder9vm_decodeEj+0x298b>
   140005c95:	48 8b 05 6c a3 00 00 	mov    rax,QWORD PTR [rip+0xa36c]        # 140010008 <vmcs>
   140005c9c:	48 8b 40 08          	mov    rax,QWORD PTR [rax+0x8]
   140005ca0:	48 05 a0 03 00 00    	add    rax,0x3a0
   140005ca6:	48 8b 00             	mov    rax,QWORD PTR [rax]
   140005ca9:	48 89 45 b8          	mov    QWORD PTR [rbp-0x48],rax
   140005cad:	48 8b 45 b8          	mov    rax,QWORD PTR [rbp-0x48]
   140005cb1:	48 89 c1             	mov    rcx,rax
   140005cb4:	e8 c7 b7 ff ff       	call   140001480 <_ZN5rvm645crypt11decrypt_ptrEy>
   140005cb9:	48 89 45 b0          	mov    QWORD PTR [rbp-0x50],rax
   140005cbd:	48 8b 45 b0          	mov    rax,QWORD PTR [rbp-0x50]
   140005cc1:	48 89 45 a8          	mov    QWORD PTR [rbp-0x58],rax
   140005cc5:	48 8b 45 a8          	mov    rax,QWORD PTR [rbp-0x58]
   140005cc9:	ff d0                	call   rax
   140005ccb:	90                   	nop
   140005ccc:	90                   	nop
   140005ccd:	48 81 c4 90 0a 00 00 	add    rsp,0xa90
   140005cd4:	5d                   	pop    rbp
   140005cd5:	c3                   	ret

0000000140005cd6 <_ZN5rvm6410operations6is_nanEd>:
   140005cd6:	55                   	push   rbp
   140005cd7:	48 89 e5             	mov    rbp,rsp
   140005cda:	48 83 ec 10          	sub    rsp,0x10
   140005cde:	f2 0f 11 45 10       	movsd  QWORD PTR [rbp+0x10],xmm0
   140005ce3:	f2 0f 10 45 10       	movsd  xmm0,QWORD PTR [rbp+0x10]
   140005ce8:	f2 0f 11 05 50 f3 00 	movsd  QWORD PTR [rip+0xf350],xmm0        # 140015040 <_ZN5rvm6410operations9converterE>
   140005cef:	00 
   140005cf0:	48 8b 05 49 f3 00 00 	mov    rax,QWORD PTR [rip+0xf349]        # 140015040 <_ZN5rvm6410operations9converterE>
   140005cf7:	48 c1 e8 34          	shr    rax,0x34
   140005cfb:	25 ff 07 00 00       	and    eax,0x7ff
   140005d00:	48 89 45 f8          	mov    QWORD PTR [rbp-0x8],rax
   140005d04:	48 8b 05 35 f3 00 00 	mov    rax,QWORD PTR [rip+0xf335]        # 140015040 <_ZN5rvm6410operations9converterE>
   140005d0b:	48 ba ff ff ff ff ff 	movabs rdx,0xfffffffffffff
   140005d12:	ff 0f 00 
   140005d15:	48 21 d0             	and    rax,rdx
   140005d18:	48 89 45 f0          	mov    QWORD PTR [rbp-0x10],rax
   140005d1c:	48 81 7d f8 ff 07 00 	cmp    QWORD PTR [rbp-0x8],0x7ff
   140005d23:	00 
   140005d24:	75 0e                	jne    140005d34 <_ZN5rvm6410operations6is_nanEd+0x5e>
   140005d26:	48 83 7d f0 00       	cmp    QWORD PTR [rbp-0x10],0x0
   140005d2b:	74 07                	je     140005d34 <_ZN5rvm6410operations6is_nanEd+0x5e>
   140005d2d:	b8 01 00 00 00       	mov    eax,0x1
   140005d32:	eb 05                	jmp    140005d39 <_ZN5rvm6410operations6is_nanEd+0x63>
   140005d34:	b8 00 00 00 00       	mov    eax,0x0
   140005d39:	48 83 c4 10          	add    rsp,0x10
   140005d3d:	5d                   	pop    rbp
   140005d3e:	c3                   	ret

0000000140005d3f <_ZN5rvm6410operations5itype6rv_lrwEv>:
   140005d3f:	55                   	push   rbp
   140005d40:	48 89 e5             	mov    rbp,rsp
   140005d43:	48 83 ec 40          	sub    rsp,0x40
   140005d47:	c6 45 ff 00          	mov    BYTE PTR [rbp-0x1],0x0
   140005d4b:	c6 45 fe 00          	mov    BYTE PTR [rbp-0x2],0x0
   140005d4f:	48 c7 45 f0 00 00 00 	mov    QWORD PTR [rbp-0x10],0x0
   140005d56:	00 
   140005d57:	c7 45 ec 00 00 00 00 	mov    DWORD PTR [rbp-0x14],0x0
   140005d5e:	48 8b 05 a3 a2 00 00 	mov    rax,QWORD PTR [rip+0xa2a3]        # 140010008 <vmcs>
   140005d65:	48 8b 40 18          	mov    rax,QWORD PTR [rax+0x18]
   140005d69:	88 45 ff             	mov    BYTE PTR [rbp-0x1],al
   140005d6c:	48 8b 05 95 a2 00 00 	mov    rax,QWORD PTR [rip+0xa295]        # 140010008 <vmcs>
   140005d73:	48 8b 40 20          	mov    rax,QWORD PTR [rax+0x20]
   140005d77:	88 45 fe             	mov    BYTE PTR [rbp-0x2],al
   140005d7a:	48 8b 05 87 a2 00 00 	mov    rax,QWORD PTR [rip+0xa287]        # 140010008 <vmcs>
   140005d81:	0f b6 55 fe          	movzx  edx,BYTE PTR [rbp-0x2]
   140005d85:	48 63 d2             	movsxd rdx,edx
   140005d88:	48 83 c2 22          	add    rdx,0x22
   140005d8c:	48 8b 44 d0 08       	mov    rax,QWORD PTR [rax+rdx*8+0x8]
   140005d91:	48 89 45 f0          	mov    QWORD PTR [rbp-0x10],rax
   140005d95:	48 8b 05 64 a2 00 00 	mov    rax,QWORD PTR [rip+0xa264]        # 140010000 <__data_start__>
   140005d9c:	4c 8b 40 30          	mov    r8,QWORD PTR [rax+0x30]
   140005da0:	48 8b 05 69 a2 00 00 	mov    rax,QWORD PTR [rip+0xa269]        # 140010010 <vmcs_mutex>
   140005da7:	ba ff ff ff ff       	mov    edx,0xffffffff
   140005dac:	48 89 c1             	mov    rcx,rax
   140005daf:	41 ff d0             	call   r8
   140005db2:	48 8b 45 f0          	mov    rax,QWORD PTR [rbp-0x10]
   140005db6:	8b 00                	mov    eax,DWORD PTR [rax]
   140005db8:	89 45 ec             	mov    DWORD PTR [rbp-0x14],eax
   140005dbb:	48 8b 05 46 a2 00 00 	mov    rax,QWORD PTR [rip+0xa246]        # 140010008 <vmcs>
   140005dc2:	0f b6 4d ff          	movzx  ecx,BYTE PTR [rbp-0x1]
   140005dc6:	8b 55 ec             	mov    edx,DWORD PTR [rbp-0x14]
   140005dc9:	48 63 d2             	movsxd rdx,edx
   140005dcc:	48 63 c9             	movsxd rcx,ecx
   140005dcf:	48 83 c1 22          	add    rcx,0x22
   140005dd3:	48 89 54 c8 08       	mov    QWORD PTR [rax+rcx*8+0x8],rdx
   140005dd8:	48 8b 05 21 a2 00 00 	mov    rax,QWORD PTR [rip+0xa221]        # 140010000 <__data_start__>
   140005ddf:	48 8b 50 40          	mov    rdx,QWORD PTR [rax+0x40]
   140005de3:	48 8b 05 26 a2 00 00 	mov    rax,QWORD PTR [rip+0xa226]        # 140010010 <vmcs_mutex>
   140005dea:	48 89 c1             	mov    rcx,rax
   140005ded:	ff d2                	call   rdx
   140005def:	90                   	nop
   140005df0:	48 83 c4 40          	add    rsp,0x40
   140005df4:	5d                   	pop    rbp
   140005df5:	c3                   	ret

0000000140005df6 <_ZN5rvm6410operations5itype6rv_lrdEv>:
   140005df6:	55                   	push   rbp
   140005df7:	48 89 e5             	mov    rbp,rsp
   140005dfa:	48 83 ec 40          	sub    rsp,0x40
   140005dfe:	c6 45 ff 00          	mov    BYTE PTR [rbp-0x1],0x0
   140005e02:	c6 45 fe 00          	mov    BYTE PTR [rbp-0x2],0x0
   140005e06:	48 c7 45 f0 00 00 00 	mov    QWORD PTR [rbp-0x10],0x0
   140005e0d:	00 
   140005e0e:	48 c7 45 e8 00 00 00 	mov    QWORD PTR [rbp-0x18],0x0
   140005e15:	00 
   140005e16:	48 8b 05 eb a1 00 00 	mov    rax,QWORD PTR [rip+0xa1eb]        # 140010008 <vmcs>
   140005e1d:	48 8b 40 18          	mov    rax,QWORD PTR [rax+0x18]
   140005e21:	88 45 ff             	mov    BYTE PTR [rbp-0x1],al
   140005e24:	48 8b 05 dd a1 00 00 	mov    rax,QWORD PTR [rip+0xa1dd]        # 140010008 <vmcs>
   140005e2b:	48 8b 40 20          	mov    rax,QWORD PTR [rax+0x20]
   140005e2f:	88 45 fe             	mov    BYTE PTR [rbp-0x2],al
   140005e32:	48 8b 05 cf a1 00 00 	mov    rax,QWORD PTR [rip+0xa1cf]        # 140010008 <vmcs>
   140005e39:	0f b6 55 fe          	movzx  edx,BYTE PTR [rbp-0x2]
   140005e3d:	48 63 d2             	movsxd rdx,edx
   140005e40:	48 83 c2 22          	add    rdx,0x22
   140005e44:	48 8b 44 d0 08       	mov    rax,QWORD PTR [rax+rdx*8+0x8]
   140005e49:	48 89 45 f0          	mov    QWORD PTR [rbp-0x10],rax
   140005e4d:	48 8b 05 ac a1 00 00 	mov    rax,QWORD PTR [rip+0xa1ac]        # 140010000 <__data_start__>
   140005e54:	4c 8b 40 30          	mov    r8,QWORD PTR [rax+0x30]
   140005e58:	48 8b 05 b1 a1 00 00 	mov    rax,QWORD PTR [rip+0xa1b1]        # 140010010 <vmcs_mutex>
   140005e5f:	ba ff ff ff ff       	mov    edx,0xffffffff
   140005e64:	48 89 c1             	mov    rcx,rax
   140005e67:	41 ff d0             	call   r8
   140005e6a:	48 8b 45 f0          	mov    rax,QWORD PTR [rbp-0x10]
   140005e6e:	48 8b 00             	mov    rax,QWORD PTR [rax]
   140005e71:	48 89 45 e8          	mov    QWORD PTR [rbp-0x18],rax
   140005e75:	48 8b 05 8c a1 00 00 	mov    rax,QWORD PTR [rip+0xa18c]        # 140010008 <vmcs>
   140005e7c:	0f b6 4d ff          	movzx  ecx,BYTE PTR [rbp-0x1]
   140005e80:	48 8b 55 e8          	mov    rdx,QWORD PTR [rbp-0x18]
   140005e84:	48 63 c9             	movsxd rcx,ecx
   140005e87:	48 83 c1 22          	add    rcx,0x22
   140005e8b:	48 89 54 c8 08       	mov    QWORD PTR [rax+rcx*8+0x8],rdx
   140005e90:	48 8b 05 69 a1 00 00 	mov    rax,QWORD PTR [rip+0xa169]        # 140010000 <__data_start__>
   140005e97:	48 8b 50 40          	mov    rdx,QWORD PTR [rax+0x40]
   140005e9b:	48 8b 05 6e a1 00 00 	mov    rax,QWORD PTR [rip+0xa16e]        # 140010010 <vmcs_mutex>
   140005ea2:	48 89 c1             	mov    rcx,rax
   140005ea5:	ff d2                	call   rdx
   140005ea7:	90                   	nop
   140005ea8:	48 83 c4 40          	add    rsp,0x40
   140005eac:	5d                   	pop    rbp
   140005ead:	c3                   	ret

0000000140005eae <_ZN5rvm6410operations5itype10rv_fmv_d_xEv>:
   140005eae:	55                   	push   rbp
   140005eaf:	48 89 e5             	mov    rbp,rsp
   140005eb2:	48 83 ec 10          	sub    rsp,0x10
   140005eb6:	c6 45 ff 00          	mov    BYTE PTR [rbp-0x1],0x0
   140005eba:	c6 45 fe 00          	mov    BYTE PTR [rbp-0x2],0x0
   140005ebe:	48 c7 45 f0 00 00 00 	mov    QWORD PTR [rbp-0x10],0x0
   140005ec5:	00 
   140005ec6:	48 8b 05 3b a1 00 00 	mov    rax,QWORD PTR [rip+0xa13b]        # 140010008 <vmcs>
   140005ecd:	48 8b 40 18          	mov    rax,QWORD PTR [rax+0x18]
   140005ed1:	88 45 ff             	mov    BYTE PTR [rbp-0x1],al
   140005ed4:	48 8b 05 2d a1 00 00 	mov    rax,QWORD PTR [rip+0xa12d]        # 140010008 <vmcs>
   140005edb:	48 8b 40 20          	mov    rax,QWORD PTR [rax+0x20]
   140005edf:	88 45 fe             	mov    BYTE PTR [rbp-0x2],al
   140005ee2:	48 8b 05 1f a1 00 00 	mov    rax,QWORD PTR [rip+0xa11f]        # 140010008 <vmcs>
   140005ee9:	0f b6 55 fe          	movzx  edx,BYTE PTR [rbp-0x2]
   140005eed:	48 63 d2             	movsxd rdx,edx
   140005ef0:	48 83 c2 22          	add    rdx,0x22
   140005ef4:	48 8b 44 d0 08       	mov    rax,QWORD PTR [rax+rdx*8+0x8]
   140005ef9:	48 89 45 f0          	mov    QWORD PTR [rbp-0x10],rax
   140005efd:	48 8b 05 04 a1 00 00 	mov    rax,QWORD PTR [rip+0xa104]        # 140010008 <vmcs>
   140005f04:	0f b6 4d ff          	movzx  ecx,BYTE PTR [rbp-0x1]
   140005f08:	48 8b 55 f0          	mov    rdx,QWORD PTR [rbp-0x10]
   140005f0c:	48 63 c9             	movsxd rcx,ecx
   140005f0f:	48 83 c1 22          	add    rcx,0x22
   140005f13:	48 89 54 c8 08       	mov    QWORD PTR [rax+rcx*8+0x8],rdx
   140005f18:	90                   	nop
   140005f19:	48 83 c4 10          	add    rsp,0x10
   140005f1d:	5d                   	pop    rbp
   140005f1e:	c3                   	ret

0000000140005f1f <_ZN5rvm6410operations5itype11rv_fcvt_s_dEv>:
   140005f1f:	55                   	push   rbp
   140005f20:	48 89 e5             	mov    rbp,rsp
   140005f23:	48 83 ec 10          	sub    rsp,0x10
   140005f27:	c6 45 ff 00          	mov    BYTE PTR [rbp-0x1],0x0
   140005f2b:	c6 45 fe 00          	mov    BYTE PTR [rbp-0x2],0x0
   140005f2f:	66 0f ef c0          	pxor   xmm0,xmm0
   140005f33:	f3 0f 11 45 f8       	movss  DWORD PTR [rbp-0x8],xmm0
   140005f38:	48 8b 05 c9 a0 00 00 	mov    rax,QWORD PTR [rip+0xa0c9]        # 140010008 <vmcs>
   140005f3f:	48 8b 40 18          	mov    rax,QWORD PTR [rax+0x18]
   140005f43:	88 45 ff             	mov    BYTE PTR [rbp-0x1],al
   140005f46:	48 8b 05 bb a0 00 00 	mov    rax,QWORD PTR [rip+0xa0bb]        # 140010008 <vmcs>
   140005f4d:	48 8b 40 20          	mov    rax,QWORD PTR [rax+0x20]
   140005f51:	88 45 fe             	mov    BYTE PTR [rbp-0x2],al
   140005f54:	48 8b 05 ad a0 00 00 	mov    rax,QWORD PTR [rip+0xa0ad]        # 140010008 <vmcs>
   140005f5b:	0f b6 55 fe          	movzx  edx,BYTE PTR [rbp-0x2]
   140005f5f:	48 63 d2             	movsxd rdx,edx
   140005f62:	48 83 c2 22          	add    rdx,0x22
   140005f66:	48 8b 44 d0 08       	mov    rax,QWORD PTR [rax+rdx*8+0x8]
   140005f6b:	48 85 c0             	test   rax,rax
   140005f6e:	78 0b                	js     140005f7b <_ZN5rvm6410operations5itype11rv_fcvt_s_dEv+0x5c>
   140005f70:	66 0f ef c0          	pxor   xmm0,xmm0
   140005f74:	f2 48 0f 2a c0       	cvtsi2sd xmm0,rax
   140005f79:	eb 19                	jmp    140005f94 <_ZN5rvm6410operations5itype11rv_fcvt_s_dEv+0x75>
   140005f7b:	48 89 c2             	mov    rdx,rax
   140005f7e:	48 d1 ea             	shr    rdx,1
   140005f81:	83 e0 01             	and    eax,0x1
   140005f84:	48 09 c2             	or     rdx,rax
   140005f87:	66 0f ef c0          	pxor   xmm0,xmm0
   140005f8b:	f2 48 0f 2a c2       	cvtsi2sd xmm0,rdx
   140005f90:	f2 0f 58 c0          	addsd  xmm0,xmm0
   140005f94:	f2 0f 5a c0          	cvtsd2ss xmm0,xmm0
   140005f98:	f3 0f 11 45 f8       	movss  DWORD PTR [rbp-0x8],xmm0
   140005f9d:	48 8b 15 64 a0 00 00 	mov    rdx,QWORD PTR [rip+0xa064]        # 140010008 <vmcs>
   140005fa4:	0f b6 4d ff          	movzx  ecx,BYTE PTR [rbp-0x1]
   140005fa8:	f3 0f 10 45 f8       	movss  xmm0,DWORD PTR [rbp-0x8]
   140005fad:	0f 2f 05 04 b9 00 00 	comiss xmm0,DWORD PTR [rip+0xb904]        # 1400118b8 <_ZL14dispatch_table+0x3b8>
   140005fb4:	73 0c                	jae    140005fc2 <_ZN5rvm6410operations5itype11rv_fcvt_s_dEv+0xa3>
   140005fb6:	f3 0f 10 45 f8       	movss  xmm0,DWORD PTR [rbp-0x8]
   140005fbb:	f3 48 0f 2c c0       	cvttss2si rax,xmm0
   140005fc0:	eb 23                	jmp    140005fe5 <_ZN5rvm6410operations5itype11rv_fcvt_s_dEv+0xc6>
   140005fc2:	f3 0f 10 45 f8       	movss  xmm0,DWORD PTR [rbp-0x8]
   140005fc7:	f3 0f 10 0d e9 b8 00 	movss  xmm1,DWORD PTR [rip+0xb8e9]        # 1400118b8 <_ZL14dispatch_table+0x3b8>
   140005fce:	00 
   140005fcf:	f3 0f 5c c1          	subss  xmm0,xmm1
   140005fd3:	f3 48 0f 2c c0       	cvttss2si rax,xmm0
   140005fd8:	49 b8 00 00 00 00 00 	movabs r8,0x8000000000000000
   140005fdf:	00 00 80 
   140005fe2:	4c 31 c0             	xor    rax,r8
   140005fe5:	48 63 c9             	movsxd rcx,ecx
   140005fe8:	48 83 c1 22          	add    rcx,0x22
   140005fec:	48 89 44 ca 08       	mov    QWORD PTR [rdx+rcx*8+0x8],rax
   140005ff1:	90                   	nop
   140005ff2:	48 83 c4 10          	add    rsp,0x10
   140005ff6:	5d                   	pop    rbp
   140005ff7:	c3                   	ret

0000000140005ff8 <_ZN5rvm6410operations5itype11rv_fcvt_d_sEv>:
   140005ff8:	55                   	push   rbp
   140005ff9:	48 89 e5             	mov    rbp,rsp
   140005ffc:	48 83 ec 10          	sub    rsp,0x10
   140006000:	c6 45 ff 00          	mov    BYTE PTR [rbp-0x1],0x0
   140006004:	c6 45 fe 00          	mov    BYTE PTR [rbp-0x2],0x0
   140006008:	66 0f ef c0          	pxor   xmm0,xmm0
   14000600c:	f2 0f 11 45 f0       	movsd  QWORD PTR [rbp-0x10],xmm0
   140006011:	48 8b 05 f0 9f 00 00 	mov    rax,QWORD PTR [rip+0x9ff0]        # 140010008 <vmcs>
   140006018:	48 8b 40 18          	mov    rax,QWORD PTR [rax+0x18]
   14000601c:	88 45 ff             	mov    BYTE PTR [rbp-0x1],al
   14000601f:	48 8b 05 e2 9f 00 00 	mov    rax,QWORD PTR [rip+0x9fe2]        # 140010008 <vmcs>
   140006026:	48 8b 40 20          	mov    rax,QWORD PTR [rax+0x20]
   14000602a:	88 45 fe             	mov    BYTE PTR [rbp-0x2],al
   14000602d:	48 8b 05 d4 9f 00 00 	mov    rax,QWORD PTR [rip+0x9fd4]        # 140010008 <vmcs>
   140006034:	0f b6 55 fe          	movzx  edx,BYTE PTR [rbp-0x2]
   140006038:	48 63 d2             	movsxd rdx,edx
   14000603b:	48 83 c2 22          	add    rdx,0x22
   14000603f:	48 8b 44 d0 08       	mov    rax,QWORD PTR [rax+rdx*8+0x8]
   140006044:	48 85 c0             	test   rax,rax
   140006047:	78 0b                	js     140006054 <_ZN5rvm6410operations5itype11rv_fcvt_d_sEv+0x5c>
   140006049:	66 0f ef c0          	pxor   xmm0,xmm0
   14000604d:	f3 48 0f 2a c0       	cvtsi2ss xmm0,rax
   140006052:	eb 19                	jmp    14000606d <_ZN5rvm6410operations5itype11rv_fcvt_d_sEv+0x75>
   140006054:	48 89 c2             	mov    rdx,rax
   140006057:	48 d1 ea             	shr    rdx,1
   14000605a:	83 e0 01             	and    eax,0x1
   14000605d:	48 09 c2             	or     rdx,rax
   140006060:	66 0f ef c0          	pxor   xmm0,xmm0
   140006064:	f3 48 0f 2a c2       	cvtsi2ss xmm0,rdx
   140006069:	f3 0f 58 c0          	addss  xmm0,xmm0
   14000606d:	f3 0f 5a c0          	cvtss2sd xmm0,xmm0
   140006071:	f2 0f 11 45 f0       	movsd  QWORD PTR [rbp-0x10],xmm0
   140006076:	48 8b 15 8b 9f 00 00 	mov    rdx,QWORD PTR [rip+0x9f8b]        # 140010008 <vmcs>
   14000607d:	0f b6 4d ff          	movzx  ecx,BYTE PTR [rbp-0x1]
   140006081:	f2 0f 10 45 f0       	movsd  xmm0,QWORD PTR [rbp-0x10]
   140006086:	66 0f 2f 05 32 b8 00 	comisd xmm0,QWORD PTR [rip+0xb832]        # 1400118c0 <_ZL14dispatch_table+0x3c0>
   14000608d:	00 
   14000608e:	73 0c                	jae    14000609c <_ZN5rvm6410operations5itype11rv_fcvt_d_sEv+0xa4>
   140006090:	f2 0f 10 45 f0       	movsd  xmm0,QWORD PTR [rbp-0x10]
   140006095:	f2 48 0f 2c c0       	cvttsd2si rax,xmm0
   14000609a:	eb 23                	jmp    1400060bf <_ZN5rvm6410operations5itype11rv_fcvt_d_sEv+0xc7>
   14000609c:	f2 0f 10 45 f0       	movsd  xmm0,QWORD PTR [rbp-0x10]
   1400060a1:	f2 0f 10 0d 17 b8 00 	movsd  xmm1,QWORD PTR [rip+0xb817]        # 1400118c0 <_ZL14dispatch_table+0x3c0>
   1400060a8:	00 
   1400060a9:	f2 0f 5c c1          	subsd  xmm0,xmm1
   1400060ad:	f2 48 0f 2c c0       	cvttsd2si rax,xmm0
   1400060b2:	49 b8 00 00 00 00 00 	movabs r8,0x8000000000000000
   1400060b9:	00 00 80 
   1400060bc:	4c 31 c0             	xor    rax,r8
   1400060bf:	48 63 c9             	movsxd rcx,ecx
   1400060c2:	48 83 c1 22          	add    rcx,0x22
   1400060c6:	48 89 44 ca 08       	mov    QWORD PTR [rdx+rcx*8+0x8],rax
   1400060cb:	90                   	nop
   1400060cc:	48 83 c4 10          	add    rsp,0x10
   1400060d0:	5d                   	pop    rbp
   1400060d1:	c3                   	ret

00000001400060d2 <_ZN5rvm6410operations5itype11rv_fcvt_w_dEv>:
   1400060d2:	55                   	push   rbp
   1400060d3:	48 89 e5             	mov    rbp,rsp
   1400060d6:	48 83 ec 10          	sub    rsp,0x10
   1400060da:	c6 45 ff 00          	mov    BYTE PTR [rbp-0x1],0x0
   1400060de:	c6 45 fe 00          	mov    BYTE PTR [rbp-0x2],0x0
   1400060e2:	c7 45 f8 00 00 00 00 	mov    DWORD PTR [rbp-0x8],0x0
   1400060e9:	48 8b 05 18 9f 00 00 	mov    rax,QWORD PTR [rip+0x9f18]        # 140010008 <vmcs>
   1400060f0:	48 8b 40 18          	mov    rax,QWORD PTR [rax+0x18]
   1400060f4:	88 45 ff             	mov    BYTE PTR [rbp-0x1],al
   1400060f7:	48 8b 05 0a 9f 00 00 	mov    rax,QWORD PTR [rip+0x9f0a]        # 140010008 <vmcs>
   1400060fe:	48 8b 40 20          	mov    rax,QWORD PTR [rax+0x20]
   140006102:	88 45 fe             	mov    BYTE PTR [rbp-0x2],al
   140006105:	48 8b 05 fc 9e 00 00 	mov    rax,QWORD PTR [rip+0x9efc]        # 140010008 <vmcs>
   14000610c:	0f b6 55 fe          	movzx  edx,BYTE PTR [rbp-0x2]
   140006110:	48 63 d2             	movsxd rdx,edx
   140006113:	48 83 c2 22          	add    rdx,0x22
   140006117:	48 8b 44 d0 08       	mov    rax,QWORD PTR [rax+rdx*8+0x8]
   14000611c:	48 85 c0             	test   rax,rax
   14000611f:	78 0b                	js     14000612c <_ZN5rvm6410operations5itype11rv_fcvt_w_dEv+0x5a>
   140006121:	66 0f ef c0          	pxor   xmm0,xmm0
   140006125:	f2 48 0f 2a c0       	cvtsi2sd xmm0,rax
   14000612a:	eb 19                	jmp    140006145 <_ZN5rvm6410operations5itype11rv_fcvt_w_dEv+0x73>
   14000612c:	48 89 c2             	mov    rdx,rax
   14000612f:	48 d1 ea             	shr    rdx,1
   140006132:	83 e0 01             	and    eax,0x1
   140006135:	48 09 c2             	or     rdx,rax
   140006138:	66 0f ef c0          	pxor   xmm0,xmm0
   14000613c:	f2 48 0f 2a c2       	cvtsi2sd xmm0,rdx
   140006141:	f2 0f 58 c0          	addsd  xmm0,xmm0
   140006145:	f2 0f 2c c0          	cvttsd2si eax,xmm0
   140006149:	89 45 f8             	mov    DWORD PTR [rbp-0x8],eax
   14000614c:	48 8b 05 b5 9e 00 00 	mov    rax,QWORD PTR [rip+0x9eb5]        # 140010008 <vmcs>
   140006153:	0f b6 4d ff          	movzx  ecx,BYTE PTR [rbp-0x1]
   140006157:	8b 55 f8             	mov    edx,DWORD PTR [rbp-0x8]
   14000615a:	48 63 d2             	movsxd rdx,edx
   14000615d:	48 63 c9             	movsxd rcx,ecx
   140006160:	48 83 c1 22          	add    rcx,0x22
   140006164:	48 89 54 c8 08       	mov    QWORD PTR [rax+rcx*8+0x8],rdx
   140006169:	90                   	nop
   14000616a:	48 83 c4 10          	add    rsp,0x10
   14000616e:	5d                   	pop    rbp
   14000616f:	c3                   	ret

0000000140006170 <_ZN5rvm6410operations5itype12rv_fcvt_wu_dEv>:
   140006170:	55                   	push   rbp
   140006171:	48 89 e5             	mov    rbp,rsp
   140006174:	48 83 ec 10          	sub    rsp,0x10
   140006178:	c6 45 ff 00          	mov    BYTE PTR [rbp-0x1],0x0
   14000617c:	c6 45 fe 00          	mov    BYTE PTR [rbp-0x2],0x0
   140006180:	c7 45 f8 00 00 00 00 	mov    DWORD PTR [rbp-0x8],0x0
   140006187:	48 8b 05 7a 9e 00 00 	mov    rax,QWORD PTR [rip+0x9e7a]        # 140010008 <vmcs>
   14000618e:	48 8b 40 18          	mov    rax,QWORD PTR [rax+0x18]
   140006192:	88 45 ff             	mov    BYTE PTR [rbp-0x1],al
   140006195:	48 8b 05 6c 9e 00 00 	mov    rax,QWORD PTR [rip+0x9e6c]        # 140010008 <vmcs>
   14000619c:	48 8b 40 20          	mov    rax,QWORD PTR [rax+0x20]
   1400061a0:	88 45 fe             	mov    BYTE PTR [rbp-0x2],al
   1400061a3:	48 8b 05 5e 9e 00 00 	mov    rax,QWORD PTR [rip+0x9e5e]        # 140010008 <vmcs>
   1400061aa:	0f b6 55 fe          	movzx  edx,BYTE PTR [rbp-0x2]
   1400061ae:	48 63 d2             	movsxd rdx,edx
   1400061b1:	48 83 c2 22          	add    rdx,0x22
   1400061b5:	48 8b 44 d0 08       	mov    rax,QWORD PTR [rax+rdx*8+0x8]
   1400061ba:	48 85 c0             	test   rax,rax
   1400061bd:	78 0b                	js     1400061ca <_ZN5rvm6410operations5itype12rv_fcvt_wu_dEv+0x5a>
   1400061bf:	66 0f ef c0          	pxor   xmm0,xmm0
   1400061c3:	f2 48 0f 2a c0       	cvtsi2sd xmm0,rax
   1400061c8:	eb 19                	jmp    1400061e3 <_ZN5rvm6410operations5itype12rv_fcvt_wu_dEv+0x73>
   1400061ca:	48 89 c2             	mov    rdx,rax
   1400061cd:	48 d1 ea             	shr    rdx,1
   1400061d0:	83 e0 01             	and    eax,0x1
   1400061d3:	48 09 c2             	or     rdx,rax
   1400061d6:	66 0f ef c0          	pxor   xmm0,xmm0
   1400061da:	f2 48 0f 2a c2       	cvtsi2sd xmm0,rdx
   1400061df:	f2 0f 58 c0          	addsd  xmm0,xmm0
   1400061e3:	f2 48 0f 2c c0       	cvttsd2si rax,xmm0
   1400061e8:	89 45 f8             	mov    DWORD PTR [rbp-0x8],eax
   1400061eb:	48 8b 05 16 9e 00 00 	mov    rax,QWORD PTR [rip+0x9e16]        # 140010008 <vmcs>
   1400061f2:	0f b6 4d ff          	movzx  ecx,BYTE PTR [rbp-0x1]
   1400061f6:	8b 55 f8             	mov    edx,DWORD PTR [rbp-0x8]
   1400061f9:	48 63 c9             	movsxd rcx,ecx
   1400061fc:	48 83 c1 22          	add    rcx,0x22
   140006200:	48 89 54 c8 08       	mov    QWORD PTR [rax+rcx*8+0x8],rdx
   140006205:	90                   	nop
   140006206:	48 83 c4 10          	add    rsp,0x10
   14000620a:	5d                   	pop    rbp
   14000620b:	c3                   	ret

000000014000620c <_ZN5rvm6410operations5itype11rv_fcvt_d_wEv>:
   14000620c:	55                   	push   rbp
   14000620d:	48 89 e5             	mov    rbp,rsp
   140006210:	48 83 ec 10          	sub    rsp,0x10
   140006214:	c6 45 ff 00          	mov    BYTE PTR [rbp-0x1],0x0
   140006218:	c6 45 fe 00          	mov    BYTE PTR [rbp-0x2],0x0
   14000621c:	c7 45 f8 00 00 00 00 	mov    DWORD PTR [rbp-0x8],0x0
   140006223:	48 8b 05 de 9d 00 00 	mov    rax,QWORD PTR [rip+0x9dde]        # 140010008 <vmcs>
   14000622a:	48 8b 40 18          	mov    rax,QWORD PTR [rax+0x18]
   14000622e:	88 45 ff             	mov    BYTE PTR [rbp-0x1],al
   140006231:	48 8b 05 d0 9d 00 00 	mov    rax,QWORD PTR [rip+0x9dd0]        # 140010008 <vmcs>
   140006238:	48 8b 40 20          	mov    rax,QWORD PTR [rax+0x20]
   14000623c:	88 45 fe             	mov    BYTE PTR [rbp-0x2],al
   14000623f:	48 8b 05 c2 9d 00 00 	mov    rax,QWORD PTR [rip+0x9dc2]        # 140010008 <vmcs>
   140006246:	0f b6 55 fe          	movzx  edx,BYTE PTR [rbp-0x2]
   14000624a:	48 63 d2             	movsxd rdx,edx
   14000624d:	48 83 c2 22          	add    rdx,0x22
   140006251:	48 8b 44 d0 08       	mov    rax,QWORD PTR [rax+rdx*8+0x8]
   140006256:	89 45 f8             	mov    DWORD PTR [rbp-0x8],eax
   140006259:	66 0f ef c0          	pxor   xmm0,xmm0
   14000625d:	f2 0f 2a 45 f8       	cvtsi2sd xmm0,DWORD PTR [rbp-0x8]
   140006262:	48 8b 15 9f 9d 00 00 	mov    rdx,QWORD PTR [rip+0x9d9f]        # 140010008 <vmcs>
   140006269:	0f b6 4d ff          	movzx  ecx,BYTE PTR [rbp-0x1]
   14000626d:	66 0f 2f 05 4b b6 00 	comisd xmm0,QWORD PTR [rip+0xb64b]        # 1400118c0 <_ZL14dispatch_table+0x3c0>
   140006274:	00 
   140006275:	73 07                	jae    14000627e <_ZN5rvm6410operations5itype11rv_fcvt_d_wEv+0x72>
   140006277:	f2 48 0f 2c c0       	cvttsd2si rax,xmm0
   14000627c:	eb 1e                	jmp    14000629c <_ZN5rvm6410operations5itype11rv_fcvt_d_wEv+0x90>
   14000627e:	f2 0f 10 0d 3a b6 00 	movsd  xmm1,QWORD PTR [rip+0xb63a]        # 1400118c0 <_ZL14dispatch_table+0x3c0>
   140006285:	00 
   140006286:	f2 0f 5c c1          	subsd  xmm0,xmm1
   14000628a:	f2 48 0f 2c c0       	cvttsd2si rax,xmm0
   14000628f:	49 b8 00 00 00 00 00 	movabs r8,0x8000000000000000
   140006296:	00 00 80 
   140006299:	4c 31 c0             	xor    rax,r8
   14000629c:	48 63 c9             	movsxd rcx,ecx
   14000629f:	48 83 c1 22          	add    rcx,0x22
   1400062a3:	48 89 44 ca 08       	mov    QWORD PTR [rdx+rcx*8+0x8],rax
   1400062a8:	90                   	nop
   1400062a9:	48 83 c4 10          	add    rsp,0x10
   1400062ad:	5d                   	pop    rbp
   1400062ae:	c3                   	ret

00000001400062af <_ZN5rvm6410operations5itype12rv_fcvt_d_wuEv>:
   1400062af:	55                   	push   rbp
   1400062b0:	48 89 e5             	mov    rbp,rsp
   1400062b3:	48 83 ec 10          	sub    rsp,0x10
   1400062b7:	c6 45 ff 00          	mov    BYTE PTR [rbp-0x1],0x0
   1400062bb:	c6 45 fe 00          	mov    BYTE PTR [rbp-0x2],0x0
   1400062bf:	c7 45 f8 00 00 00 00 	mov    DWORD PTR [rbp-0x8],0x0
   1400062c6:	48 8b 05 3b 9d 00 00 	mov    rax,QWORD PTR [rip+0x9d3b]        # 140010008 <vmcs>
   1400062cd:	48 8b 40 18          	mov    rax,QWORD PTR [rax+0x18]
   1400062d1:	88 45 ff             	mov    BYTE PTR [rbp-0x1],al
   1400062d4:	48 8b 05 2d 9d 00 00 	mov    rax,QWORD PTR [rip+0x9d2d]        # 140010008 <vmcs>
   1400062db:	48 8b 40 20          	mov    rax,QWORD PTR [rax+0x20]
   1400062df:	88 45 fe             	mov    BYTE PTR [rbp-0x2],al
   1400062e2:	48 8b 05 1f 9d 00 00 	mov    rax,QWORD PTR [rip+0x9d1f]        # 140010008 <vmcs>
   1400062e9:	0f b6 55 fe          	movzx  edx,BYTE PTR [rbp-0x2]
   1400062ed:	48 63 d2             	movsxd rdx,edx
   1400062f0:	48 83 c2 22          	add    rdx,0x22
   1400062f4:	48 8b 44 d0 08       	mov    rax,QWORD PTR [rax+rdx*8+0x8]
   1400062f9:	89 45 f8             	mov    DWORD PTR [rbp-0x8],eax
   1400062fc:	8b 45 f8             	mov    eax,DWORD PTR [rbp-0x8]
   1400062ff:	48 85 c0             	test   rax,rax
   140006302:	78 0b                	js     14000630f <_ZN5rvm6410operations5itype12rv_fcvt_d_wuEv+0x60>
   140006304:	66 0f ef c0          	pxor   xmm0,xmm0
   140006308:	f2 48 0f 2a c0       	cvtsi2sd xmm0,rax
   14000630d:	eb 19                	jmp    140006328 <_ZN5rvm6410operations5itype12rv_fcvt_d_wuEv+0x79>
   14000630f:	48 89 c2             	mov    rdx,rax
   140006312:	48 d1 ea             	shr    rdx,1
   140006315:	83 e0 01             	and    eax,0x1
   140006318:	48 09 c2             	or     rdx,rax
   14000631b:	66 0f ef c0          	pxor   xmm0,xmm0
   14000631f:	f2 48 0f 2a c2       	cvtsi2sd xmm0,rdx
   140006324:	f2 0f 58 c0          	addsd  xmm0,xmm0
   140006328:	48 8b 15 d9 9c 00 00 	mov    rdx,QWORD PTR [rip+0x9cd9]        # 140010008 <vmcs>
   14000632f:	0f b6 4d ff          	movzx  ecx,BYTE PTR [rbp-0x1]
   140006333:	66 0f 2f 05 85 b5 00 	comisd xmm0,QWORD PTR [rip+0xb585]        # 1400118c0 <_ZL14dispatch_table+0x3c0>
   14000633a:	00 
   14000633b:	73 07                	jae    140006344 <_ZN5rvm6410operations5itype12rv_fcvt_d_wuEv+0x95>
   14000633d:	f2 48 0f 2c c0       	cvttsd2si rax,xmm0
   140006342:	eb 1e                	jmp    140006362 <_ZN5rvm6410operations5itype12rv_fcvt_d_wuEv+0xb3>
   140006344:	f2 0f 10 0d 74 b5 00 	movsd  xmm1,QWORD PTR [rip+0xb574]        # 1400118c0 <_ZL14dispatch_table+0x3c0>
   14000634b:	00 
   14000634c:	f2 0f 5c c1          	subsd  xmm0,xmm1
   140006350:	f2 48 0f 2c c0       	cvttsd2si rax,xmm0
   140006355:	49 b8 00 00 00 00 00 	movabs r8,0x8000000000000000
   14000635c:	00 00 80 
   14000635f:	4c 31 c0             	xor    rax,r8
   140006362:	48 63 c9             	movsxd rcx,ecx
   140006365:	48 83 c1 22          	add    rcx,0x22
   140006369:	48 89 44 ca 08       	mov    QWORD PTR [rdx+rcx*8+0x8],rax
   14000636e:	90                   	nop
   14000636f:	48 83 c4 10          	add    rsp,0x10
   140006373:	5d                   	pop    rbp
   140006374:	c3                   	ret

0000000140006375 <_ZN5rvm6410operations5itype11rv_fclass_dEv>:
   140006375:	55                   	push   rbp
   140006376:	48 89 e5             	mov    rbp,rsp
   140006379:	48 83 ec 30          	sub    rsp,0x30
   14000637d:	c6 45 ff 00          	mov    BYTE PTR [rbp-0x1],0x0
   140006381:	c6 45 fe 00          	mov    BYTE PTR [rbp-0x2],0x0
   140006385:	66 0f ef c0          	pxor   xmm0,xmm0
   140006389:	f2 0f 11 45 f0       	movsd  QWORD PTR [rbp-0x10],xmm0
   14000638e:	48 8b 05 73 9c 00 00 	mov    rax,QWORD PTR [rip+0x9c73]        # 140010008 <vmcs>
   140006395:	48 8b 40 18          	mov    rax,QWORD PTR [rax+0x18]
   140006399:	88 45 ff             	mov    BYTE PTR [rbp-0x1],al
   14000639c:	48 8b 05 65 9c 00 00 	mov    rax,QWORD PTR [rip+0x9c65]        # 140010008 <vmcs>
   1400063a3:	48 8b 40 20          	mov    rax,QWORD PTR [rax+0x20]
   1400063a7:	88 45 fe             	mov    BYTE PTR [rbp-0x2],al
   1400063aa:	48 8b 05 57 9c 00 00 	mov    rax,QWORD PTR [rip+0x9c57]        # 140010008 <vmcs>
   1400063b1:	0f b6 55 fe          	movzx  edx,BYTE PTR [rbp-0x2]
   1400063b5:	48 63 d2             	movsxd rdx,edx
   1400063b8:	48 83 c2 22          	add    rdx,0x22
   1400063bc:	48 8b 44 d0 08       	mov    rax,QWORD PTR [rax+rdx*8+0x8]
   1400063c1:	48 85 c0             	test   rax,rax
   1400063c4:	78 0b                	js     1400063d1 <_ZN5rvm6410operations5itype11rv_fclass_dEv+0x5c>
   1400063c6:	66 0f ef c0          	pxor   xmm0,xmm0
   1400063ca:	f2 48 0f 2a c0       	cvtsi2sd xmm0,rax
   1400063cf:	eb 19                	jmp    1400063ea <_ZN5rvm6410operations5itype11rv_fclass_dEv+0x75>
   1400063d1:	48 89 c2             	mov    rdx,rax
   1400063d4:	48 d1 ea             	shr    rdx,1
   1400063d7:	83 e0 01             	and    eax,0x1
   1400063da:	48 09 c2             	or     rdx,rax
   1400063dd:	66 0f ef c0          	pxor   xmm0,xmm0
   1400063e1:	f2 48 0f 2a c2       	cvtsi2sd xmm0,rdx
   1400063e6:	f2 0f 58 c0          	addsd  xmm0,xmm0
   1400063ea:	f2 0f 11 45 f0       	movsd  QWORD PTR [rbp-0x10],xmm0
   1400063ef:	f2 0f 10 45 f0       	movsd  xmm0,QWORD PTR [rbp-0x10]
   1400063f4:	f2 0f 11 05 44 ec 00 	movsd  QWORD PTR [rip+0xec44],xmm0        # 140015040 <_ZN5rvm6410operations9converterE>
   1400063fb:	00 
   1400063fc:	48 8b 05 3d ec 00 00 	mov    rax,QWORD PTR [rip+0xec3d]        # 140015040 <_ZN5rvm6410operations9converterE>
   140006403:	48 c1 e8 34          	shr    rax,0x34
   140006407:	25 ff 07 00 00       	and    eax,0x7ff
   14000640c:	48 89 45 e8          	mov    QWORD PTR [rbp-0x18],rax
   140006410:	48 8b 05 29 ec 00 00 	mov    rax,QWORD PTR [rip+0xec29]        # 140015040 <_ZN5rvm6410operations9converterE>
   140006417:	48 ba ff ff ff ff ff 	movabs rdx,0xfffffffffffff
   14000641e:	ff 0f 00 
   140006421:	48 21 d0             	and    rax,rdx
   140006424:	48 89 45 e0          	mov    QWORD PTR [rbp-0x20],rax
   140006428:	48 8b 05 11 ec 00 00 	mov    rax,QWORD PTR [rip+0xec11]        # 140015040 <_ZN5rvm6410operations9converterE>
   14000642f:	48 c1 e8 3f          	shr    rax,0x3f
   140006433:	48 89 45 d8          	mov    QWORD PTR [rbp-0x28],rax
   140006437:	48 81 7d e8 ff 07 00 	cmp    QWORD PTR [rbp-0x18],0x7ff
   14000643e:	00 
   14000643f:	0f 85 a1 00 00 00    	jne    1400064e6 <_ZN5rvm6410operations5itype11rv_fclass_dEv+0x171>
   140006445:	48 83 7d e0 00       	cmp    QWORD PTR [rbp-0x20],0x0
   14000644a:	75 47                	jne    140006493 <_ZN5rvm6410operations5itype11rv_fclass_dEv+0x11e>
   14000644c:	48 83 7d d8 00       	cmp    QWORD PTR [rbp-0x28],0x0
   140006451:	75 20                	jne    140006473 <_ZN5rvm6410operations5itype11rv_fclass_dEv+0xfe>
   140006453:	48 8b 05 ae 9b 00 00 	mov    rax,QWORD PTR [rip+0x9bae]        # 140010008 <vmcs>
   14000645a:	0f b6 55 ff          	movzx  edx,BYTE PTR [rbp-0x1]
   14000645e:	48 63 d2             	movsxd rdx,edx
   140006461:	48 83 c2 22          	add    rdx,0x22
   140006465:	48 c7 44 d0 08 07 00 	mov    QWORD PTR [rax+rdx*8+0x8],0x7
   14000646c:	00 00 
   14000646e:	e9 4c 01 00 00       	jmp    1400065bf <_ZN5rvm6410operations5itype11rv_fclass_dEv+0x24a>
   140006473:	48 8b 05 8e 9b 00 00 	mov    rax,QWORD PTR [rip+0x9b8e]        # 140010008 <vmcs>
   14000647a:	0f b6 55 ff          	movzx  edx,BYTE PTR [rbp-0x1]
   14000647e:	48 63 d2             	movsxd rdx,edx
   140006481:	48 83 c2 22          	add    rdx,0x22
   140006485:	48 c7 44 d0 08 00 00 	mov    QWORD PTR [rax+rdx*8+0x8],0x0
   14000648c:	00 00 
   14000648e:	e9 2c 01 00 00       	jmp    1400065bf <_ZN5rvm6410operations5itype11rv_fclass_dEv+0x24a>
   140006493:	48 b8 00 00 00 00 00 	movabs rax,0x8000000000000
   14000649a:	00 08 00 
   14000649d:	48 23 45 e0          	and    rax,QWORD PTR [rbp-0x20]
   1400064a1:	48 85 c0             	test   rax,rax
   1400064a4:	74 20                	je     1400064c6 <_ZN5rvm6410operations5itype11rv_fclass_dEv+0x151>
   1400064a6:	48 8b 05 5b 9b 00 00 	mov    rax,QWORD PTR [rip+0x9b5b]        # 140010008 <vmcs>
   1400064ad:	0f b6 55 ff          	movzx  edx,BYTE PTR [rbp-0x1]
   1400064b1:	48 63 d2             	movsxd rdx,edx
   1400064b4:	48 83 c2 22          	add    rdx,0x22
   1400064b8:	48 c7 44 d0 08 08 00 	mov    QWORD PTR [rax+rdx*8+0x8],0x8
   1400064bf:	00 00 
   1400064c1:	e9 f9 00 00 00       	jmp    1400065bf <_ZN5rvm6410operations5itype11rv_fclass_dEv+0x24a>
   1400064c6:	48 8b 05 3b 9b 00 00 	mov    rax,QWORD PTR [rip+0x9b3b]        # 140010008 <vmcs>
   1400064cd:	0f b6 55 ff          	movzx  edx,BYTE PTR [rbp-0x1]
   1400064d1:	48 63 d2             	movsxd rdx,edx
   1400064d4:	48 83 c2 22          	add    rdx,0x22
   1400064d8:	48 c7 44 d0 08 09 00 	mov    QWORD PTR [rax+rdx*8+0x8],0x9
   1400064df:	00 00 
   1400064e1:	e9 d9 00 00 00       	jmp    1400065bf <_ZN5rvm6410operations5itype11rv_fclass_dEv+0x24a>
   1400064e6:	48 83 7d e8 00       	cmp    QWORD PTR [rbp-0x18],0x0
   1400064eb:	0f 85 8f 00 00 00    	jne    140006580 <_ZN5rvm6410operations5itype11rv_fclass_dEv+0x20b>
   1400064f1:	48 83 7d e0 00       	cmp    QWORD PTR [rbp-0x20],0x0
   1400064f6:	75 47                	jne    14000653f <_ZN5rvm6410operations5itype11rv_fclass_dEv+0x1ca>
   1400064f8:	48 83 7d d8 00       	cmp    QWORD PTR [rbp-0x28],0x0
   1400064fd:	75 20                	jne    14000651f <_ZN5rvm6410operations5itype11rv_fclass_dEv+0x1aa>
   1400064ff:	48 8b 05 02 9b 00 00 	mov    rax,QWORD PTR [rip+0x9b02]        # 140010008 <vmcs>
   140006506:	0f b6 55 ff          	movzx  edx,BYTE PTR [rbp-0x1]
   14000650a:	48 63 d2             	movsxd rdx,edx
   14000650d:	48 83 c2 22          	add    rdx,0x22
   140006511:	48 c7 44 d0 08 04 00 	mov    QWORD PTR [rax+rdx*8+0x8],0x4
   140006518:	00 00 
   14000651a:	e9 a0 00 00 00       	jmp    1400065bf <_ZN5rvm6410operations5itype11rv_fclass_dEv+0x24a>
   14000651f:	48 8b 05 e2 9a 00 00 	mov    rax,QWORD PTR [rip+0x9ae2]        # 140010008 <vmcs>
   140006526:	0f b6 55 ff          	movzx  edx,BYTE PTR [rbp-0x1]
   14000652a:	48 63 d2             	movsxd rdx,edx
   14000652d:	48 83 c2 22          	add    rdx,0x22
   140006531:	48 c7 44 d0 08 03 00 	mov    QWORD PTR [rax+rdx*8+0x8],0x3
   140006538:	00 00 
   14000653a:	e9 80 00 00 00       	jmp    1400065bf <_ZN5rvm6410operations5itype11rv_fclass_dEv+0x24a>
   14000653f:	48 83 7d d8 00       	cmp    QWORD PTR [rbp-0x28],0x0
   140006544:	75 1d                	jne    140006563 <_ZN5rvm6410operations5itype11rv_fclass_dEv+0x1ee>
   140006546:	48 8b 05 bb 9a 00 00 	mov    rax,QWORD PTR [rip+0x9abb]        # 140010008 <vmcs>
   14000654d:	0f b6 55 ff          	movzx  edx,BYTE PTR [rbp-0x1]
   140006551:	48 63 d2             	movsxd rdx,edx
   140006554:	48 83 c2 22          	add    rdx,0x22
   140006558:	48 c7 44 d0 08 05 00 	mov    QWORD PTR [rax+rdx*8+0x8],0x5
   14000655f:	00 00 
   140006561:	eb 5c                	jmp    1400065bf <_ZN5rvm6410operations5itype11rv_fclass_dEv+0x24a>
   140006563:	48 8b 05 9e 9a 00 00 	mov    rax,QWORD PTR [rip+0x9a9e]        # 140010008 <vmcs>
   14000656a:	0f b6 55 ff          	movzx  edx,BYTE PTR [rbp-0x1]
   14000656e:	48 63 d2             	movsxd rdx,edx
   140006571:	48 83 c2 22          	add    rdx,0x22
   140006575:	48 c7 44 d0 08 02 00 	mov    QWORD PTR [rax+rdx*8+0x8],0x2
   14000657c:	00 00 
   14000657e:	eb 3f                	jmp    1400065bf <_ZN5rvm6410operations5itype11rv_fclass_dEv+0x24a>
   140006580:	48 83 7d d8 00       	cmp    QWORD PTR [rbp-0x28],0x0
   140006585:	75 1d                	jne    1400065a4 <_ZN5rvm6410operations5itype11rv_fclass_dEv+0x22f>
   140006587:	48 8b 05 7a 9a 00 00 	mov    rax,QWORD PTR [rip+0x9a7a]        # 140010008 <vmcs>
   14000658e:	0f b6 55 ff          	movzx  edx,BYTE PTR [rbp-0x1]
   140006592:	48 63 d2             	movsxd rdx,edx
   140006595:	48 83 c2 22          	add    rdx,0x22
   140006599:	48 c7 44 d0 08 06 00 	mov    QWORD PTR [rax+rdx*8+0x8],0x6
   1400065a0:	00 00 
   1400065a2:	eb 1b                	jmp    1400065bf <_ZN5rvm6410operations5itype11rv_fclass_dEv+0x24a>
   1400065a4:	48 8b 05 5d 9a 00 00 	mov    rax,QWORD PTR [rip+0x9a5d]        # 140010008 <vmcs>
   1400065ab:	0f b6 55 ff          	movzx  edx,BYTE PTR [rbp-0x1]
   1400065af:	48 63 d2             	movsxd rdx,edx
   1400065b2:	48 83 c2 22          	add    rdx,0x22
   1400065b6:	48 c7 44 d0 08 01 00 	mov    QWORD PTR [rax+rdx*8+0x8],0x1
   1400065bd:	00 00 
   1400065bf:	90                   	nop
   1400065c0:	48 83 c4 30          	add    rsp,0x30
   1400065c4:	5d                   	pop    rbp
   1400065c5:	c3                   	ret

00000001400065c6 <_ZN5rvm6410operations5itype7rv_addiEv>:
   1400065c6:	55                   	push   rbp
   1400065c7:	48 89 e5             	mov    rbp,rsp
   1400065ca:	48 83 ec 10          	sub    rsp,0x10
   1400065ce:	c6 45 ff 00          	mov    BYTE PTR [rbp-0x1],0x0
   1400065d2:	c6 45 fe 00          	mov    BYTE PTR [rbp-0x2],0x0
   1400065d6:	c7 45 f8 00 00 00 00 	mov    DWORD PTR [rbp-0x8],0x0
   1400065dd:	c7 45 f4 00 00 00 00 	mov    DWORD PTR [rbp-0xc],0x0
   1400065e4:	48 8b 05 1d 9a 00 00 	mov    rax,QWORD PTR [rip+0x9a1d]        # 140010008 <vmcs>
   1400065eb:	48 8b 40 18          	mov    rax,QWORD PTR [rax+0x18]
   1400065ef:	88 45 ff             	mov    BYTE PTR [rbp-0x1],al
   1400065f2:	48 8b 05 0f 9a 00 00 	mov    rax,QWORD PTR [rip+0x9a0f]        # 140010008 <vmcs>
   1400065f9:	48 8b 40 20          	mov    rax,QWORD PTR [rax+0x20]
   1400065fd:	88 45 fe             	mov    BYTE PTR [rbp-0x2],al
   140006600:	48 8b 05 01 9a 00 00 	mov    rax,QWORD PTR [rip+0x9a01]        # 140010008 <vmcs>
   140006607:	48 8b 40 38          	mov    rax,QWORD PTR [rax+0x38]
   14000660b:	89 45 f8             	mov    DWORD PTR [rbp-0x8],eax
   14000660e:	48 8b 05 f3 99 00 00 	mov    rax,QWORD PTR [rip+0x99f3]        # 140010008 <vmcs>
   140006615:	0f b6 55 fe          	movzx  edx,BYTE PTR [rbp-0x2]
   140006619:	48 63 d2             	movsxd rdx,edx
   14000661c:	48 83 c2 22          	add    rdx,0x22
   140006620:	48 8b 44 d0 08       	mov    rax,QWORD PTR [rax+rdx*8+0x8]
   140006625:	89 45 f4             	mov    DWORD PTR [rbp-0xc],eax
   140006628:	8b 55 f4             	mov    edx,DWORD PTR [rbp-0xc]
   14000662b:	8b 45 f8             	mov    eax,DWORD PTR [rbp-0x8]
   14000662e:	01 c2                	add    edx,eax
   140006630:	48 8b 05 d1 99 00 00 	mov    rax,QWORD PTR [rip+0x99d1]        # 140010008 <vmcs>
   140006637:	0f b6 4d ff          	movzx  ecx,BYTE PTR [rbp-0x1]
   14000663b:	48 63 d2             	movsxd rdx,edx
   14000663e:	48 63 c9             	movsxd rcx,ecx
   140006641:	48 83 c1 22          	add    rcx,0x22
   140006645:	48 89 54 c8 08       	mov    QWORD PTR [rax+rcx*8+0x8],rdx
   14000664a:	90                   	nop
   14000664b:	48 83 c4 10          	add    rsp,0x10
   14000664f:	5d                   	pop    rbp
   140006650:	c3                   	ret

0000000140006651 <_ZN5rvm6410operations5itype7rv_sltiEv>:
   140006651:	55                   	push   rbp
   140006652:	48 89 e5             	mov    rbp,rsp
   140006655:	48 83 ec 10          	sub    rsp,0x10
   140006659:	c6 45 ff 00          	mov    BYTE PTR [rbp-0x1],0x0
   14000665d:	c6 45 fe 00          	mov    BYTE PTR [rbp-0x2],0x0
   140006661:	c7 45 f8 00 00 00 00 	mov    DWORD PTR [rbp-0x8],0x0
   140006668:	c7 45 f4 00 00 00 00 	mov    DWORD PTR [rbp-0xc],0x0
   14000666f:	48 8b 05 92 99 00 00 	mov    rax,QWORD PTR [rip+0x9992]        # 140010008 <vmcs>
   140006676:	48 8b 40 18          	mov    rax,QWORD PTR [rax+0x18]
   14000667a:	88 45 ff             	mov    BYTE PTR [rbp-0x1],al
   14000667d:	48 8b 05 84 99 00 00 	mov    rax,QWORD PTR [rip+0x9984]        # 140010008 <vmcs>
   140006684:	48 8b 40 20          	mov    rax,QWORD PTR [rax+0x20]
   140006688:	88 45 fe             	mov    BYTE PTR [rbp-0x2],al
   14000668b:	48 8b 05 76 99 00 00 	mov    rax,QWORD PTR [rip+0x9976]        # 140010008 <vmcs>
   140006692:	48 8b 40 38          	mov    rax,QWORD PTR [rax+0x38]
   140006696:	89 45 f8             	mov    DWORD PTR [rbp-0x8],eax
   140006699:	48 8b 05 68 99 00 00 	mov    rax,QWORD PTR [rip+0x9968]        # 140010008 <vmcs>
   1400066a0:	0f b6 55 fe          	movzx  edx,BYTE PTR [rbp-0x2]
   1400066a4:	48 63 d2             	movsxd rdx,edx
   1400066a7:	48 83 c2 22          	add    rdx,0x22
   1400066ab:	48 8b 44 d0 08       	mov    rax,QWORD PTR [rax+rdx*8+0x8]
   1400066b0:	89 45 f4             	mov    DWORD PTR [rbp-0xc],eax
   1400066b3:	8b 45 f4             	mov    eax,DWORD PTR [rbp-0xc]
   1400066b6:	3b 45 f8             	cmp    eax,DWORD PTR [rbp-0x8]
   1400066b9:	7d 07                	jge    1400066c2 <_ZN5rvm6410operations5itype7rv_sltiEv+0x71>
   1400066bb:	b9 01 00 00 00       	mov    ecx,0x1
   1400066c0:	eb 05                	jmp    1400066c7 <_ZN5rvm6410operations5itype7rv_sltiEv+0x76>
   1400066c2:	b9 00 00 00 00       	mov    ecx,0x0
   1400066c7:	48 8b 05 3a 99 00 00 	mov    rax,QWORD PTR [rip+0x993a]        # 140010008 <vmcs>
   1400066ce:	0f b6 55 ff          	movzx  edx,BYTE PTR [rbp-0x1]
   1400066d2:	48 63 d2             	movsxd rdx,edx
   1400066d5:	48 83 c2 22          	add    rdx,0x22
   1400066d9:	48 89 4c d0 08       	mov    QWORD PTR [rax+rdx*8+0x8],rcx
   1400066de:	90                   	nop
   1400066df:	48 83 c4 10          	add    rsp,0x10
   1400066e3:	5d                   	pop    rbp
   1400066e4:	c3                   	ret

00000001400066e5 <_ZN5rvm6410operations5itype8rv_sltiuEv>:
   1400066e5:	55                   	push   rbp
   1400066e6:	48 89 e5             	mov    rbp,rsp
   1400066e9:	48 83 ec 10          	sub    rsp,0x10
   1400066ed:	c6 45 ff 00          	mov    BYTE PTR [rbp-0x1],0x0
   1400066f1:	c6 45 fe 00          	mov    BYTE PTR [rbp-0x2],0x0
   1400066f5:	c7 45 f8 00 00 00 00 	mov    DWORD PTR [rbp-0x8],0x0
   1400066fc:	c7 45 f4 00 00 00 00 	mov    DWORD PTR [rbp-0xc],0x0
   140006703:	48 8b 05 fe 98 00 00 	mov    rax,QWORD PTR [rip+0x98fe]        # 140010008 <vmcs>
   14000670a:	48 8b 40 18          	mov    rax,QWORD PTR [rax+0x18]
   14000670e:	88 45 ff             	mov    BYTE PTR [rbp-0x1],al
   140006711:	48 8b 05 f0 98 00 00 	mov    rax,QWORD PTR [rip+0x98f0]        # 140010008 <vmcs>
   140006718:	48 8b 40 20          	mov    rax,QWORD PTR [rax+0x20]
   14000671c:	88 45 fe             	mov    BYTE PTR [rbp-0x2],al
   14000671f:	48 8b 05 e2 98 00 00 	mov    rax,QWORD PTR [rip+0x98e2]        # 140010008 <vmcs>
   140006726:	48 8b 40 38          	mov    rax,QWORD PTR [rax+0x38]
   14000672a:	89 45 f8             	mov    DWORD PTR [rbp-0x8],eax
   14000672d:	48 8b 05 d4 98 00 00 	mov    rax,QWORD PTR [rip+0x98d4]        # 140010008 <vmcs>
   140006734:	0f b6 55 fe          	movzx  edx,BYTE PTR [rbp-0x2]
   140006738:	48 63 d2             	movsxd rdx,edx
   14000673b:	48 83 c2 22          	add    rdx,0x22
   14000673f:	48 8b 44 d0 08       	mov    rax,QWORD PTR [rax+rdx*8+0x8]
   140006744:	89 45 f4             	mov    DWORD PTR [rbp-0xc],eax
   140006747:	8b 55 f4             	mov    edx,DWORD PTR [rbp-0xc]
   14000674a:	8b 45 f8             	mov    eax,DWORD PTR [rbp-0x8]
   14000674d:	39 c2                	cmp    edx,eax
   14000674f:	73 07                	jae    140006758 <_ZN5rvm6410operations5itype8rv_sltiuEv+0x73>
   140006751:	b9 01 00 00 00       	mov    ecx,0x1
   140006756:	eb 05                	jmp    14000675d <_ZN5rvm6410operations5itype8rv_sltiuEv+0x78>
   140006758:	b9 00 00 00 00       	mov    ecx,0x0
   14000675d:	48 8b 05 a4 98 00 00 	mov    rax,QWORD PTR [rip+0x98a4]        # 140010008 <vmcs>
   140006764:	0f b6 55 ff          	movzx  edx,BYTE PTR [rbp-0x1]
   140006768:	48 63 d2             	movsxd rdx,edx
   14000676b:	48 83 c2 22          	add    rdx,0x22
   14000676f:	48 89 4c d0 08       	mov    QWORD PTR [rax+rdx*8+0x8],rcx
   140006774:	90                   	nop
   140006775:	48 83 c4 10          	add    rsp,0x10
   140006779:	5d                   	pop    rbp
   14000677a:	c3                   	ret

000000014000677b <_ZN5rvm6410operations5itype7rv_xoriEv>:
   14000677b:	55                   	push   rbp
   14000677c:	48 89 e5             	mov    rbp,rsp
   14000677f:	48 83 ec 10          	sub    rsp,0x10
   140006783:	c6 45 ff 00          	mov    BYTE PTR [rbp-0x1],0x0
   140006787:	c6 45 fe 00          	mov    BYTE PTR [rbp-0x2],0x0
   14000678b:	c7 45 f8 00 00 00 00 	mov    DWORD PTR [rbp-0x8],0x0
   140006792:	c7 45 f4 00 00 00 00 	mov    DWORD PTR [rbp-0xc],0x0
   140006799:	48 8b 05 68 98 00 00 	mov    rax,QWORD PTR [rip+0x9868]        # 140010008 <vmcs>
   1400067a0:	48 8b 40 18          	mov    rax,QWORD PTR [rax+0x18]
   1400067a4:	88 45 ff             	mov    BYTE PTR [rbp-0x1],al
   1400067a7:	48 8b 05 5a 98 00 00 	mov    rax,QWORD PTR [rip+0x985a]        # 140010008 <vmcs>
   1400067ae:	48 8b 40 20          	mov    rax,QWORD PTR [rax+0x20]
   1400067b2:	88 45 fe             	mov    BYTE PTR [rbp-0x2],al
   1400067b5:	48 8b 05 4c 98 00 00 	mov    rax,QWORD PTR [rip+0x984c]        # 140010008 <vmcs>
   1400067bc:	48 8b 40 38          	mov    rax,QWORD PTR [rax+0x38]
   1400067c0:	89 45 f8             	mov    DWORD PTR [rbp-0x8],eax
   1400067c3:	48 8b 05 3e 98 00 00 	mov    rax,QWORD PTR [rip+0x983e]        # 140010008 <vmcs>
   1400067ca:	0f b6 55 fe          	movzx  edx,BYTE PTR [rbp-0x2]
   1400067ce:	48 63 d2             	movsxd rdx,edx
   1400067d1:	48 83 c2 22          	add    rdx,0x22
   1400067d5:	48 8b 44 d0 08       	mov    rax,QWORD PTR [rax+rdx*8+0x8]
   1400067da:	89 45 f4             	mov    DWORD PTR [rbp-0xc],eax
   1400067dd:	8b 45 f4             	mov    eax,DWORD PTR [rbp-0xc]
   1400067e0:	33 45 f8             	xor    eax,DWORD PTR [rbp-0x8]
   1400067e3:	89 c2                	mov    edx,eax
   1400067e5:	48 8b 05 1c 98 00 00 	mov    rax,QWORD PTR [rip+0x981c]        # 140010008 <vmcs>
   1400067ec:	0f b6 4d ff          	movzx  ecx,BYTE PTR [rbp-0x1]
   1400067f0:	48 63 d2             	movsxd rdx,edx
   1400067f3:	48 63 c9             	movsxd rcx,ecx
   1400067f6:	48 83 c1 22          	add    rcx,0x22
   1400067fa:	48 89 54 c8 08       	mov    QWORD PTR [rax+rcx*8+0x8],rdx
   1400067ff:	90                   	nop
   140006800:	48 83 c4 10          	add    rsp,0x10
   140006804:	5d                   	pop    rbp
   140006805:	c3                   	ret

0000000140006806 <_ZN5rvm6410operations5itype6rv_oriEv>:
   140006806:	55                   	push   rbp
   140006807:	48 89 e5             	mov    rbp,rsp
   14000680a:	48 83 ec 10          	sub    rsp,0x10
   14000680e:	c6 45 ff 00          	mov    BYTE PTR [rbp-0x1],0x0
   140006812:	c6 45 fe 00          	mov    BYTE PTR [rbp-0x2],0x0
   140006816:	c7 45 f8 00 00 00 00 	mov    DWORD PTR [rbp-0x8],0x0
   14000681d:	c7 45 f4 00 00 00 00 	mov    DWORD PTR [rbp-0xc],0x0
   140006824:	48 8b 05 dd 97 00 00 	mov    rax,QWORD PTR [rip+0x97dd]        # 140010008 <vmcs>
   14000682b:	0f b6 55 fe          	movzx  edx,BYTE PTR [rbp-0x2]
   14000682f:	48 63 d2             	movsxd rdx,edx
   140006832:	48 83 c2 22          	add    rdx,0x22
   140006836:	48 8b 44 d0 08       	mov    rax,QWORD PTR [rax+rdx*8+0x8]
   14000683b:	89 45 f4             	mov    DWORD PTR [rbp-0xc],eax
   14000683e:	8b 45 f4             	mov    eax,DWORD PTR [rbp-0xc]
   140006841:	0b 45 f8             	or     eax,DWORD PTR [rbp-0x8]
   140006844:	89 c2                	mov    edx,eax
   140006846:	48 8b 05 bb 97 00 00 	mov    rax,QWORD PTR [rip+0x97bb]        # 140010008 <vmcs>
   14000684d:	0f b6 4d ff          	movzx  ecx,BYTE PTR [rbp-0x1]
   140006851:	48 63 d2             	movsxd rdx,edx
   140006854:	48 63 c9             	movsxd rcx,ecx
   140006857:	48 83 c1 22          	add    rcx,0x22
   14000685b:	48 89 54 c8 08       	mov    QWORD PTR [rax+rcx*8+0x8],rdx
   140006860:	90                   	nop
   140006861:	48 83 c4 10          	add    rsp,0x10
   140006865:	5d                   	pop    rbp
   140006866:	c3                   	ret

0000000140006867 <_ZN5rvm6410operations5itype7rv_andiEv>:
   140006867:	55                   	push   rbp
   140006868:	48 89 e5             	mov    rbp,rsp
   14000686b:	48 83 ec 10          	sub    rsp,0x10
   14000686f:	c6 45 ff 00          	mov    BYTE PTR [rbp-0x1],0x0
   140006873:	c6 45 fe 00          	mov    BYTE PTR [rbp-0x2],0x0
   140006877:	c7 45 f8 00 00 00 00 	mov    DWORD PTR [rbp-0x8],0x0
   14000687e:	c7 45 f4 00 00 00 00 	mov    DWORD PTR [rbp-0xc],0x0
   140006885:	48 8b 05 7c 97 00 00 	mov    rax,QWORD PTR [rip+0x977c]        # 140010008 <vmcs>
   14000688c:	0f b6 55 fe          	movzx  edx,BYTE PTR [rbp-0x2]
   140006890:	48 63 d2             	movsxd rdx,edx
   140006893:	48 83 c2 22          	add    rdx,0x22
   140006897:	48 8b 44 d0 08       	mov    rax,QWORD PTR [rax+rdx*8+0x8]
   14000689c:	89 45 f4             	mov    DWORD PTR [rbp-0xc],eax
   14000689f:	8b 45 f4             	mov    eax,DWORD PTR [rbp-0xc]
   1400068a2:	23 45 f8             	and    eax,DWORD PTR [rbp-0x8]
   1400068a5:	89 c2                	mov    edx,eax
   1400068a7:	48 8b 05 5a 97 00 00 	mov    rax,QWORD PTR [rip+0x975a]        # 140010008 <vmcs>
   1400068ae:	0f b6 4d ff          	movzx  ecx,BYTE PTR [rbp-0x1]
   1400068b2:	48 63 d2             	movsxd rdx,edx
   1400068b5:	48 63 c9             	movsxd rcx,ecx
   1400068b8:	48 83 c1 22          	add    rcx,0x22
   1400068bc:	48 89 54 c8 08       	mov    QWORD PTR [rax+rcx*8+0x8],rdx
   1400068c1:	90                   	nop
   1400068c2:	48 83 c4 10          	add    rsp,0x10
   1400068c6:	5d                   	pop    rbp
   1400068c7:	c3                   	ret

00000001400068c8 <_ZN5rvm6410operations5itype7rv_slliEv>:
   1400068c8:	55                   	push   rbp
   1400068c9:	48 89 e5             	mov    rbp,rsp
   1400068cc:	48 83 ec 10          	sub    rsp,0x10
   1400068d0:	c6 45 ff 00          	mov    BYTE PTR [rbp-0x1],0x0
   1400068d4:	c6 45 fe 00          	mov    BYTE PTR [rbp-0x2],0x0
   1400068d8:	c7 45 f8 00 00 00 00 	mov    DWORD PTR [rbp-0x8],0x0
   1400068df:	c7 45 f4 00 00 00 00 	mov    DWORD PTR [rbp-0xc],0x0
   1400068e6:	48 8b 05 1b 97 00 00 	mov    rax,QWORD PTR [rip+0x971b]        # 140010008 <vmcs>
   1400068ed:	48 8b 40 18          	mov    rax,QWORD PTR [rax+0x18]
   1400068f1:	88 45 ff             	mov    BYTE PTR [rbp-0x1],al
   1400068f4:	48 8b 05 0d 97 00 00 	mov    rax,QWORD PTR [rip+0x970d]        # 140010008 <vmcs>
   1400068fb:	48 8b 40 20          	mov    rax,QWORD PTR [rax+0x20]
   1400068ff:	88 45 fe             	mov    BYTE PTR [rbp-0x2],al
   140006902:	48 8b 05 ff 96 00 00 	mov    rax,QWORD PTR [rip+0x96ff]        # 140010008 <vmcs>
   140006909:	8b 55 f8             	mov    edx,DWORD PTR [rbp-0x8]
   14000690c:	48 83 c2 02          	add    rdx,0x2
   140006910:	48 8b 44 d0 08       	mov    rax,QWORD PTR [rax+rdx*8+0x8]
   140006915:	89 45 f8             	mov    DWORD PTR [rbp-0x8],eax
   140006918:	48 8b 05 e9 96 00 00 	mov    rax,QWORD PTR [rip+0x96e9]        # 140010008 <vmcs>
   14000691f:	8b 55 f4             	mov    edx,DWORD PTR [rbp-0xc]
   140006922:	48 83 c2 22          	add    rdx,0x22
   140006926:	48 8b 44 d0 08       	mov    rax,QWORD PTR [rax+rdx*8+0x8]
   14000692b:	88 45 fe             	mov    BYTE PTR [rbp-0x2],al
   14000692e:	8b 45 f8             	mov    eax,DWORD PTR [rbp-0x8]
   140006931:	83 e0 1f             	and    eax,0x1f
   140006934:	8b 55 f4             	mov    edx,DWORD PTR [rbp-0xc]
   140006937:	89 c1                	mov    ecx,eax
   140006939:	d3 e2                	shl    edx,cl
   14000693b:	89 d1                	mov    ecx,edx
   14000693d:	48 8b 05 c4 96 00 00 	mov    rax,QWORD PTR [rip+0x96c4]        # 140010008 <vmcs>
   140006944:	0f b6 55 ff          	movzx  edx,BYTE PTR [rbp-0x1]
   140006948:	89 c9                	mov    ecx,ecx
   14000694a:	48 63 d2             	movsxd rdx,edx
   14000694d:	48 83 c2 22          	add    rdx,0x22
   140006951:	48 89 4c d0 08       	mov    QWORD PTR [rax+rdx*8+0x8],rcx
   140006956:	90                   	nop
   140006957:	48 83 c4 10          	add    rsp,0x10
   14000695b:	5d                   	pop    rbp
   14000695c:	c3                   	ret

000000014000695d <_ZN5rvm6410operations5itype7rv_srliEv>:
   14000695d:	55                   	push   rbp
   14000695e:	48 89 e5             	mov    rbp,rsp
   140006961:	48 83 ec 20          	sub    rsp,0x20
   140006965:	c6 45 ff 00          	mov    BYTE PTR [rbp-0x1],0x0
   140006969:	c6 45 fe 00          	mov    BYTE PTR [rbp-0x2],0x0
   14000696d:	48 c7 45 f0 00 00 00 	mov    QWORD PTR [rbp-0x10],0x0
   140006974:	00 
   140006975:	c7 45 ec 00 00 00 00 	mov    DWORD PTR [rbp-0x14],0x0
   14000697c:	48 8b 05 85 96 00 00 	mov    rax,QWORD PTR [rip+0x9685]        # 140010008 <vmcs>
   140006983:	48 8b 40 18          	mov    rax,QWORD PTR [rax+0x18]
   140006987:	88 45 ff             	mov    BYTE PTR [rbp-0x1],al
   14000698a:	48 8b 05 77 96 00 00 	mov    rax,QWORD PTR [rip+0x9677]        # 140010008 <vmcs>
   140006991:	48 8b 40 20          	mov    rax,QWORD PTR [rax+0x20]
   140006995:	88 45 fe             	mov    BYTE PTR [rbp-0x2],al
   140006998:	48 8b 05 69 96 00 00 	mov    rax,QWORD PTR [rip+0x9669]        # 140010008 <vmcs>
   14000699f:	8b 55 ec             	mov    edx,DWORD PTR [rbp-0x14]
   1400069a2:	48 83 c2 02          	add    rdx,0x2
   1400069a6:	48 8b 44 d0 08       	mov    rax,QWORD PTR [rax+rdx*8+0x8]
   1400069ab:	89 45 ec             	mov    DWORD PTR [rbp-0x14],eax
   1400069ae:	48 8b 05 53 96 00 00 	mov    rax,QWORD PTR [rip+0x9653]        # 140010008 <vmcs>
   1400069b5:	0f b6 55 fe          	movzx  edx,BYTE PTR [rbp-0x2]
   1400069b9:	48 63 d2             	movsxd rdx,edx
   1400069bc:	48 83 c2 22          	add    rdx,0x22
   1400069c0:	48 8b 44 d0 08       	mov    rax,QWORD PTR [rax+rdx*8+0x8]
   1400069c5:	89 c0                	mov    eax,eax
   1400069c7:	48 89 45 f0          	mov    QWORD PTR [rbp-0x10],rax
   1400069cb:	8b 45 ec             	mov    eax,DWORD PTR [rbp-0x14]
   1400069ce:	83 e0 1f             	and    eax,0x1f
   1400069d1:	48 8b 55 f0          	mov    rdx,QWORD PTR [rbp-0x10]
   1400069d5:	89 c1                	mov    ecx,eax
   1400069d7:	48 d3 fa             	sar    rdx,cl
   1400069da:	48 89 d0             	mov    rax,rdx
   1400069dd:	89 c1                	mov    ecx,eax
   1400069df:	48 8b 05 22 96 00 00 	mov    rax,QWORD PTR [rip+0x9622]        # 140010008 <vmcs>
   1400069e6:	0f b6 55 ff          	movzx  edx,BYTE PTR [rbp-0x1]
   1400069ea:	89 c9                	mov    ecx,ecx
   1400069ec:	48 63 d2             	movsxd rdx,edx
   1400069ef:	48 83 c2 22          	add    rdx,0x22
   1400069f3:	48 89 4c d0 08       	mov    QWORD PTR [rax+rdx*8+0x8],rcx
   1400069f8:	90                   	nop
   1400069f9:	48 83 c4 20          	add    rsp,0x20
   1400069fd:	5d                   	pop    rbp
   1400069fe:	c3                   	ret

00000001400069ff <_ZN5rvm6410operations5itype7rv_sraiEv>:
   1400069ff:	55                   	push   rbp
   140006a00:	48 89 e5             	mov    rbp,rsp
   140006a03:	48 83 ec 10          	sub    rsp,0x10
   140006a07:	c6 45 ff 00          	mov    BYTE PTR [rbp-0x1],0x0
   140006a0b:	c6 45 fe 00          	mov    BYTE PTR [rbp-0x2],0x0
   140006a0f:	c7 45 f8 00 00 00 00 	mov    DWORD PTR [rbp-0x8],0x0
   140006a16:	c7 45 f4 00 00 00 00 	mov    DWORD PTR [rbp-0xc],0x0
   140006a1d:	48 8b 05 e4 95 00 00 	mov    rax,QWORD PTR [rip+0x95e4]        # 140010008 <vmcs>
   140006a24:	48 8b 40 18          	mov    rax,QWORD PTR [rax+0x18]
   140006a28:	88 45 ff             	mov    BYTE PTR [rbp-0x1],al
   140006a2b:	48 8b 05 d6 95 00 00 	mov    rax,QWORD PTR [rip+0x95d6]        # 140010008 <vmcs>
   140006a32:	48 8b 40 20          	mov    rax,QWORD PTR [rax+0x20]
   140006a36:	88 45 fe             	mov    BYTE PTR [rbp-0x2],al
   140006a39:	48 8b 05 c8 95 00 00 	mov    rax,QWORD PTR [rip+0x95c8]        # 140010008 <vmcs>
   140006a40:	48 8b 40 38          	mov    rax,QWORD PTR [rax+0x38]
   140006a44:	89 45 f4             	mov    DWORD PTR [rbp-0xc],eax
   140006a47:	48 8b 05 ba 95 00 00 	mov    rax,QWORD PTR [rip+0x95ba]        # 140010008 <vmcs>
   140006a4e:	0f b6 55 fe          	movzx  edx,BYTE PTR [rbp-0x2]
   140006a52:	48 63 d2             	movsxd rdx,edx
   140006a55:	48 83 c2 22          	add    rdx,0x22
   140006a59:	48 8b 44 d0 08       	mov    rax,QWORD PTR [rax+rdx*8+0x8]
   140006a5e:	89 45 f8             	mov    DWORD PTR [rbp-0x8],eax
   140006a61:	8b 45 f4             	mov    eax,DWORD PTR [rbp-0xc]
   140006a64:	83 e0 1f             	and    eax,0x1f
   140006a67:	8b 55 f8             	mov    edx,DWORD PTR [rbp-0x8]
   140006a6a:	89 c1                	mov    ecx,eax
   140006a6c:	d3 fa                	sar    edx,cl
   140006a6e:	48 8b 05 93 95 00 00 	mov    rax,QWORD PTR [rip+0x9593]        # 140010008 <vmcs>
   140006a75:	0f b6 4d ff          	movzx  ecx,BYTE PTR [rbp-0x1]
   140006a79:	48 63 d2             	movsxd rdx,edx
   140006a7c:	48 63 c9             	movsxd rcx,ecx
   140006a7f:	48 83 c1 22          	add    rcx,0x22
   140006a83:	48 89 54 c8 08       	mov    QWORD PTR [rax+rcx*8+0x8],rdx
   140006a88:	90                   	nop
   140006a89:	48 83 c4 10          	add    rsp,0x10
   140006a8d:	5d                   	pop    rbp
   140006a8e:	c3                   	ret

0000000140006a8f <_ZN5rvm6410operations5itype8rv_addiwEv>:
   140006a8f:	55                   	push   rbp
   140006a90:	48 89 e5             	mov    rbp,rsp
   140006a93:	48 83 ec 10          	sub    rsp,0x10
   140006a97:	c6 45 ff 00          	mov    BYTE PTR [rbp-0x1],0x0
   140006a9b:	c6 45 fe 00          	mov    BYTE PTR [rbp-0x2],0x0
   140006a9f:	c7 45 f8 00 00 00 00 	mov    DWORD PTR [rbp-0x8],0x0
   140006aa6:	c7 45 f4 00 00 00 00 	mov    DWORD PTR [rbp-0xc],0x0
   140006aad:	48 8b 05 54 95 00 00 	mov    rax,QWORD PTR [rip+0x9554]        # 140010008 <vmcs>
   140006ab4:	48 8b 40 18          	mov    rax,QWORD PTR [rax+0x18]
   140006ab8:	88 45 ff             	mov    BYTE PTR [rbp-0x1],al
   140006abb:	48 8b 05 46 95 00 00 	mov    rax,QWORD PTR [rip+0x9546]        # 140010008 <vmcs>
   140006ac2:	48 8b 40 20          	mov    rax,QWORD PTR [rax+0x20]
   140006ac6:	88 45 fe             	mov    BYTE PTR [rbp-0x2],al
   140006ac9:	48 8b 05 38 95 00 00 	mov    rax,QWORD PTR [rip+0x9538]        # 140010008 <vmcs>
   140006ad0:	8b 55 f4             	mov    edx,DWORD PTR [rbp-0xc]
   140006ad3:	48 63 d2             	movsxd rdx,edx
   140006ad6:	48 83 c2 02          	add    rdx,0x2
   140006ada:	48 8b 44 d0 08       	mov    rax,QWORD PTR [rax+rdx*8+0x8]
   140006adf:	89 45 f4             	mov    DWORD PTR [rbp-0xc],eax
   140006ae2:	48 8b 05 1f 95 00 00 	mov    rax,QWORD PTR [rip+0x951f]        # 140010008 <vmcs>
   140006ae9:	0f b6 55 fe          	movzx  edx,BYTE PTR [rbp-0x2]
   140006aed:	48 63 d2             	movsxd rdx,edx
   140006af0:	48 83 c2 22          	add    rdx,0x22
   140006af4:	48 8b 44 d0 08       	mov    rax,QWORD PTR [rax+rdx*8+0x8]
   140006af9:	89 45 f8             	mov    DWORD PTR [rbp-0x8],eax
   140006afc:	8b 55 f8             	mov    edx,DWORD PTR [rbp-0x8]
   140006aff:	8b 45 f4             	mov    eax,DWORD PTR [rbp-0xc]
   140006b02:	01 c2                	add    edx,eax
   140006b04:	48 8b 05 fd 94 00 00 	mov    rax,QWORD PTR [rip+0x94fd]        # 140010008 <vmcs>
   140006b0b:	0f b6 4d ff          	movzx  ecx,BYTE PTR [rbp-0x1]
   140006b0f:	48 63 d2             	movsxd rdx,edx
   140006b12:	48 63 c9             	movsxd rcx,ecx
   140006b15:	48 83 c1 22          	add    rcx,0x22
   140006b19:	48 89 54 c8 08       	mov    QWORD PTR [rax+rcx*8+0x8],rdx
   140006b1e:	90                   	nop
   140006b1f:	48 83 c4 10          	add    rsp,0x10
   140006b23:	5d                   	pop    rbp
   140006b24:	c3                   	ret

0000000140006b25 <_ZN5rvm6410operations5itype8rv_slliwEv>:
   140006b25:	55                   	push   rbp
   140006b26:	48 89 e5             	mov    rbp,rsp
   140006b29:	48 83 ec 10          	sub    rsp,0x10
   140006b2d:	c6 45 ff 00          	mov    BYTE PTR [rbp-0x1],0x0
   140006b31:	c6 45 fe 00          	mov    BYTE PTR [rbp-0x2],0x0
   140006b35:	c7 45 f8 00 00 00 00 	mov    DWORD PTR [rbp-0x8],0x0
   140006b3c:	c7 45 f4 00 00 00 00 	mov    DWORD PTR [rbp-0xc],0x0
   140006b43:	48 8b 05 be 94 00 00 	mov    rax,QWORD PTR [rip+0x94be]        # 140010008 <vmcs>
   140006b4a:	48 8b 40 18          	mov    rax,QWORD PTR [rax+0x18]
   140006b4e:	88 45 ff             	mov    BYTE PTR [rbp-0x1],al
   140006b51:	48 8b 05 b0 94 00 00 	mov    rax,QWORD PTR [rip+0x94b0]        # 140010008 <vmcs>
   140006b58:	48 8b 40 20          	mov    rax,QWORD PTR [rax+0x20]
   140006b5c:	88 45 fe             	mov    BYTE PTR [rbp-0x2],al
   140006b5f:	48 8b 05 a2 94 00 00 	mov    rax,QWORD PTR [rip+0x94a2]        # 140010008 <vmcs>
   140006b66:	48 8b 40 38          	mov    rax,QWORD PTR [rax+0x38]
   140006b6a:	89 45 f4             	mov    DWORD PTR [rbp-0xc],eax
   140006b6d:	48 8b 05 94 94 00 00 	mov    rax,QWORD PTR [rip+0x9494]        # 140010008 <vmcs>
   140006b74:	0f b6 55 fe          	movzx  edx,BYTE PTR [rbp-0x2]
   140006b78:	48 63 d2             	movsxd rdx,edx
   140006b7b:	48 83 c2 22          	add    rdx,0x22
   140006b7f:	48 8b 44 d0 08       	mov    rax,QWORD PTR [rax+rdx*8+0x8]
   140006b84:	89 45 f8             	mov    DWORD PTR [rbp-0x8],eax
   140006b87:	8b 45 f4             	mov    eax,DWORD PTR [rbp-0xc]
   140006b8a:	c1 e8 05             	shr    eax,0x5
   140006b8d:	85 c0                	test   eax,eax
   140006b8f:	74 68                	je     140006bf9 <_ZN5rvm6410operations5itype8rv_slliwEv+0xd4>
   140006b91:	48 8b 15 70 94 00 00 	mov    rdx,QWORD PTR [rip+0x9470]        # 140010008 <vmcs>
   140006b98:	48 8b 05 69 94 00 00 	mov    rax,QWORD PTR [rip+0x9469]        # 140010008 <vmcs>
   140006b9f:	48 8b 12             	mov    rdx,QWORD PTR [rdx]
   140006ba2:	48 89 90 98 03 80 00 	mov    QWORD PTR [rax+0x800398],rdx
   140006ba9:	48 8b 05 58 94 00 00 	mov    rax,QWORD PTR [rip+0x9458]        # 140010008 <vmcs>
   140006bb0:	48 c7 80 a0 03 80 00 	mov    QWORD PTR [rax+0x8003a0],0xb02
   140006bb7:	02 0b 00 00 
   140006bbb:	48 8b 05 46 94 00 00 	mov    rax,QWORD PTR [rip+0x9446]        # 140010008 <vmcs>
   140006bc2:	48 c7 80 a8 03 80 00 	mov    QWORD PTR [rax+0x8003a8],0x0
   140006bc9:	00 00 00 00 
   140006bcd:	48 8b 05 34 94 00 00 	mov    rax,QWORD PTR [rip+0x9434]        # 140010008 <vmcs>
   140006bd4:	48 8d 50 18          	lea    rdx,[rax+0x18]
   140006bd8:	48 8b 05 29 94 00 00 	mov    rax,QWORD PTR [rip+0x9429]        # 140010008 <vmcs>
   140006bdf:	48 89 90 b0 03 80 00 	mov    QWORD PTR [rax+0x8003b0],rdx
   140006be6:	48 8b 05 1b 94 00 00 	mov    rax,QWORD PTR [rip+0x941b]        # 140010008 <vmcs>
   140006bed:	c7 80 b8 03 80 00 01 	mov    DWORD PTR [rax+0x8003b8],0x1
   140006bf4:	00 00 00 
   140006bf7:	cc                   	int3
   140006bf8:	90                   	nop
   140006bf9:	8b 45 f4             	mov    eax,DWORD PTR [rbp-0xc]
   140006bfc:	83 e0 1f             	and    eax,0x1f
   140006bff:	8b 55 f8             	mov    edx,DWORD PTR [rbp-0x8]
   140006c02:	89 c1                	mov    ecx,eax
   140006c04:	d3 e2                	shl    edx,cl
   140006c06:	48 8b 05 fb 93 00 00 	mov    rax,QWORD PTR [rip+0x93fb]        # 140010008 <vmcs>
   140006c0d:	0f b6 4d ff          	movzx  ecx,BYTE PTR [rbp-0x1]
   140006c11:	48 63 d2             	movsxd rdx,edx
   140006c14:	48 63 c9             	movsxd rcx,ecx
   140006c17:	48 83 c1 22          	add    rcx,0x22
   140006c1b:	48 89 54 c8 08       	mov    QWORD PTR [rax+rcx*8+0x8],rdx
   140006c20:	90                   	nop
   140006c21:	48 83 c4 10          	add    rsp,0x10
   140006c25:	5d                   	pop    rbp
   140006c26:	c3                   	ret

0000000140006c27 <_ZN5rvm6410operations5itype8rv_srliwEv>:
   140006c27:	55                   	push   rbp
   140006c28:	48 89 e5             	mov    rbp,rsp
   140006c2b:	48 83 ec 10          	sub    rsp,0x10
   140006c2f:	c6 45 ff 00          	mov    BYTE PTR [rbp-0x1],0x0
   140006c33:	c6 45 fe 00          	mov    BYTE PTR [rbp-0x2],0x0
   140006c37:	c7 45 f8 00 00 00 00 	mov    DWORD PTR [rbp-0x8],0x0
   140006c3e:	c7 45 f4 00 00 00 00 	mov    DWORD PTR [rbp-0xc],0x0
   140006c45:	48 8b 05 bc 93 00 00 	mov    rax,QWORD PTR [rip+0x93bc]        # 140010008 <vmcs>
   140006c4c:	48 8b 40 18          	mov    rax,QWORD PTR [rax+0x18]
   140006c50:	88 45 ff             	mov    BYTE PTR [rbp-0x1],al
   140006c53:	48 8b 05 ae 93 00 00 	mov    rax,QWORD PTR [rip+0x93ae]        # 140010008 <vmcs>
   140006c5a:	48 8b 40 20          	mov    rax,QWORD PTR [rax+0x20]
   140006c5e:	88 45 fe             	mov    BYTE PTR [rbp-0x2],al
   140006c61:	48 8b 05 a0 93 00 00 	mov    rax,QWORD PTR [rip+0x93a0]        # 140010008 <vmcs>
   140006c68:	48 8b 40 38          	mov    rax,QWORD PTR [rax+0x38]
   140006c6c:	89 45 f4             	mov    DWORD PTR [rbp-0xc],eax
   140006c6f:	48 8b 05 92 93 00 00 	mov    rax,QWORD PTR [rip+0x9392]        # 140010008 <vmcs>
   140006c76:	0f b6 55 fe          	movzx  edx,BYTE PTR [rbp-0x2]
   140006c7a:	48 63 d2             	movsxd rdx,edx
   140006c7d:	48 83 c2 22          	add    rdx,0x22
   140006c81:	48 8b 44 d0 08       	mov    rax,QWORD PTR [rax+rdx*8+0x8]
   140006c86:	89 45 f8             	mov    DWORD PTR [rbp-0x8],eax
   140006c89:	8b 45 f4             	mov    eax,DWORD PTR [rbp-0xc]
   140006c8c:	c1 e8 05             	shr    eax,0x5
   140006c8f:	85 c0                	test   eax,eax
   140006c91:	74 68                	je     140006cfb <_ZN5rvm6410operations5itype8rv_srliwEv+0xd4>
   140006c93:	48 8b 15 6e 93 00 00 	mov    rdx,QWORD PTR [rip+0x936e]        # 140010008 <vmcs>
   140006c9a:	48 8b 05 67 93 00 00 	mov    rax,QWORD PTR [rip+0x9367]        # 140010008 <vmcs>
   140006ca1:	48 8b 12             	mov    rdx,QWORD PTR [rdx]
   140006ca4:	48 89 90 98 03 80 00 	mov    QWORD PTR [rax+0x800398],rdx
   140006cab:	48 8b 05 56 93 00 00 	mov    rax,QWORD PTR [rip+0x9356]        # 140010008 <vmcs>
   140006cb2:	48 c7 80 a0 03 80 00 	mov    QWORD PTR [rax+0x8003a0],0xb02
   140006cb9:	02 0b 00 00 
   140006cbd:	48 8b 05 44 93 00 00 	mov    rax,QWORD PTR [rip+0x9344]        # 140010008 <vmcs>
   140006cc4:	48 c7 80 a8 03 80 00 	mov    QWORD PTR [rax+0x8003a8],0x0
   140006ccb:	00 00 00 00 
   140006ccf:	48 8b 05 32 93 00 00 	mov    rax,QWORD PTR [rip+0x9332]        # 140010008 <vmcs>
   140006cd6:	48 8d 50 18          	lea    rdx,[rax+0x18]
   140006cda:	48 8b 05 27 93 00 00 	mov    rax,QWORD PTR [rip+0x9327]        # 140010008 <vmcs>
   140006ce1:	48 89 90 b0 03 80 00 	mov    QWORD PTR [rax+0x8003b0],rdx
   140006ce8:	48 8b 05 19 93 00 00 	mov    rax,QWORD PTR [rip+0x9319]        # 140010008 <vmcs>
   140006cef:	c7 80 b8 03 80 00 01 	mov    DWORD PTR [rax+0x8003b8],0x1
   140006cf6:	00 00 00 
   140006cf9:	cc                   	int3
   140006cfa:	90                   	nop
   140006cfb:	8b 45 f4             	mov    eax,DWORD PTR [rbp-0xc]
   140006cfe:	83 e0 1f             	and    eax,0x1f
   140006d01:	8b 55 f8             	mov    edx,DWORD PTR [rbp-0x8]
   140006d04:	89 c1                	mov    ecx,eax
   140006d06:	d3 fa                	sar    edx,cl
   140006d08:	48 8b 05 f9 92 00 00 	mov    rax,QWORD PTR [rip+0x92f9]        # 140010008 <vmcs>
   140006d0f:	0f b6 4d ff          	movzx  ecx,BYTE PTR [rbp-0x1]
   140006d13:	48 63 d2             	movsxd rdx,edx
   140006d16:	48 63 c9             	movsxd rcx,ecx
   140006d19:	48 83 c1 22          	add    rcx,0x22
   140006d1d:	48 89 54 c8 08       	mov    QWORD PTR [rax+rcx*8+0x8],rdx
   140006d22:	90                   	nop
   140006d23:	48 83 c4 10          	add    rsp,0x10
   140006d27:	5d                   	pop    rbp
   140006d28:	c3                   	ret

0000000140006d29 <_ZN5rvm6410operations5itype8rv_sraiwEv>:
   140006d29:	55                   	push   rbp
   140006d2a:	48 89 e5             	mov    rbp,rsp
   140006d2d:	48 83 ec 10          	sub    rsp,0x10
   140006d31:	c6 45 ff 00          	mov    BYTE PTR [rbp-0x1],0x0
   140006d35:	c6 45 fe 00          	mov    BYTE PTR [rbp-0x2],0x0
   140006d39:	c7 45 f8 00 00 00 00 	mov    DWORD PTR [rbp-0x8],0x0
   140006d40:	c7 45 f4 00 00 00 00 	mov    DWORD PTR [rbp-0xc],0x0
   140006d47:	48 8b 05 ba 92 00 00 	mov    rax,QWORD PTR [rip+0x92ba]        # 140010008 <vmcs>
   140006d4e:	48 8b 40 18          	mov    rax,QWORD PTR [rax+0x18]
   140006d52:	88 45 ff             	mov    BYTE PTR [rbp-0x1],al
   140006d55:	48 8b 05 ac 92 00 00 	mov    rax,QWORD PTR [rip+0x92ac]        # 140010008 <vmcs>
   140006d5c:	48 8b 40 20          	mov    rax,QWORD PTR [rax+0x20]
   140006d60:	88 45 fe             	mov    BYTE PTR [rbp-0x2],al
   140006d63:	48 8b 05 9e 92 00 00 	mov    rax,QWORD PTR [rip+0x929e]        # 140010008 <vmcs>
   140006d6a:	48 8b 40 38          	mov    rax,QWORD PTR [rax+0x38]
   140006d6e:	89 45 f4             	mov    DWORD PTR [rbp-0xc],eax
   140006d71:	48 8b 05 90 92 00 00 	mov    rax,QWORD PTR [rip+0x9290]        # 140010008 <vmcs>
   140006d78:	0f b6 55 fe          	movzx  edx,BYTE PTR [rbp-0x2]
   140006d7c:	48 63 d2             	movsxd rdx,edx
   140006d7f:	48 83 c2 22          	add    rdx,0x22
   140006d83:	48 8b 44 d0 08       	mov    rax,QWORD PTR [rax+rdx*8+0x8]
   140006d88:	89 45 f8             	mov    DWORD PTR [rbp-0x8],eax
   140006d8b:	8b 45 f4             	mov    eax,DWORD PTR [rbp-0xc]
   140006d8e:	c1 e8 05             	shr    eax,0x5
   140006d91:	85 c0                	test   eax,eax
   140006d93:	74 68                	je     140006dfd <_ZN5rvm6410operations5itype8rv_sraiwEv+0xd4>
   140006d95:	48 8b 15 6c 92 00 00 	mov    rdx,QWORD PTR [rip+0x926c]        # 140010008 <vmcs>
   140006d9c:	48 8b 05 65 92 00 00 	mov    rax,QWORD PTR [rip+0x9265]        # 140010008 <vmcs>
   140006da3:	48 8b 12             	mov    rdx,QWORD PTR [rdx]
   140006da6:	48 89 90 98 03 80 00 	mov    QWORD PTR [rax+0x800398],rdx
   140006dad:	48 8b 05 54 92 00 00 	mov    rax,QWORD PTR [rip+0x9254]        # 140010008 <vmcs>
   140006db4:	48 c7 80 a0 03 80 00 	mov    QWORD PTR [rax+0x8003a0],0xb02
   140006dbb:	02 0b 00 00 
   140006dbf:	48 8b 05 42 92 00 00 	mov    rax,QWORD PTR [rip+0x9242]        # 140010008 <vmcs>
   140006dc6:	48 c7 80 a8 03 80 00 	mov    QWORD PTR [rax+0x8003a8],0x0
   140006dcd:	00 00 00 00 
   140006dd1:	48 8b 05 30 92 00 00 	mov    rax,QWORD PTR [rip+0x9230]        # 140010008 <vmcs>
   140006dd8:	48 8d 50 18          	lea    rdx,[rax+0x18]
   140006ddc:	48 8b 05 25 92 00 00 	mov    rax,QWORD PTR [rip+0x9225]        # 140010008 <vmcs>
   140006de3:	48 89 90 b0 03 80 00 	mov    QWORD PTR [rax+0x8003b0],rdx
   140006dea:	48 8b 05 17 92 00 00 	mov    rax,QWORD PTR [rip+0x9217]        # 140010008 <vmcs>
   140006df1:	c7 80 b8 03 80 00 01 	mov    DWORD PTR [rax+0x8003b8],0x1
   140006df8:	00 00 00 
   140006dfb:	cc                   	int3
   140006dfc:	90                   	nop
   140006dfd:	8b 45 f4             	mov    eax,DWORD PTR [rbp-0xc]
   140006e00:	83 e0 1f             	and    eax,0x1f
   140006e03:	8b 55 f8             	mov    edx,DWORD PTR [rbp-0x8]
   140006e06:	89 c1                	mov    ecx,eax
   140006e08:	d3 fa                	sar    edx,cl
   140006e0a:	48 8b 05 f7 91 00 00 	mov    rax,QWORD PTR [rip+0x91f7]        # 140010008 <vmcs>
   140006e11:	0f b6 4d ff          	movzx  ecx,BYTE PTR [rbp-0x1]
   140006e15:	48 63 d2             	movsxd rdx,edx
   140006e18:	48 63 c9             	movsxd rcx,ecx
   140006e1b:	48 83 c1 22          	add    rcx,0x22
   140006e1f:	48 89 54 c8 08       	mov    QWORD PTR [rax+rcx*8+0x8],rdx
   140006e24:	90                   	nop
   140006e25:	48 83 c4 10          	add    rsp,0x10
   140006e29:	5d                   	pop    rbp
   140006e2a:	c3                   	ret

0000000140006e2b <_ZN5rvm6410operations5itype5rv_lbEv>:
   140006e2b:	55                   	push   rbp
   140006e2c:	48 89 e5             	mov    rbp,rsp
   140006e2f:	48 83 ec 20          	sub    rsp,0x20
   140006e33:	c6 45 ff 00          	mov    BYTE PTR [rbp-0x1],0x0
   140006e37:	c6 45 fe 00          	mov    BYTE PTR [rbp-0x2],0x0
   140006e3b:	c7 45 f8 00 00 00 00 	mov    DWORD PTR [rbp-0x8],0x0
   140006e42:	48 c7 45 f0 00 00 00 	mov    QWORD PTR [rbp-0x10],0x0
   140006e49:	00 
   140006e4a:	c6 45 ef 00          	mov    BYTE PTR [rbp-0x11],0x0
   140006e4e:	48 8b 05 b3 91 00 00 	mov    rax,QWORD PTR [rip+0x91b3]        # 140010008 <vmcs>
   140006e55:	48 8b 40 18          	mov    rax,QWORD PTR [rax+0x18]
   140006e59:	88 45 ff             	mov    BYTE PTR [rbp-0x1],al
   140006e5c:	48 8b 05 a5 91 00 00 	mov    rax,QWORD PTR [rip+0x91a5]        # 140010008 <vmcs>
   140006e63:	48 8b 40 20          	mov    rax,QWORD PTR [rax+0x20]
   140006e67:	88 45 fe             	mov    BYTE PTR [rbp-0x2],al
   140006e6a:	48 8b 05 97 91 00 00 	mov    rax,QWORD PTR [rip+0x9197]        # 140010008 <vmcs>
   140006e71:	48 8b 40 38          	mov    rax,QWORD PTR [rax+0x38]
   140006e75:	89 45 f8             	mov    DWORD PTR [rbp-0x8],eax
   140006e78:	48 8b 05 89 91 00 00 	mov    rax,QWORD PTR [rip+0x9189]        # 140010008 <vmcs>
   140006e7f:	0f b6 55 fe          	movzx  edx,BYTE PTR [rbp-0x2]
   140006e83:	48 63 d2             	movsxd rdx,edx
   140006e86:	48 83 c2 22          	add    rdx,0x22
   140006e8a:	48 8b 44 d0 08       	mov    rax,QWORD PTR [rax+rdx*8+0x8]
   140006e8f:	48 89 45 f0          	mov    QWORD PTR [rbp-0x10],rax
   140006e93:	8b 45 f8             	mov    eax,DWORD PTR [rbp-0x8]
   140006e96:	48 98                	cdqe
   140006e98:	48 01 45 f0          	add    QWORD PTR [rbp-0x10],rax
   140006e9c:	48 8b 45 f0          	mov    rax,QWORD PTR [rbp-0x10]
   140006ea0:	0f b6 00             	movzx  eax,BYTE PTR [rax]
   140006ea3:	88 45 ef             	mov    BYTE PTR [rbp-0x11],al
   140006ea6:	48 8b 05 5b 91 00 00 	mov    rax,QWORD PTR [rip+0x915b]        # 140010008 <vmcs>
   140006ead:	0f b6 4d ff          	movzx  ecx,BYTE PTR [rbp-0x1]
   140006eb1:	48 0f be 55 ef       	movsx  rdx,BYTE PTR [rbp-0x11]
   140006eb6:	48 63 c9             	movsxd rcx,ecx
   140006eb9:	48 83 c1 22          	add    rcx,0x22
   140006ebd:	48 89 54 c8 08       	mov    QWORD PTR [rax+rcx*8+0x8],rdx
   140006ec2:	90                   	nop
   140006ec3:	48 83 c4 20          	add    rsp,0x20
   140006ec7:	5d                   	pop    rbp
   140006ec8:	c3                   	ret

0000000140006ec9 <_ZN5rvm6410operations5itype5rv_lhEv>:
   140006ec9:	55                   	push   rbp
   140006eca:	48 89 e5             	mov    rbp,rsp
   140006ecd:	48 83 ec 20          	sub    rsp,0x20
   140006ed1:	c6 45 ff 00          	mov    BYTE PTR [rbp-0x1],0x0
   140006ed5:	c6 45 fe 00          	mov    BYTE PTR [rbp-0x2],0x0
   140006ed9:	c7 45 f8 00 00 00 00 	mov    DWORD PTR [rbp-0x8],0x0
   140006ee0:	48 c7 45 f0 00 00 00 	mov    QWORD PTR [rbp-0x10],0x0
   140006ee7:	00 
   140006ee8:	66 c7 45 ee 00 00    	mov    WORD PTR [rbp-0x12],0x0
   140006eee:	48 8b 05 13 91 00 00 	mov    rax,QWORD PTR [rip+0x9113]        # 140010008 <vmcs>
   140006ef5:	48 8b 40 18          	mov    rax,QWORD PTR [rax+0x18]
   140006ef9:	88 45 ff             	mov    BYTE PTR [rbp-0x1],al
   140006efc:	48 8b 05 05 91 00 00 	mov    rax,QWORD PTR [rip+0x9105]        # 140010008 <vmcs>
   140006f03:	48 8b 40 20          	mov    rax,QWORD PTR [rax+0x20]
   140006f07:	88 45 fe             	mov    BYTE PTR [rbp-0x2],al
   140006f0a:	48 8b 05 f7 90 00 00 	mov    rax,QWORD PTR [rip+0x90f7]        # 140010008 <vmcs>
   140006f11:	48 8b 40 38          	mov    rax,QWORD PTR [rax+0x38]
   140006f15:	89 45 f8             	mov    DWORD PTR [rbp-0x8],eax
   140006f18:	48 8b 05 e9 90 00 00 	mov    rax,QWORD PTR [rip+0x90e9]        # 140010008 <vmcs>
   140006f1f:	0f b6 55 fe          	movzx  edx,BYTE PTR [rbp-0x2]
   140006f23:	48 63 d2             	movsxd rdx,edx
   140006f26:	48 83 c2 22          	add    rdx,0x22
   140006f2a:	48 8b 44 d0 08       	mov    rax,QWORD PTR [rax+rdx*8+0x8]
   140006f2f:	48 89 45 f0          	mov    QWORD PTR [rbp-0x10],rax
   140006f33:	8b 45 f8             	mov    eax,DWORD PTR [rbp-0x8]
   140006f36:	48 98                	cdqe
   140006f38:	48 01 45 f0          	add    QWORD PTR [rbp-0x10],rax
   140006f3c:	48 8b 45 f0          	mov    rax,QWORD PTR [rbp-0x10]
   140006f40:	0f b7 00             	movzx  eax,WORD PTR [rax]
   140006f43:	66 89 45 ee          	mov    WORD PTR [rbp-0x12],ax
   140006f47:	48 8b 05 ba 90 00 00 	mov    rax,QWORD PTR [rip+0x90ba]        # 140010008 <vmcs>
   140006f4e:	0f b6 4d ff          	movzx  ecx,BYTE PTR [rbp-0x1]
   140006f52:	48 0f bf 55 ee       	movsx  rdx,WORD PTR [rbp-0x12]
   140006f57:	48 63 c9             	movsxd rcx,ecx
   140006f5a:	48 83 c1 22          	add    rcx,0x22
   140006f5e:	48 89 54 c8 08       	mov    QWORD PTR [rax+rcx*8+0x8],rdx
   140006f63:	90                   	nop
   140006f64:	48 83 c4 20          	add    rsp,0x20
   140006f68:	5d                   	pop    rbp
   140006f69:	c3                   	ret

0000000140006f6a <_ZN5rvm6410operations5itype5rv_lwEv>:
   140006f6a:	55                   	push   rbp
   140006f6b:	48 89 e5             	mov    rbp,rsp
   140006f6e:	48 83 ec 20          	sub    rsp,0x20
   140006f72:	c6 45 ff 00          	mov    BYTE PTR [rbp-0x1],0x0
   140006f76:	c6 45 fe 00          	mov    BYTE PTR [rbp-0x2],0x0
   140006f7a:	c7 45 f8 00 00 00 00 	mov    DWORD PTR [rbp-0x8],0x0
   140006f81:	48 c7 45 f0 00 00 00 	mov    QWORD PTR [rbp-0x10],0x0
   140006f88:	00 
   140006f89:	c7 45 ec 00 00 00 00 	mov    DWORD PTR [rbp-0x14],0x0
   140006f90:	48 8b 05 71 90 00 00 	mov    rax,QWORD PTR [rip+0x9071]        # 140010008 <vmcs>
   140006f97:	48 8b 40 18          	mov    rax,QWORD PTR [rax+0x18]
   140006f9b:	88 45 ff             	mov    BYTE PTR [rbp-0x1],al
   140006f9e:	48 8b 05 63 90 00 00 	mov    rax,QWORD PTR [rip+0x9063]        # 140010008 <vmcs>
   140006fa5:	48 8b 40 20          	mov    rax,QWORD PTR [rax+0x20]
   140006fa9:	88 45 fe             	mov    BYTE PTR [rbp-0x2],al
   140006fac:	48 8b 05 55 90 00 00 	mov    rax,QWORD PTR [rip+0x9055]        # 140010008 <vmcs>
   140006fb3:	48 8b 40 38          	mov    rax,QWORD PTR [rax+0x38]
   140006fb7:	89 45 f8             	mov    DWORD PTR [rbp-0x8],eax
   140006fba:	48 8b 05 47 90 00 00 	mov    rax,QWORD PTR [rip+0x9047]        # 140010008 <vmcs>
   140006fc1:	0f b6 55 fe          	movzx  edx,BYTE PTR [rbp-0x2]
   140006fc5:	48 63 d2             	movsxd rdx,edx
   140006fc8:	48 83 c2 22          	add    rdx,0x22
   140006fcc:	48 8b 44 d0 08       	mov    rax,QWORD PTR [rax+rdx*8+0x8]
   140006fd1:	48 89 45 f0          	mov    QWORD PTR [rbp-0x10],rax
   140006fd5:	8b 45 f8             	mov    eax,DWORD PTR [rbp-0x8]
   140006fd8:	48 98                	cdqe
   140006fda:	48 01 45 f0          	add    QWORD PTR [rbp-0x10],rax
   140006fde:	48 8b 45 f0          	mov    rax,QWORD PTR [rbp-0x10]
   140006fe2:	8b 00                	mov    eax,DWORD PTR [rax]
   140006fe4:	89 45 ec             	mov    DWORD PTR [rbp-0x14],eax
   140006fe7:	48 8b 05 1a 90 00 00 	mov    rax,QWORD PTR [rip+0x901a]        # 140010008 <vmcs>
   140006fee:	0f b6 4d ff          	movzx  ecx,BYTE PTR [rbp-0x1]
   140006ff2:	8b 55 ec             	mov    edx,DWORD PTR [rbp-0x14]
   140006ff5:	48 63 d2             	movsxd rdx,edx
   140006ff8:	48 63 c9             	movsxd rcx,ecx
   140006ffb:	48 83 c1 22          	add    rcx,0x22
   140006fff:	48 89 54 c8 08       	mov    QWORD PTR [rax+rcx*8+0x8],rdx
   140007004:	90                   	nop
   140007005:	48 83 c4 20          	add    rsp,0x20
   140007009:	5d                   	pop    rbp
   14000700a:	c3                   	ret

000000014000700b <_ZN5rvm6410operations5itype6rv_lbuEv>:
   14000700b:	55                   	push   rbp
   14000700c:	48 89 e5             	mov    rbp,rsp
   14000700f:	48 83 ec 20          	sub    rsp,0x20
   140007013:	c6 45 ff 00          	mov    BYTE PTR [rbp-0x1],0x0
   140007017:	c6 45 fe 00          	mov    BYTE PTR [rbp-0x2],0x0
   14000701b:	c7 45 f8 00 00 00 00 	mov    DWORD PTR [rbp-0x8],0x0
   140007022:	48 c7 45 f0 00 00 00 	mov    QWORD PTR [rbp-0x10],0x0
   140007029:	00 
   14000702a:	c6 45 ef 00          	mov    BYTE PTR [rbp-0x11],0x0
   14000702e:	48 8b 05 d3 8f 00 00 	mov    rax,QWORD PTR [rip+0x8fd3]        # 140010008 <vmcs>
   140007035:	48 8b 40 18          	mov    rax,QWORD PTR [rax+0x18]
   140007039:	88 45 ff             	mov    BYTE PTR [rbp-0x1],al
   14000703c:	48 8b 05 c5 8f 00 00 	mov    rax,QWORD PTR [rip+0x8fc5]        # 140010008 <vmcs>
   140007043:	48 8b 40 20          	mov    rax,QWORD PTR [rax+0x20]
   140007047:	88 45 fe             	mov    BYTE PTR [rbp-0x2],al
   14000704a:	48 8b 05 b7 8f 00 00 	mov    rax,QWORD PTR [rip+0x8fb7]        # 140010008 <vmcs>
   140007051:	48 8b 40 38          	mov    rax,QWORD PTR [rax+0x38]
   140007055:	89 45 f8             	mov    DWORD PTR [rbp-0x8],eax
   140007058:	48 8b 05 a9 8f 00 00 	mov    rax,QWORD PTR [rip+0x8fa9]        # 140010008 <vmcs>
   14000705f:	0f b6 55 fe          	movzx  edx,BYTE PTR [rbp-0x2]
   140007063:	48 63 d2             	movsxd rdx,edx
   140007066:	48 83 c2 22          	add    rdx,0x22
   14000706a:	48 8b 44 d0 08       	mov    rax,QWORD PTR [rax+rdx*8+0x8]
   14000706f:	48 89 45 f0          	mov    QWORD PTR [rbp-0x10],rax
   140007073:	8b 45 f8             	mov    eax,DWORD PTR [rbp-0x8]
   140007076:	48 98                	cdqe
   140007078:	48 01 45 f0          	add    QWORD PTR [rbp-0x10],rax
   14000707c:	48 8b 45 f0          	mov    rax,QWORD PTR [rbp-0x10]
   140007080:	0f b6 00             	movzx  eax,BYTE PTR [rax]
   140007083:	88 45 ef             	mov    BYTE PTR [rbp-0x11],al
   140007086:	48 8b 05 7b 8f 00 00 	mov    rax,QWORD PTR [rip+0x8f7b]        # 140010008 <vmcs>
   14000708d:	0f b6 4d ff          	movzx  ecx,BYTE PTR [rbp-0x1]
   140007091:	0f b6 55 ef          	movzx  edx,BYTE PTR [rbp-0x11]
   140007095:	48 63 c9             	movsxd rcx,ecx
   140007098:	48 83 c1 22          	add    rcx,0x22
   14000709c:	48 89 54 c8 08       	mov    QWORD PTR [rax+rcx*8+0x8],rdx
   1400070a1:	90                   	nop
   1400070a2:	48 83 c4 20          	add    rsp,0x20
   1400070a6:	5d                   	pop    rbp
   1400070a7:	c3                   	ret

00000001400070a8 <_ZN5rvm6410operations5itype6rv_lhuEv>:
   1400070a8:	55                   	push   rbp
   1400070a9:	48 89 e5             	mov    rbp,rsp
   1400070ac:	48 83 ec 20          	sub    rsp,0x20
   1400070b0:	c6 45 ff 00          	mov    BYTE PTR [rbp-0x1],0x0
   1400070b4:	c6 45 fe 00          	mov    BYTE PTR [rbp-0x2],0x0
   1400070b8:	c7 45 f8 00 00 00 00 	mov    DWORD PTR [rbp-0x8],0x0
   1400070bf:	48 c7 45 f0 00 00 00 	mov    QWORD PTR [rbp-0x10],0x0
   1400070c6:	00 
   1400070c7:	66 c7 45 ee 00 00    	mov    WORD PTR [rbp-0x12],0x0
   1400070cd:	48 8b 05 34 8f 00 00 	mov    rax,QWORD PTR [rip+0x8f34]        # 140010008 <vmcs>
   1400070d4:	48 8b 40 18          	mov    rax,QWORD PTR [rax+0x18]
   1400070d8:	88 45 ff             	mov    BYTE PTR [rbp-0x1],al
   1400070db:	48 8b 05 26 8f 00 00 	mov    rax,QWORD PTR [rip+0x8f26]        # 140010008 <vmcs>
   1400070e2:	48 8b 40 20          	mov    rax,QWORD PTR [rax+0x20]
   1400070e6:	88 45 fe             	mov    BYTE PTR [rbp-0x2],al
   1400070e9:	48 8b 05 18 8f 00 00 	mov    rax,QWORD PTR [rip+0x8f18]        # 140010008 <vmcs>
   1400070f0:	48 8b 40 38          	mov    rax,QWORD PTR [rax+0x38]
   1400070f4:	89 45 f8             	mov    DWORD PTR [rbp-0x8],eax
   1400070f7:	48 8b 05 0a 8f 00 00 	mov    rax,QWORD PTR [rip+0x8f0a]        # 140010008 <vmcs>
   1400070fe:	0f b6 55 fe          	movzx  edx,BYTE PTR [rbp-0x2]
   140007102:	48 63 d2             	movsxd rdx,edx
   140007105:	48 83 c2 22          	add    rdx,0x22
   140007109:	48 8b 44 d0 08       	mov    rax,QWORD PTR [rax+rdx*8+0x8]
   14000710e:	48 89 45 f0          	mov    QWORD PTR [rbp-0x10],rax
   140007112:	8b 45 f8             	mov    eax,DWORD PTR [rbp-0x8]
   140007115:	48 98                	cdqe
   140007117:	48 01 45 f0          	add    QWORD PTR [rbp-0x10],rax
   14000711b:	48 8b 45 f0          	mov    rax,QWORD PTR [rbp-0x10]
   14000711f:	0f b7 00             	movzx  eax,WORD PTR [rax]
   140007122:	66 89 45 ee          	mov    WORD PTR [rbp-0x12],ax
   140007126:	48 8b 05 db 8e 00 00 	mov    rax,QWORD PTR [rip+0x8edb]        # 140010008 <vmcs>
   14000712d:	0f b6 4d ff          	movzx  ecx,BYTE PTR [rbp-0x1]
   140007131:	0f b7 55 ee          	movzx  edx,WORD PTR [rbp-0x12]
   140007135:	48 63 c9             	movsxd rcx,ecx
   140007138:	48 83 c1 22          	add    rcx,0x22
   14000713c:	48 89 54 c8 08       	mov    QWORD PTR [rax+rcx*8+0x8],rdx
   140007141:	90                   	nop
   140007142:	48 83 c4 20          	add    rsp,0x20
   140007146:	5d                   	pop    rbp
   140007147:	c3                   	ret

0000000140007148 <_ZN5rvm6410operations5itype6rv_lwuEv>:
   140007148:	55                   	push   rbp
   140007149:	48 89 e5             	mov    rbp,rsp
   14000714c:	48 83 ec 20          	sub    rsp,0x20
   140007150:	c6 45 ff 00          	mov    BYTE PTR [rbp-0x1],0x0
   140007154:	c6 45 fe 00          	mov    BYTE PTR [rbp-0x2],0x0
   140007158:	c7 45 f8 00 00 00 00 	mov    DWORD PTR [rbp-0x8],0x0
   14000715f:	48 c7 45 f0 00 00 00 	mov    QWORD PTR [rbp-0x10],0x0
   140007166:	00 
   140007167:	c7 45 ec 00 00 00 00 	mov    DWORD PTR [rbp-0x14],0x0
   14000716e:	48 8b 05 93 8e 00 00 	mov    rax,QWORD PTR [rip+0x8e93]        # 140010008 <vmcs>
   140007175:	48 8b 40 18          	mov    rax,QWORD PTR [rax+0x18]
   140007179:	88 45 ff             	mov    BYTE PTR [rbp-0x1],al
   14000717c:	48 8b 05 85 8e 00 00 	mov    rax,QWORD PTR [rip+0x8e85]        # 140010008 <vmcs>
   140007183:	48 8b 40 20          	mov    rax,QWORD PTR [rax+0x20]
   140007187:	88 45 fe             	mov    BYTE PTR [rbp-0x2],al
   14000718a:	48 8b 05 77 8e 00 00 	mov    rax,QWORD PTR [rip+0x8e77]        # 140010008 <vmcs>
   140007191:	48 8b 40 38          	mov    rax,QWORD PTR [rax+0x38]
   140007195:	89 45 f8             	mov    DWORD PTR [rbp-0x8],eax
   140007198:	48 8b 05 69 8e 00 00 	mov    rax,QWORD PTR [rip+0x8e69]        # 140010008 <vmcs>
   14000719f:	0f b6 55 fe          	movzx  edx,BYTE PTR [rbp-0x2]
   1400071a3:	48 63 d2             	movsxd rdx,edx
   1400071a6:	48 83 c2 22          	add    rdx,0x22
   1400071aa:	48 8b 44 d0 08       	mov    rax,QWORD PTR [rax+rdx*8+0x8]
   1400071af:	48 89 45 f0          	mov    QWORD PTR [rbp-0x10],rax
   1400071b3:	8b 45 f8             	mov    eax,DWORD PTR [rbp-0x8]
   1400071b6:	48 98                	cdqe
   1400071b8:	48 01 45 f0          	add    QWORD PTR [rbp-0x10],rax
   1400071bc:	48 8b 45 f0          	mov    rax,QWORD PTR [rbp-0x10]
   1400071c0:	8b 00                	mov    eax,DWORD PTR [rax]
   1400071c2:	89 45 ec             	mov    DWORD PTR [rbp-0x14],eax
   1400071c5:	48 8b 05 3c 8e 00 00 	mov    rax,QWORD PTR [rip+0x8e3c]        # 140010008 <vmcs>
   1400071cc:	0f b6 4d ff          	movzx  ecx,BYTE PTR [rbp-0x1]
   1400071d0:	8b 55 ec             	mov    edx,DWORD PTR [rbp-0x14]
   1400071d3:	48 63 c9             	movsxd rcx,ecx
   1400071d6:	48 83 c1 22          	add    rcx,0x22
   1400071da:	48 89 54 c8 08       	mov    QWORD PTR [rax+rcx*8+0x8],rdx
   1400071df:	90                   	nop
   1400071e0:	48 83 c4 20          	add    rsp,0x20
   1400071e4:	5d                   	pop    rbp
   1400071e5:	c3                   	ret

00000001400071e6 <_ZN5rvm6410operations5itype5rv_ldEv>:
   1400071e6:	55                   	push   rbp
   1400071e7:	48 89 e5             	mov    rbp,rsp
   1400071ea:	48 83 ec 20          	sub    rsp,0x20
   1400071ee:	c6 45 ff 00          	mov    BYTE PTR [rbp-0x1],0x0
   1400071f2:	c6 45 fe 00          	mov    BYTE PTR [rbp-0x2],0x0
   1400071f6:	c7 45 f8 00 00 00 00 	mov    DWORD PTR [rbp-0x8],0x0
   1400071fd:	48 c7 45 f0 00 00 00 	mov    QWORD PTR [rbp-0x10],0x0
   140007204:	00 
   140007205:	48 c7 45 e8 00 00 00 	mov    QWORD PTR [rbp-0x18],0x0
   14000720c:	00 
   14000720d:	48 8b 05 f4 8d 00 00 	mov    rax,QWORD PTR [rip+0x8df4]        # 140010008 <vmcs>
   140007214:	48 8b 40 18          	mov    rax,QWORD PTR [rax+0x18]
   140007218:	88 45 ff             	mov    BYTE PTR [rbp-0x1],al
   14000721b:	48 8b 05 e6 8d 00 00 	mov    rax,QWORD PTR [rip+0x8de6]        # 140010008 <vmcs>
   140007222:	48 8b 40 20          	mov    rax,QWORD PTR [rax+0x20]
   140007226:	88 45 fe             	mov    BYTE PTR [rbp-0x2],al
   140007229:	48 8b 05 d8 8d 00 00 	mov    rax,QWORD PTR [rip+0x8dd8]        # 140010008 <vmcs>
   140007230:	48 8b 40 38          	mov    rax,QWORD PTR [rax+0x38]
   140007234:	89 45 f8             	mov    DWORD PTR [rbp-0x8],eax
   140007237:	48 8b 05 ca 8d 00 00 	mov    rax,QWORD PTR [rip+0x8dca]        # 140010008 <vmcs>
   14000723e:	0f b6 55 fe          	movzx  edx,BYTE PTR [rbp-0x2]
   140007242:	48 63 d2             	movsxd rdx,edx
   140007245:	48 83 c2 22          	add    rdx,0x22
   140007249:	48 8b 44 d0 08       	mov    rax,QWORD PTR [rax+rdx*8+0x8]
   14000724e:	48 89 45 f0          	mov    QWORD PTR [rbp-0x10],rax
   140007252:	8b 45 f8             	mov    eax,DWORD PTR [rbp-0x8]
   140007255:	48 98                	cdqe
   140007257:	48 01 45 f0          	add    QWORD PTR [rbp-0x10],rax
   14000725b:	48 8b 45 f0          	mov    rax,QWORD PTR [rbp-0x10]
   14000725f:	48 8b 00             	mov    rax,QWORD PTR [rax]
   140007262:	48 89 45 e8          	mov    QWORD PTR [rbp-0x18],rax
   140007266:	48 8b 05 9b 8d 00 00 	mov    rax,QWORD PTR [rip+0x8d9b]        # 140010008 <vmcs>
   14000726d:	0f b6 4d ff          	movzx  ecx,BYTE PTR [rbp-0x1]
   140007271:	48 8b 55 e8          	mov    rdx,QWORD PTR [rbp-0x18]
   140007275:	48 63 c9             	movsxd rcx,ecx
   140007278:	48 83 c1 22          	add    rcx,0x22
   14000727c:	48 89 54 c8 08       	mov    QWORD PTR [rax+rcx*8+0x8],rdx
   140007281:	90                   	nop
   140007282:	48 83 c4 20          	add    rsp,0x20
   140007286:	5d                   	pop    rbp
   140007287:	c3                   	ret

0000000140007288 <_ZN5rvm6410operations5itype6rv_flqEv>:
   140007288:	55                   	push   rbp
   140007289:	48 89 e5             	mov    rbp,rsp
   14000728c:	48 8b 15 75 8d 00 00 	mov    rdx,QWORD PTR [rip+0x8d75]        # 140010008 <vmcs>
   140007293:	48 8b 05 6e 8d 00 00 	mov    rax,QWORD PTR [rip+0x8d6e]        # 140010008 <vmcs>
   14000729a:	48 8b 12             	mov    rdx,QWORD PTR [rdx]
   14000729d:	48 89 90 98 03 80 00 	mov    QWORD PTR [rax+0x800398],rdx
   1400072a4:	48 8b 05 5d 8d 00 00 	mov    rax,QWORD PTR [rip+0x8d5d]        # 140010008 <vmcs>
   1400072ab:	48 c7 80 a0 03 80 00 	mov    QWORD PTR [rax+0x8003a0],0xb02
   1400072b2:	02 0b 00 00 
   1400072b6:	48 8b 05 4b 8d 00 00 	mov    rax,QWORD PTR [rip+0x8d4b]        # 140010008 <vmcs>
   1400072bd:	48 c7 80 a8 03 80 00 	mov    QWORD PTR [rax+0x8003a8],0x0
   1400072c4:	00 00 00 00 
   1400072c8:	48 8b 05 39 8d 00 00 	mov    rax,QWORD PTR [rip+0x8d39]        # 140010008 <vmcs>
   1400072cf:	48 c7 80 b0 03 80 00 	mov    QWORD PTR [rax+0x8003b0],0x0
   1400072d6:	00 00 00 00 
   1400072da:	48 8b 05 27 8d 00 00 	mov    rax,QWORD PTR [rip+0x8d27]        # 140010008 <vmcs>
   1400072e1:	c7 80 b8 03 80 00 01 	mov    DWORD PTR [rax+0x8003b8],0x1
   1400072e8:	00 00 00 
   1400072eb:	cc                   	int3
   1400072ec:	90                   	nop
   1400072ed:	90                   	nop
   1400072ee:	5d                   	pop    rbp
   1400072ef:	c3                   	ret

00000001400072f0 <_ZN5rvm6410operations5itype8rv_fenceEv>:
   1400072f0:	55                   	push   rbp
   1400072f1:	48 89 e5             	mov    rbp,rsp
   1400072f4:	48 8b 15 0d 8d 00 00 	mov    rdx,QWORD PTR [rip+0x8d0d]        # 140010008 <vmcs>
   1400072fb:	48 8b 05 06 8d 00 00 	mov    rax,QWORD PTR [rip+0x8d06]        # 140010008 <vmcs>
   140007302:	48 8b 12             	mov    rdx,QWORD PTR [rdx]
   140007305:	48 89 90 98 03 80 00 	mov    QWORD PTR [rax+0x800398],rdx
   14000730c:	48 8b 05 f5 8c 00 00 	mov    rax,QWORD PTR [rip+0x8cf5]        # 140010008 <vmcs>
   140007313:	48 c7 80 a0 03 80 00 	mov    QWORD PTR [rax+0x8003a0],0xb02
   14000731a:	02 0b 00 00 
   14000731e:	48 8b 05 e3 8c 00 00 	mov    rax,QWORD PTR [rip+0x8ce3]        # 140010008 <vmcs>
   140007325:	48 c7 80 a8 03 80 00 	mov    QWORD PTR [rax+0x8003a8],0x0
   14000732c:	00 00 00 00 
   140007330:	48 8b 05 d1 8c 00 00 	mov    rax,QWORD PTR [rip+0x8cd1]        # 140010008 <vmcs>
   140007337:	48 c7 80 b0 03 80 00 	mov    QWORD PTR [rax+0x8003b0],0x0
   14000733e:	00 00 00 00 
   140007342:	48 8b 05 bf 8c 00 00 	mov    rax,QWORD PTR [rip+0x8cbf]        # 140010008 <vmcs>
   140007349:	c7 80 b8 03 80 00 01 	mov    DWORD PTR [rax+0x8003b8],0x1
   140007350:	00 00 00 
   140007353:	cc                   	int3
   140007354:	90                   	nop
   140007355:	90                   	nop
   140007356:	5d                   	pop    rbp
   140007357:	c3                   	ret

0000000140007358 <_ZN5rvm6410operations5itype10rv_fence_iEv>:
   140007358:	55                   	push   rbp
   140007359:	48 89 e5             	mov    rbp,rsp
   14000735c:	48 8b 15 a5 8c 00 00 	mov    rdx,QWORD PTR [rip+0x8ca5]        # 140010008 <vmcs>
   140007363:	48 8b 05 9e 8c 00 00 	mov    rax,QWORD PTR [rip+0x8c9e]        # 140010008 <vmcs>
   14000736a:	48 8b 12             	mov    rdx,QWORD PTR [rdx]
   14000736d:	48 89 90 98 03 80 00 	mov    QWORD PTR [rax+0x800398],rdx
   140007374:	48 8b 05 8d 8c 00 00 	mov    rax,QWORD PTR [rip+0x8c8d]        # 140010008 <vmcs>
   14000737b:	48 c7 80 a0 03 80 00 	mov    QWORD PTR [rax+0x8003a0],0xb02
   140007382:	02 0b 00 00 
   140007386:	48 8b 05 7b 8c 00 00 	mov    rax,QWORD PTR [rip+0x8c7b]        # 140010008 <vmcs>
   14000738d:	48 c7 80 a8 03 80 00 	mov    QWORD PTR [rax+0x8003a8],0x0
   140007394:	00 00 00 00 
   140007398:	48 8b 05 69 8c 00 00 	mov    rax,QWORD PTR [rip+0x8c69]        # 140010008 <vmcs>
   14000739f:	48 c7 80 b0 03 80 00 	mov    QWORD PTR [rax+0x8003b0],0x0
   1400073a6:	00 00 00 00 
   1400073aa:	48 8b 05 57 8c 00 00 	mov    rax,QWORD PTR [rip+0x8c57]        # 140010008 <vmcs>
   1400073b1:	c7 80 b8 03 80 00 01 	mov    DWORD PTR [rax+0x8003b8],0x1
   1400073b8:	00 00 00 
   1400073bb:	cc                   	int3
   1400073bc:	90                   	nop
   1400073bd:	90                   	nop
   1400073be:	5d                   	pop    rbp
   1400073bf:	c3                   	ret

00000001400073c0 <_ZN5rvm6410operations5itype7rv_jalrEv>:
   1400073c0:	55                   	push   rbp
   1400073c1:	48 89 e5             	mov    rbp,rsp
   1400073c4:	48 83 ec 10          	sub    rsp,0x10
   1400073c8:	c6 45 ff 00          	mov    BYTE PTR [rbp-0x1],0x0
   1400073cc:	c6 45 fe 00          	mov    BYTE PTR [rbp-0x2],0x0
   1400073d0:	c7 45 f8 00 00 00 00 	mov    DWORD PTR [rbp-0x8],0x0
   1400073d7:	48 c7 45 f0 00 00 00 	mov    QWORD PTR [rbp-0x10],0x0
   1400073de:	00 
   1400073df:	48 8b 05 22 8c 00 00 	mov    rax,QWORD PTR [rip+0x8c22]        # 140010008 <vmcs>
   1400073e6:	48 8b 40 18          	mov    rax,QWORD PTR [rax+0x18]
   1400073ea:	88 45 ff             	mov    BYTE PTR [rbp-0x1],al
   1400073ed:	48 8b 05 14 8c 00 00 	mov    rax,QWORD PTR [rip+0x8c14]        # 140010008 <vmcs>
   1400073f4:	48 8b 40 20          	mov    rax,QWORD PTR [rax+0x20]
   1400073f8:	88 45 fe             	mov    BYTE PTR [rbp-0x2],al
   1400073fb:	48 8b 05 06 8c 00 00 	mov    rax,QWORD PTR [rip+0x8c06]        # 140010008 <vmcs>
   140007402:	48 8b 40 38          	mov    rax,QWORD PTR [rax+0x38]
   140007406:	89 45 f8             	mov    DWORD PTR [rbp-0x8],eax
   140007409:	48 8b 05 f8 8b 00 00 	mov    rax,QWORD PTR [rip+0x8bf8]        # 140010008 <vmcs>
   140007410:	0f b6 55 fe          	movzx  edx,BYTE PTR [rbp-0x2]
   140007414:	48 63 d2             	movsxd rdx,edx
   140007417:	48 83 c2 22          	add    rdx,0x22
   14000741b:	48 8b 44 d0 08       	mov    rax,QWORD PTR [rax+rdx*8+0x8]
   140007420:	48 89 45 f0          	mov    QWORD PTR [rbp-0x10],rax
   140007424:	8b 45 f8             	mov    eax,DWORD PTR [rbp-0x8]
   140007427:	48 98                	cdqe
   140007429:	48 01 45 f0          	add    QWORD PTR [rbp-0x10],rax
   14000742d:	48 83 65 f0 fe       	and    QWORD PTR [rbp-0x10],0xfffffffffffffffe
   140007432:	48 8b 15 cf 8b 00 00 	mov    rdx,QWORD PTR [rip+0x8bcf]        # 140010008 <vmcs>
   140007439:	48 8b 05 c8 8b 00 00 	mov    rax,QWORD PTR [rip+0x8bc8]        # 140010008 <vmcs>
   140007440:	0f b6 4d ff          	movzx  ecx,BYTE PTR [rbp-0x1]
   140007444:	48 8b 12             	mov    rdx,QWORD PTR [rdx]
   140007447:	48 63 c9             	movsxd rcx,ecx
   14000744a:	48 83 c1 22          	add    rcx,0x22
   14000744e:	48 89 54 c8 08       	mov    QWORD PTR [rax+rcx*8+0x8],rdx
   140007453:	48 8b 05 ae 8b 00 00 	mov    rax,QWORD PTR [rip+0x8bae]        # 140010008 <vmcs>
   14000745a:	48 8b 55 f0          	mov    rdx,QWORD PTR [rbp-0x10]
   14000745e:	48 89 10             	mov    QWORD PTR [rax],rdx
   140007461:	48 8b 05 a0 8b 00 00 	mov    rax,QWORD PTR [rip+0x8ba0]        # 140010008 <vmcs>
   140007468:	48 8b 10             	mov    rdx,QWORD PTR [rax]
   14000746b:	48 8b 05 96 8b 00 00 	mov    rax,QWORD PTR [rip+0x8b96]        # 140010008 <vmcs>
   140007472:	48 8b 80 70 03 80 00 	mov    rax,QWORD PTR [rax+0x800370]
   140007479:	48 39 c2             	cmp    rdx,rax
   14000747c:	72 7e                	jb     1400074fc <_ZN5rvm6410operations5itype7rv_jalrEv+0x13c>
   14000747e:	48 8b 05 83 8b 00 00 	mov    rax,QWORD PTR [rip+0x8b83]        # 140010008 <vmcs>
   140007485:	48 8b 10             	mov    rdx,QWORD PTR [rax]
   140007488:	48 8b 05 79 8b 00 00 	mov    rax,QWORD PTR [rip+0x8b79]        # 140010008 <vmcs>
   14000748f:	48 8b 80 78 03 80 00 	mov    rax,QWORD PTR [rax+0x800378]
   140007496:	48 39 c2             	cmp    rdx,rax
   140007499:	73 61                	jae    1400074fc <_ZN5rvm6410operations5itype7rv_jalrEv+0x13c>
   14000749b:	48 8b 15 66 8b 00 00 	mov    rdx,QWORD PTR [rip+0x8b66]        # 140010008 <vmcs>
   1400074a2:	48 8b 05 5f 8b 00 00 	mov    rax,QWORD PTR [rip+0x8b5f]        # 140010008 <vmcs>
   1400074a9:	48 8b 12             	mov    rdx,QWORD PTR [rdx]
   1400074ac:	48 89 90 98 03 80 00 	mov    QWORD PTR [rax+0x800398],rdx
   1400074b3:	48 8b 05 4e 8b 00 00 	mov    rax,QWORD PTR [rip+0x8b4e]        # 140010008 <vmcs>
   1400074ba:	48 c7 80 a0 03 80 00 	mov    QWORD PTR [rax+0x8003a0],0xb024
   1400074c1:	24 b0 00 00 
   1400074c5:	48 8b 05 3c 8b 00 00 	mov    rax,QWORD PTR [rip+0x8b3c]        # 140010008 <vmcs>
   1400074cc:	48 c7 80 a8 03 80 00 	mov    QWORD PTR [rax+0x8003a8],0x0
   1400074d3:	00 00 00 00 
   1400074d7:	48 8b 05 2a 8b 00 00 	mov    rax,QWORD PTR [rip+0x8b2a]        # 140010008 <vmcs>
   1400074de:	48 c7 80 b0 03 80 00 	mov    QWORD PTR [rax+0x8003b0],0x0
   1400074e5:	00 00 00 00 
   1400074e9:	48 8b 05 18 8b 00 00 	mov    rax,QWORD PTR [rip+0x8b18]        # 140010008 <vmcs>
   1400074f0:	c7 80 b8 03 80 00 00 	mov    DWORD PTR [rax+0x8003b8],0x0
   1400074f7:	00 00 00 
   1400074fa:	cc                   	int3
   1400074fb:	90                   	nop
   1400074fc:	90                   	nop
   1400074fd:	48 83 c4 10          	add    rsp,0x10
   140007501:	5d                   	pop    rbp
   140007502:	c3                   	ret

0000000140007503 <_ZN5rvm6410operations5itype8rv_ecallEv>:
   140007503:	55                   	push   rbp
   140007504:	48 89 e5             	mov    rbp,rsp
   140007507:	48 8b 15 fa 8a 00 00 	mov    rdx,QWORD PTR [rip+0x8afa]        # 140010008 <vmcs>
   14000750e:	48 8b 05 f3 8a 00 00 	mov    rax,QWORD PTR [rip+0x8af3]        # 140010008 <vmcs>
   140007515:	48 8b 12             	mov    rdx,QWORD PTR [rdx]
   140007518:	48 89 90 98 03 80 00 	mov    QWORD PTR [rax+0x800398],rdx
   14000751f:	48 8b 05 e2 8a 00 00 	mov    rax,QWORD PTR [rip+0x8ae2]        # 140010008 <vmcs>
   140007526:	48 c7 80 a0 03 80 00 	mov    QWORD PTR [rax+0x8003a0],0xb02
   14000752d:	02 0b 00 00 
   140007531:	48 8b 05 d0 8a 00 00 	mov    rax,QWORD PTR [rip+0x8ad0]        # 140010008 <vmcs>
   140007538:	48 c7 80 a8 03 80 00 	mov    QWORD PTR [rax+0x8003a8],0x0
   14000753f:	00 00 00 00 
   140007543:	48 8b 05 be 8a 00 00 	mov    rax,QWORD PTR [rip+0x8abe]        # 140010008 <vmcs>
   14000754a:	48 c7 80 b0 03 80 00 	mov    QWORD PTR [rax+0x8003b0],0x0
   140007551:	00 00 00 00 
   140007555:	48 8b 05 ac 8a 00 00 	mov    rax,QWORD PTR [rip+0x8aac]        # 140010008 <vmcs>
   14000755c:	c7 80 b8 03 80 00 01 	mov    DWORD PTR [rax+0x8003b8],0x1
   140007563:	00 00 00 
   140007566:	cc                   	int3
   140007567:	90                   	nop
   140007568:	90                   	nop
   140007569:	5d                   	pop    rbp
   14000756a:	c3                   	ret

000000014000756b <_ZN5rvm6410operations5itype9rv_ebreakEv>:
   14000756b:	55                   	push   rbp
   14000756c:	48 89 e5             	mov    rbp,rsp
   14000756f:	48 8b 15 92 8a 00 00 	mov    rdx,QWORD PTR [rip+0x8a92]        # 140010008 <vmcs>
   140007576:	48 8b 05 8b 8a 00 00 	mov    rax,QWORD PTR [rip+0x8a8b]        # 140010008 <vmcs>
   14000757d:	48 8b 12             	mov    rdx,QWORD PTR [rdx]
   140007580:	48 89 90 98 03 80 00 	mov    QWORD PTR [rax+0x800398],rdx
   140007587:	48 8b 05 7a 8a 00 00 	mov    rax,QWORD PTR [rip+0x8a7a]        # 140010008 <vmcs>
   14000758e:	48 c7 80 a0 03 80 00 	mov    QWORD PTR [rax+0x8003a0],0xb03
   140007595:	03 0b 00 00 
   140007599:	48 8b 05 68 8a 00 00 	mov    rax,QWORD PTR [rip+0x8a68]        # 140010008 <vmcs>
   1400075a0:	48 c7 80 a8 03 80 00 	mov    QWORD PTR [rax+0x8003a8],0x0
   1400075a7:	00 00 00 00 
   1400075ab:	48 8b 15 56 8a 00 00 	mov    rdx,QWORD PTR [rip+0x8a56]        # 140010008 <vmcs>
   1400075b2:	48 8b 05 4f 8a 00 00 	mov    rax,QWORD PTR [rip+0x8a4f]        # 140010008 <vmcs>
   1400075b9:	48 8b 12             	mov    rdx,QWORD PTR [rdx]
   1400075bc:	48 89 90 b0 03 80 00 	mov    QWORD PTR [rax+0x8003b0],rdx
   1400075c3:	48 8b 05 3e 8a 00 00 	mov    rax,QWORD PTR [rip+0x8a3e]        # 140010008 <vmcs>
   1400075ca:	c7 80 b8 03 80 00 00 	mov    DWORD PTR [rax+0x8003b8],0x0
   1400075d1:	00 00 00 
   1400075d4:	cc                   	int3
   1400075d5:	90                   	nop
   1400075d6:	90                   	nop
   1400075d7:	5d                   	pop    rbp
   1400075d8:	c3                   	ret

00000001400075d9 <_ZN5rvm6410operations5itype8rv_csrrwEv>:
   1400075d9:	55                   	push   rbp
   1400075da:	48 89 e5             	mov    rbp,rsp
   1400075dd:	48 8b 15 24 8a 00 00 	mov    rdx,QWORD PTR [rip+0x8a24]        # 140010008 <vmcs>
   1400075e4:	48 8b 05 1d 8a 00 00 	mov    rax,QWORD PTR [rip+0x8a1d]        # 140010008 <vmcs>
   1400075eb:	48 8b 12             	mov    rdx,QWORD PTR [rdx]
   1400075ee:	48 89 90 98 03 80 00 	mov    QWORD PTR [rax+0x800398],rdx
   1400075f5:	48 8b 05 0c 8a 00 00 	mov    rax,QWORD PTR [rip+0x8a0c]        # 140010008 <vmcs>
   1400075fc:	48 c7 80 a0 03 80 00 	mov    QWORD PTR [rax+0x8003a0],0xb02
   140007603:	02 0b 00 00 
   140007607:	48 8b 05 fa 89 00 00 	mov    rax,QWORD PTR [rip+0x89fa]        # 140010008 <vmcs>
   14000760e:	48 c7 80 a8 03 80 00 	mov    QWORD PTR [rax+0x8003a8],0x0
   140007615:	00 00 00 00 
   140007619:	48 8b 05 e8 89 00 00 	mov    rax,QWORD PTR [rip+0x89e8]        # 140010008 <vmcs>
   140007620:	48 c7 80 b0 03 80 00 	mov    QWORD PTR [rax+0x8003b0],0x0
   140007627:	00 00 00 00 
   14000762b:	48 8b 05 d6 89 00 00 	mov    rax,QWORD PTR [rip+0x89d6]        # 140010008 <vmcs>
   140007632:	c7 80 b8 03 80 00 01 	mov    DWORD PTR [rax+0x8003b8],0x1
   140007639:	00 00 00 
   14000763c:	cc                   	int3
   14000763d:	90                   	nop
   14000763e:	90                   	nop
   14000763f:	5d                   	pop    rbp
   140007640:	c3                   	ret

0000000140007641 <_ZN5rvm6410operations5itype8rv_csrrsEv>:
   140007641:	55                   	push   rbp
   140007642:	48 89 e5             	mov    rbp,rsp
   140007645:	48 8b 15 bc 89 00 00 	mov    rdx,QWORD PTR [rip+0x89bc]        # 140010008 <vmcs>
   14000764c:	48 8b 05 b5 89 00 00 	mov    rax,QWORD PTR [rip+0x89b5]        # 140010008 <vmcs>
   140007653:	48 8b 12             	mov    rdx,QWORD PTR [rdx]
   140007656:	48 89 90 98 03 80 00 	mov    QWORD PTR [rax+0x800398],rdx
   14000765d:	48 8b 05 a4 89 00 00 	mov    rax,QWORD PTR [rip+0x89a4]        # 140010008 <vmcs>
   140007664:	48 c7 80 a0 03 80 00 	mov    QWORD PTR [rax+0x8003a0],0xb02
   14000766b:	02 0b 00 00 
   14000766f:	48 8b 05 92 89 00 00 	mov    rax,QWORD PTR [rip+0x8992]        # 140010008 <vmcs>
   140007676:	48 c7 80 a8 03 80 00 	mov    QWORD PTR [rax+0x8003a8],0x0
   14000767d:	00 00 00 00 
   140007681:	48 8b 05 80 89 00 00 	mov    rax,QWORD PTR [rip+0x8980]        # 140010008 <vmcs>
   140007688:	48 c7 80 b0 03 80 00 	mov    QWORD PTR [rax+0x8003b0],0x0
   14000768f:	00 00 00 00 
   140007693:	48 8b 05 6e 89 00 00 	mov    rax,QWORD PTR [rip+0x896e]        # 140010008 <vmcs>
   14000769a:	c7 80 b8 03 80 00 01 	mov    DWORD PTR [rax+0x8003b8],0x1
   1400076a1:	00 00 00 
   1400076a4:	cc                   	int3
   1400076a5:	90                   	nop
   1400076a6:	90                   	nop
   1400076a7:	5d                   	pop    rbp
   1400076a8:	c3                   	ret

00000001400076a9 <_ZN5rvm6410operations5itype8rv_csrrcEv>:
   1400076a9:	55                   	push   rbp
   1400076aa:	48 89 e5             	mov    rbp,rsp
   1400076ad:	48 8b 15 54 89 00 00 	mov    rdx,QWORD PTR [rip+0x8954]        # 140010008 <vmcs>
   1400076b4:	48 8b 05 4d 89 00 00 	mov    rax,QWORD PTR [rip+0x894d]        # 140010008 <vmcs>
   1400076bb:	48 8b 12             	mov    rdx,QWORD PTR [rdx]
   1400076be:	48 89 90 98 03 80 00 	mov    QWORD PTR [rax+0x800398],rdx
   1400076c5:	48 8b 05 3c 89 00 00 	mov    rax,QWORD PTR [rip+0x893c]        # 140010008 <vmcs>
   1400076cc:	48 c7 80 a0 03 80 00 	mov    QWORD PTR [rax+0x8003a0],0xb02
   1400076d3:	02 0b 00 00 
   1400076d7:	48 8b 05 2a 89 00 00 	mov    rax,QWORD PTR [rip+0x892a]        # 140010008 <vmcs>
   1400076de:	48 c7 80 a8 03 80 00 	mov    QWORD PTR [rax+0x8003a8],0x0
   1400076e5:	00 00 00 00 
   1400076e9:	48 8b 05 18 89 00 00 	mov    rax,QWORD PTR [rip+0x8918]        # 140010008 <vmcs>
   1400076f0:	48 c7 80 b0 03 80 00 	mov    QWORD PTR [rax+0x8003b0],0x0
   1400076f7:	00 00 00 00 
   1400076fb:	48 8b 05 06 89 00 00 	mov    rax,QWORD PTR [rip+0x8906]        # 140010008 <vmcs>
   140007702:	c7 80 b8 03 80 00 01 	mov    DWORD PTR [rax+0x8003b8],0x1
   140007709:	00 00 00 
   14000770c:	cc                   	int3
   14000770d:	90                   	nop
   14000770e:	90                   	nop
   14000770f:	5d                   	pop    rbp
   140007710:	c3                   	ret

0000000140007711 <_ZN5rvm6410operations5itype9rv_csrrwiEv>:
   140007711:	55                   	push   rbp
   140007712:	48 89 e5             	mov    rbp,rsp
   140007715:	48 8b 15 ec 88 00 00 	mov    rdx,QWORD PTR [rip+0x88ec]        # 140010008 <vmcs>
   14000771c:	48 8b 05 e5 88 00 00 	mov    rax,QWORD PTR [rip+0x88e5]        # 140010008 <vmcs>
   140007723:	48 8b 12             	mov    rdx,QWORD PTR [rdx]
   140007726:	48 89 90 98 03 80 00 	mov    QWORD PTR [rax+0x800398],rdx
   14000772d:	48 8b 05 d4 88 00 00 	mov    rax,QWORD PTR [rip+0x88d4]        # 140010008 <vmcs>
   140007734:	48 c7 80 a0 03 80 00 	mov    QWORD PTR [rax+0x8003a0],0xb02
   14000773b:	02 0b 00 00 
   14000773f:	48 8b 05 c2 88 00 00 	mov    rax,QWORD PTR [rip+0x88c2]        # 140010008 <vmcs>
   140007746:	48 c7 80 a8 03 80 00 	mov    QWORD PTR [rax+0x8003a8],0x0
   14000774d:	00 00 00 00 
   140007751:	48 8b 05 b0 88 00 00 	mov    rax,QWORD PTR [rip+0x88b0]        # 140010008 <vmcs>
   140007758:	48 c7 80 b0 03 80 00 	mov    QWORD PTR [rax+0x8003b0],0x0
   14000775f:	00 00 00 00 
   140007763:	48 8b 05 9e 88 00 00 	mov    rax,QWORD PTR [rip+0x889e]        # 140010008 <vmcs>
   14000776a:	c7 80 b8 03 80 00 01 	mov    DWORD PTR [rax+0x8003b8],0x1
   140007771:	00 00 00 
   140007774:	cc                   	int3
   140007775:	90                   	nop
   140007776:	90                   	nop
   140007777:	5d                   	pop    rbp
   140007778:	c3                   	ret

0000000140007779 <_ZN5rvm6410operations5itype9rv_csrrsiEv>:
   140007779:	55                   	push   rbp
   14000777a:	48 89 e5             	mov    rbp,rsp
   14000777d:	48 8b 15 84 88 00 00 	mov    rdx,QWORD PTR [rip+0x8884]        # 140010008 <vmcs>
   140007784:	48 8b 05 7d 88 00 00 	mov    rax,QWORD PTR [rip+0x887d]        # 140010008 <vmcs>
   14000778b:	48 8b 12             	mov    rdx,QWORD PTR [rdx]
   14000778e:	48 89 90 98 03 80 00 	mov    QWORD PTR [rax+0x800398],rdx
   140007795:	48 8b 05 6c 88 00 00 	mov    rax,QWORD PTR [rip+0x886c]        # 140010008 <vmcs>
   14000779c:	48 c7 80 a0 03 80 00 	mov    QWORD PTR [rax+0x8003a0],0xb02
   1400077a3:	02 0b 00 00 
   1400077a7:	48 8b 05 5a 88 00 00 	mov    rax,QWORD PTR [rip+0x885a]        # 140010008 <vmcs>
   1400077ae:	48 c7 80 a8 03 80 00 	mov    QWORD PTR [rax+0x8003a8],0x0
   1400077b5:	00 00 00 00 
   1400077b9:	48 8b 05 48 88 00 00 	mov    rax,QWORD PTR [rip+0x8848]        # 140010008 <vmcs>
   1400077c0:	48 c7 80 b0 03 80 00 	mov    QWORD PTR [rax+0x8003b0],0x0
   1400077c7:	00 00 00 00 
   1400077cb:	48 8b 05 36 88 00 00 	mov    rax,QWORD PTR [rip+0x8836]        # 140010008 <vmcs>
   1400077d2:	c7 80 b8 03 80 00 01 	mov    DWORD PTR [rax+0x8003b8],0x1
   1400077d9:	00 00 00 
   1400077dc:	cc                   	int3
   1400077dd:	90                   	nop
   1400077de:	90                   	nop
   1400077df:	5d                   	pop    rbp
   1400077e0:	c3                   	ret

00000001400077e1 <_ZN5rvm6410operations5itype9rv_csrrciEv>:
   1400077e1:	55                   	push   rbp
   1400077e2:	48 89 e5             	mov    rbp,rsp
   1400077e5:	48 8b 15 1c 88 00 00 	mov    rdx,QWORD PTR [rip+0x881c]        # 140010008 <vmcs>
   1400077ec:	48 8b 05 15 88 00 00 	mov    rax,QWORD PTR [rip+0x8815]        # 140010008 <vmcs>
   1400077f3:	48 8b 12             	mov    rdx,QWORD PTR [rdx]
   1400077f6:	48 89 90 98 03 80 00 	mov    QWORD PTR [rax+0x800398],rdx
   1400077fd:	48 8b 05 04 88 00 00 	mov    rax,QWORD PTR [rip+0x8804]        # 140010008 <vmcs>
   140007804:	48 c7 80 a0 03 80 00 	mov    QWORD PTR [rax+0x8003a0],0xb02
   14000780b:	02 0b 00 00 
   14000780f:	48 8b 05 f2 87 00 00 	mov    rax,QWORD PTR [rip+0x87f2]        # 140010008 <vmcs>
   140007816:	48 c7 80 a8 03 80 00 	mov    QWORD PTR [rax+0x8003a8],0x0
   14000781d:	00 00 00 00 
   140007821:	48 8b 05 e0 87 00 00 	mov    rax,QWORD PTR [rip+0x87e0]        # 140010008 <vmcs>
   140007828:	48 c7 80 b0 03 80 00 	mov    QWORD PTR [rax+0x8003b0],0x0
   14000782f:	00 00 00 00 
   140007833:	48 8b 05 ce 87 00 00 	mov    rax,QWORD PTR [rip+0x87ce]        # 140010008 <vmcs>
   14000783a:	c7 80 b8 03 80 00 01 	mov    DWORD PTR [rax+0x8003b8],0x1
   140007841:	00 00 00 
   140007844:	cc                   	int3
   140007845:	90                   	nop
   140007846:	90                   	nop
   140007847:	5d                   	pop    rbp
   140007848:	c3                   	ret

0000000140007849 <_ZN5rvm6410operations5rtype6rv_scwEv>:
   140007849:	55                   	push   rbp
   14000784a:	48 89 e5             	mov    rbp,rsp
   14000784d:	48 83 ec 40          	sub    rsp,0x40
   140007851:	c6 45 ff 00          	mov    BYTE PTR [rbp-0x1],0x0
   140007855:	c6 45 fe 00          	mov    BYTE PTR [rbp-0x2],0x0
   140007859:	c6 45 fd 00          	mov    BYTE PTR [rbp-0x3],0x0
   14000785d:	48 c7 45 f0 00 00 00 	mov    QWORD PTR [rbp-0x10],0x0
   140007864:	00 
   140007865:	c7 45 ec 00 00 00 00 	mov    DWORD PTR [rbp-0x14],0x0
   14000786c:	48 8b 05 95 87 00 00 	mov    rax,QWORD PTR [rip+0x8795]        # 140010008 <vmcs>
   140007873:	48 8b 40 18          	mov    rax,QWORD PTR [rax+0x18]
   140007877:	88 45 ff             	mov    BYTE PTR [rbp-0x1],al
   14000787a:	48 8b 05 87 87 00 00 	mov    rax,QWORD PTR [rip+0x8787]        # 140010008 <vmcs>
   140007881:	48 8b 40 20          	mov    rax,QWORD PTR [rax+0x20]
   140007885:	88 45 fe             	mov    BYTE PTR [rbp-0x2],al
   140007888:	48 8b 05 79 87 00 00 	mov    rax,QWORD PTR [rip+0x8779]        # 140010008 <vmcs>
   14000788f:	48 8b 40 28          	mov    rax,QWORD PTR [rax+0x28]
   140007893:	88 45 fd             	mov    BYTE PTR [rbp-0x3],al
   140007896:	0f b6 45 fe          	movzx  eax,BYTE PTR [rbp-0x2]
   14000789a:	48 8b 00             	mov    rax,QWORD PTR [rax]
   14000789d:	48 89 45 f0          	mov    QWORD PTR [rbp-0x10],rax
   1400078a1:	48 8b 05 60 87 00 00 	mov    rax,QWORD PTR [rip+0x8760]        # 140010008 <vmcs>
   1400078a8:	0f b6 55 fd          	movzx  edx,BYTE PTR [rbp-0x3]
   1400078ac:	48 63 d2             	movsxd rdx,edx
   1400078af:	48 83 c2 22          	add    rdx,0x22
   1400078b3:	48 8b 44 d0 08       	mov    rax,QWORD PTR [rax+rdx*8+0x8]
   1400078b8:	89 45 ec             	mov    DWORD PTR [rbp-0x14],eax
   1400078bb:	48 8b 45 f0          	mov    rax,QWORD PTR [rbp-0x10]
   1400078bf:	48 89 c2             	mov    rdx,rax
   1400078c2:	b9 00 00 00 00       	mov    ecx,0x0
   1400078c7:	e8 44 b8 ff ff       	call   140003110 <_ZN5rvm646memory17vm_check_load_rsvEiy>
   1400078cc:	84 c0                	test   al,al
   1400078ce:	74 41                	je     140007911 <_ZN5rvm6410operations5rtype6rv_scwEv+0xc8>
   1400078d0:	48 8b 45 f0          	mov    rax,QWORD PTR [rbp-0x10]
   1400078d4:	48 89 c2             	mov    rdx,rax
   1400078d7:	b9 00 00 00 00       	mov    ecx,0x0
   1400078dc:	e8 59 b7 ff ff       	call   14000303a <_ZN5rvm646memory15vm_set_load_rsvEiy>
   1400078e1:	48 8b 45 f0          	mov    rax,QWORD PTR [rbp-0x10]
   1400078e5:	8b 55 ec             	mov    edx,DWORD PTR [rbp-0x14]
   1400078e8:	89 10                	mov    DWORD PTR [rax],edx
   1400078ea:	48 8b 05 17 87 00 00 	mov    rax,QWORD PTR [rip+0x8717]        # 140010008 <vmcs>
   1400078f1:	0f b6 55 ff          	movzx  edx,BYTE PTR [rbp-0x1]
   1400078f5:	48 63 d2             	movsxd rdx,edx
   1400078f8:	48 83 c2 22          	add    rdx,0x22
   1400078fc:	48 c7 44 d0 08 00 00 	mov    QWORD PTR [rax+rdx*8+0x8],0x0
   140007903:	00 00 
   140007905:	b9 00 00 00 00       	mov    ecx,0x0
   14000790a:	e8 98 b7 ff ff       	call   1400030a7 <_ZN5rvm646memory17vm_clear_load_rsvEi>
   14000790f:	eb 1b                	jmp    14000792c <_ZN5rvm6410operations5rtype6rv_scwEv+0xe3>
   140007911:	48 8b 05 f0 86 00 00 	mov    rax,QWORD PTR [rip+0x86f0]        # 140010008 <vmcs>
   140007918:	0f b6 55 ff          	movzx  edx,BYTE PTR [rbp-0x1]
   14000791c:	48 63 d2             	movsxd rdx,edx
   14000791f:	48 83 c2 22          	add    rdx,0x22
   140007923:	48 c7 44 d0 08 01 00 	mov    QWORD PTR [rax+rdx*8+0x8],0x1
   14000792a:	00 00 
   14000792c:	90                   	nop
   14000792d:	48 83 c4 40          	add    rsp,0x40
   140007931:	5d                   	pop    rbp
   140007932:	c3                   	ret

0000000140007933 <_ZN5rvm6410operations5rtype6rv_scdEv>:
   140007933:	55                   	push   rbp
   140007934:	48 89 e5             	mov    rbp,rsp
   140007937:	48 83 ec 40          	sub    rsp,0x40
   14000793b:	c6 45 ff 00          	mov    BYTE PTR [rbp-0x1],0x0
   14000793f:	c6 45 fe 00          	mov    BYTE PTR [rbp-0x2],0x0
   140007943:	c6 45 fd 00          	mov    BYTE PTR [rbp-0x3],0x0
   140007947:	48 c7 45 f0 00 00 00 	mov    QWORD PTR [rbp-0x10],0x0
   14000794e:	00 
   14000794f:	48 c7 45 e8 00 00 00 	mov    QWORD PTR [rbp-0x18],0x0
   140007956:	00 
   140007957:	48 8b 05 aa 86 00 00 	mov    rax,QWORD PTR [rip+0x86aa]        # 140010008 <vmcs>
   14000795e:	48 8b 40 18          	mov    rax,QWORD PTR [rax+0x18]
   140007962:	88 45 ff             	mov    BYTE PTR [rbp-0x1],al
   140007965:	48 8b 05 9c 86 00 00 	mov    rax,QWORD PTR [rip+0x869c]        # 140010008 <vmcs>
   14000796c:	48 8b 40 20          	mov    rax,QWORD PTR [rax+0x20]
   140007970:	88 45 fe             	mov    BYTE PTR [rbp-0x2],al
   140007973:	48 8b 05 8e 86 00 00 	mov    rax,QWORD PTR [rip+0x868e]        # 140010008 <vmcs>
   14000797a:	48 8b 40 28          	mov    rax,QWORD PTR [rax+0x28]
   14000797e:	88 45 fd             	mov    BYTE PTR [rbp-0x3],al
   140007981:	48 8b 05 80 86 00 00 	mov    rax,QWORD PTR [rip+0x8680]        # 140010008 <vmcs>
   140007988:	0f b6 55 fe          	movzx  edx,BYTE PTR [rbp-0x2]
   14000798c:	48 63 d2             	movsxd rdx,edx
   14000798f:	48 83 c2 22          	add    rdx,0x22
   140007993:	48 8b 44 d0 08       	mov    rax,QWORD PTR [rax+rdx*8+0x8]
   140007998:	48 89 45 e8          	mov    QWORD PTR [rbp-0x18],rax
   14000799c:	48 8b 05 65 86 00 00 	mov    rax,QWORD PTR [rip+0x8665]        # 140010008 <vmcs>
   1400079a3:	0f b6 55 fd          	movzx  edx,BYTE PTR [rbp-0x3]
   1400079a7:	48 63 d2             	movsxd rdx,edx
   1400079aa:	48 83 c2 22          	add    rdx,0x22
   1400079ae:	48 8b 44 d0 08       	mov    rax,QWORD PTR [rax+rdx*8+0x8]
   1400079b3:	48 89 45 f0          	mov    QWORD PTR [rbp-0x10],rax
   1400079b7:	48 8b 45 e8          	mov    rax,QWORD PTR [rbp-0x18]
   1400079bb:	48 89 c2             	mov    rdx,rax
   1400079be:	b9 00 00 00 00       	mov    ecx,0x0
   1400079c3:	e8 48 b7 ff ff       	call   140003110 <_ZN5rvm646memory17vm_check_load_rsvEiy>
   1400079c8:	83 f0 01             	xor    eax,0x1
   1400079cb:	84 c0                	test   al,al
   1400079cd:	74 43                	je     140007a12 <_ZN5rvm6410operations5rtype6rv_scdEv+0xdf>
   1400079cf:	48 8b 45 e8          	mov    rax,QWORD PTR [rbp-0x18]
   1400079d3:	48 89 c2             	mov    rdx,rax
   1400079d6:	b9 00 00 00 00       	mov    ecx,0x0
   1400079db:	e8 5a b6 ff ff       	call   14000303a <_ZN5rvm646memory15vm_set_load_rsvEiy>
   1400079e0:	48 8b 45 e8          	mov    rax,QWORD PTR [rbp-0x18]
   1400079e4:	48 8b 55 f0          	mov    rdx,QWORD PTR [rbp-0x10]
   1400079e8:	48 89 10             	mov    QWORD PTR [rax],rdx
   1400079eb:	48 8b 05 16 86 00 00 	mov    rax,QWORD PTR [rip+0x8616]        # 140010008 <vmcs>
   1400079f2:	0f b6 55 ff          	movzx  edx,BYTE PTR [rbp-0x1]
   1400079f6:	48 63 d2             	movsxd rdx,edx
   1400079f9:	48 83 c2 22          	add    rdx,0x22
   1400079fd:	48 c7 44 d0 08 00 00 	mov    QWORD PTR [rax+rdx*8+0x8],0x0
   140007a04:	00 00 
   140007a06:	b9 00 00 00 00       	mov    ecx,0x0
   140007a0b:	e8 97 b6 ff ff       	call   1400030a7 <_ZN5rvm646memory17vm_clear_load_rsvEi>
   140007a10:	eb 1b                	jmp    140007a2d <_ZN5rvm6410operations5rtype6rv_scdEv+0xfa>
   140007a12:	48 8b 05 ef 85 00 00 	mov    rax,QWORD PTR [rip+0x85ef]        # 140010008 <vmcs>
   140007a19:	0f b6 55 ff          	movzx  edx,BYTE PTR [rbp-0x1]
   140007a1d:	48 63 d2             	movsxd rdx,edx
   140007a20:	48 83 c2 22          	add    rdx,0x22
   140007a24:	48 c7 44 d0 08 01 00 	mov    QWORD PTR [rax+rdx*8+0x8],0x1
   140007a2b:	00 00 
   140007a2d:	90                   	nop
   140007a2e:	48 83 c4 40          	add    rsp,0x40
   140007a32:	5d                   	pop    rbp
   140007a33:	c3                   	ret

0000000140007a34 <_ZN5rvm6410operations5rtype9rv_fadd_dEv>:
   140007a34:	55                   	push   rbp
   140007a35:	48 89 e5             	mov    rbp,rsp
   140007a38:	48 83 ec 10          	sub    rsp,0x10
   140007a3c:	c6 45 ff 00          	mov    BYTE PTR [rbp-0x1],0x0
   140007a40:	c6 45 fe 00          	mov    BYTE PTR [rbp-0x2],0x0
   140007a44:	c6 45 fd 00          	mov    BYTE PTR [rbp-0x3],0x0
   140007a48:	66 0f ef c0          	pxor   xmm0,xmm0
   140007a4c:	f3 0f 11 45 f8       	movss  DWORD PTR [rbp-0x8],xmm0
   140007a51:	66 0f ef c0          	pxor   xmm0,xmm0
   140007a55:	f3 0f 11 45 f4       	movss  DWORD PTR [rbp-0xc],xmm0
   140007a5a:	48 8b 05 a7 85 00 00 	mov    rax,QWORD PTR [rip+0x85a7]        # 140010008 <vmcs>
   140007a61:	48 8b 40 18          	mov    rax,QWORD PTR [rax+0x18]
   140007a65:	88 45 ff             	mov    BYTE PTR [rbp-0x1],al
   140007a68:	48 8b 05 99 85 00 00 	mov    rax,QWORD PTR [rip+0x8599]        # 140010008 <vmcs>
   140007a6f:	48 8b 40 20          	mov    rax,QWORD PTR [rax+0x20]
   140007a73:	88 45 fe             	mov    BYTE PTR [rbp-0x2],al
   140007a76:	48 8b 05 8b 85 00 00 	mov    rax,QWORD PTR [rip+0x858b]        # 140010008 <vmcs>
   140007a7d:	48 8b 40 28          	mov    rax,QWORD PTR [rax+0x28]
   140007a81:	88 45 fd             	mov    BYTE PTR [rbp-0x3],al
   140007a84:	48 8b 05 7d 85 00 00 	mov    rax,QWORD PTR [rip+0x857d]        # 140010008 <vmcs>
   140007a8b:	0f b6 55 fe          	movzx  edx,BYTE PTR [rbp-0x2]
   140007a8f:	48 63 d2             	movsxd rdx,edx
   140007a92:	48 83 c2 22          	add    rdx,0x22
   140007a96:	48 8b 44 d0 08       	mov    rax,QWORD PTR [rax+rdx*8+0x8]
   140007a9b:	48 85 c0             	test   rax,rax
   140007a9e:	78 0b                	js     140007aab <_ZN5rvm6410operations5rtype9rv_fadd_dEv+0x77>
   140007aa0:	66 0f ef c0          	pxor   xmm0,xmm0
   140007aa4:	f3 48 0f 2a c0       	cvtsi2ss xmm0,rax
   140007aa9:	eb 19                	jmp    140007ac4 <_ZN5rvm6410operations5rtype9rv_fadd_dEv+0x90>
   140007aab:	48 89 c2             	mov    rdx,rax
   140007aae:	48 d1 ea             	shr    rdx,1
   140007ab1:	83 e0 01             	and    eax,0x1
   140007ab4:	48 09 c2             	or     rdx,rax
   140007ab7:	66 0f ef c0          	pxor   xmm0,xmm0
   140007abb:	f3 48 0f 2a c2       	cvtsi2ss xmm0,rdx
   140007ac0:	f3 0f 58 c0          	addss  xmm0,xmm0
   140007ac4:	f3 0f 11 45 f8       	movss  DWORD PTR [rbp-0x8],xmm0
   140007ac9:	48 8b 05 38 85 00 00 	mov    rax,QWORD PTR [rip+0x8538]        # 140010008 <vmcs>
   140007ad0:	0f b6 55 fd          	movzx  edx,BYTE PTR [rbp-0x3]
   140007ad4:	48 63 d2             	movsxd rdx,edx
   140007ad7:	48 83 c2 22          	add    rdx,0x22
   140007adb:	48 8b 44 d0 08       	mov    rax,QWORD PTR [rax+rdx*8+0x8]
   140007ae0:	48 85 c0             	test   rax,rax
   140007ae3:	78 0b                	js     140007af0 <_ZN5rvm6410operations5rtype9rv_fadd_dEv+0xbc>
   140007ae5:	66 0f ef c0          	pxor   xmm0,xmm0
   140007ae9:	f3 48 0f 2a c0       	cvtsi2ss xmm0,rax
   140007aee:	eb 19                	jmp    140007b09 <_ZN5rvm6410operations5rtype9rv_fadd_dEv+0xd5>
   140007af0:	48 89 c2             	mov    rdx,rax
   140007af3:	48 d1 ea             	shr    rdx,1
   140007af6:	83 e0 01             	and    eax,0x1
   140007af9:	48 09 c2             	or     rdx,rax
   140007afc:	66 0f ef c0          	pxor   xmm0,xmm0
   140007b00:	f3 48 0f 2a c2       	cvtsi2ss xmm0,rdx
   140007b05:	f3 0f 58 c0          	addss  xmm0,xmm0
   140007b09:	f3 0f 11 45 f4       	movss  DWORD PTR [rbp-0xc],xmm0
   140007b0e:	f3 0f 10 45 f8       	movss  xmm0,DWORD PTR [rbp-0x8]
   140007b13:	f3 0f 58 45 f4       	addss  xmm0,DWORD PTR [rbp-0xc]
   140007b18:	48 8b 15 e9 84 00 00 	mov    rdx,QWORD PTR [rip+0x84e9]        # 140010008 <vmcs>
   140007b1f:	0f b6 4d ff          	movzx  ecx,BYTE PTR [rbp-0x1]
   140007b23:	0f 2f 05 8e 9d 00 00 	comiss xmm0,DWORD PTR [rip+0x9d8e]        # 1400118b8 <_ZL14dispatch_table+0x3b8>
   140007b2a:	73 07                	jae    140007b33 <_ZN5rvm6410operations5rtype9rv_fadd_dEv+0xff>
   140007b2c:	f3 48 0f 2c c0       	cvttss2si rax,xmm0
   140007b31:	eb 1e                	jmp    140007b51 <_ZN5rvm6410operations5rtype9rv_fadd_dEv+0x11d>
   140007b33:	f3 0f 10 0d 7d 9d 00 	movss  xmm1,DWORD PTR [rip+0x9d7d]        # 1400118b8 <_ZL14dispatch_table+0x3b8>
   140007b3a:	00 
   140007b3b:	f3 0f 5c c1          	subss  xmm0,xmm1
   140007b3f:	f3 48 0f 2c c0       	cvttss2si rax,xmm0
   140007b44:	49 b8 00 00 00 00 00 	movabs r8,0x8000000000000000
   140007b4b:	00 00 80 
   140007b4e:	4c 31 c0             	xor    rax,r8
   140007b51:	48 63 c9             	movsxd rcx,ecx
   140007b54:	48 83 c1 22          	add    rcx,0x22
   140007b58:	48 89 44 ca 08       	mov    QWORD PTR [rdx+rcx*8+0x8],rax
   140007b5d:	90                   	nop
   140007b5e:	48 83 c4 10          	add    rsp,0x10
   140007b62:	5d                   	pop    rbp
   140007b63:	c3                   	ret

0000000140007b64 <_ZN5rvm6410operations5rtype9rv_fsub_dEv>:
   140007b64:	55                   	push   rbp
   140007b65:	48 89 e5             	mov    rbp,rsp
   140007b68:	48 83 ec 10          	sub    rsp,0x10
   140007b6c:	c6 45 ff 00          	mov    BYTE PTR [rbp-0x1],0x0
   140007b70:	c6 45 fe 00          	mov    BYTE PTR [rbp-0x2],0x0
   140007b74:	c6 45 fd 00          	mov    BYTE PTR [rbp-0x3],0x0
   140007b78:	66 0f ef c0          	pxor   xmm0,xmm0
   140007b7c:	f3 0f 11 45 f8       	movss  DWORD PTR [rbp-0x8],xmm0
   140007b81:	66 0f ef c0          	pxor   xmm0,xmm0
   140007b85:	f3 0f 11 45 f4       	movss  DWORD PTR [rbp-0xc],xmm0
   140007b8a:	48 8b 05 77 84 00 00 	mov    rax,QWORD PTR [rip+0x8477]        # 140010008 <vmcs>
   140007b91:	48 8b 40 18          	mov    rax,QWORD PTR [rax+0x18]
   140007b95:	88 45 ff             	mov    BYTE PTR [rbp-0x1],al
   140007b98:	48 8b 05 69 84 00 00 	mov    rax,QWORD PTR [rip+0x8469]        # 140010008 <vmcs>
   140007b9f:	48 8b 40 20          	mov    rax,QWORD PTR [rax+0x20]
   140007ba3:	88 45 fe             	mov    BYTE PTR [rbp-0x2],al
   140007ba6:	48 8b 05 5b 84 00 00 	mov    rax,QWORD PTR [rip+0x845b]        # 140010008 <vmcs>
   140007bad:	48 8b 40 28          	mov    rax,QWORD PTR [rax+0x28]
   140007bb1:	88 45 fd             	mov    BYTE PTR [rbp-0x3],al
   140007bb4:	48 8b 05 4d 84 00 00 	mov    rax,QWORD PTR [rip+0x844d]        # 140010008 <vmcs>
   140007bbb:	0f b6 55 fe          	movzx  edx,BYTE PTR [rbp-0x2]
   140007bbf:	48 63 d2             	movsxd rdx,edx
   140007bc2:	48 83 c2 22          	add    rdx,0x22
   140007bc6:	48 8b 44 d0 08       	mov    rax,QWORD PTR [rax+rdx*8+0x8]
   140007bcb:	48 85 c0             	test   rax,rax
   140007bce:	78 0b                	js     140007bdb <_ZN5rvm6410operations5rtype9rv_fsub_dEv+0x77>
   140007bd0:	66 0f ef c0          	pxor   xmm0,xmm0
   140007bd4:	f3 48 0f 2a c0       	cvtsi2ss xmm0,rax
   140007bd9:	eb 19                	jmp    140007bf4 <_ZN5rvm6410operations5rtype9rv_fsub_dEv+0x90>
   140007bdb:	48 89 c2             	mov    rdx,rax
   140007bde:	48 d1 ea             	shr    rdx,1
   140007be1:	83 e0 01             	and    eax,0x1
   140007be4:	48 09 c2             	or     rdx,rax
   140007be7:	66 0f ef c0          	pxor   xmm0,xmm0
   140007beb:	f3 48 0f 2a c2       	cvtsi2ss xmm0,rdx
   140007bf0:	f3 0f 58 c0          	addss  xmm0,xmm0
   140007bf4:	f3 0f 11 45 f8       	movss  DWORD PTR [rbp-0x8],xmm0
   140007bf9:	48 8b 05 08 84 00 00 	mov    rax,QWORD PTR [rip+0x8408]        # 140010008 <vmcs>
   140007c00:	0f b6 55 fd          	movzx  edx,BYTE PTR [rbp-0x3]
   140007c04:	48 63 d2             	movsxd rdx,edx
   140007c07:	48 83 c2 22          	add    rdx,0x22
   140007c0b:	48 8b 44 d0 08       	mov    rax,QWORD PTR [rax+rdx*8+0x8]
   140007c10:	48 85 c0             	test   rax,rax
   140007c13:	78 0b                	js     140007c20 <_ZN5rvm6410operations5rtype9rv_fsub_dEv+0xbc>
   140007c15:	66 0f ef c0          	pxor   xmm0,xmm0
   140007c19:	f3 48 0f 2a c0       	cvtsi2ss xmm0,rax
   140007c1e:	eb 19                	jmp    140007c39 <_ZN5rvm6410operations5rtype9rv_fsub_dEv+0xd5>
   140007c20:	48 89 c2             	mov    rdx,rax
   140007c23:	48 d1 ea             	shr    rdx,1
   140007c26:	83 e0 01             	and    eax,0x1
   140007c29:	48 09 c2             	or     rdx,rax
   140007c2c:	66 0f ef c0          	pxor   xmm0,xmm0
   140007c30:	f3 48 0f 2a c2       	cvtsi2ss xmm0,rdx
   140007c35:	f3 0f 58 c0          	addss  xmm0,xmm0
   140007c39:	f3 0f 11 45 f4       	movss  DWORD PTR [rbp-0xc],xmm0
   140007c3e:	f3 0f 10 45 f8       	movss  xmm0,DWORD PTR [rbp-0x8]
   140007c43:	f3 0f 5c 45 f4       	subss  xmm0,DWORD PTR [rbp-0xc]
   140007c48:	48 8b 15 b9 83 00 00 	mov    rdx,QWORD PTR [rip+0x83b9]        # 140010008 <vmcs>
   140007c4f:	0f b6 4d ff          	movzx  ecx,BYTE PTR [rbp-0x1]
   140007c53:	0f 2f 05 5e 9c 00 00 	comiss xmm0,DWORD PTR [rip+0x9c5e]        # 1400118b8 <_ZL14dispatch_table+0x3b8>
   140007c5a:	73 07                	jae    140007c63 <_ZN5rvm6410operations5rtype9rv_fsub_dEv+0xff>
   140007c5c:	f3 48 0f 2c c0       	cvttss2si rax,xmm0
   140007c61:	eb 1e                	jmp    140007c81 <_ZN5rvm6410operations5rtype9rv_fsub_dEv+0x11d>
   140007c63:	f3 0f 10 0d 4d 9c 00 	movss  xmm1,DWORD PTR [rip+0x9c4d]        # 1400118b8 <_ZL14dispatch_table+0x3b8>
   140007c6a:	00 
   140007c6b:	f3 0f 5c c1          	subss  xmm0,xmm1
   140007c6f:	f3 48 0f 2c c0       	cvttss2si rax,xmm0
   140007c74:	49 b8 00 00 00 00 00 	movabs r8,0x8000000000000000
   140007c7b:	00 00 80 
   140007c7e:	4c 31 c0             	xor    rax,r8
   140007c81:	48 63 c9             	movsxd rcx,ecx
   140007c84:	48 83 c1 22          	add    rcx,0x22
   140007c88:	48 89 44 ca 08       	mov    QWORD PTR [rdx+rcx*8+0x8],rax
   140007c8d:	90                   	nop
   140007c8e:	48 83 c4 10          	add    rsp,0x10
   140007c92:	5d                   	pop    rbp
   140007c93:	c3                   	ret

0000000140007c94 <_ZN5rvm6410operations5rtype9rv_fmul_dEv>:
   140007c94:	55                   	push   rbp
   140007c95:	48 89 e5             	mov    rbp,rsp
   140007c98:	48 83 ec 10          	sub    rsp,0x10
   140007c9c:	c6 45 ff 00          	mov    BYTE PTR [rbp-0x1],0x0
   140007ca0:	c6 45 fe 00          	mov    BYTE PTR [rbp-0x2],0x0
   140007ca4:	c6 45 fd 00          	mov    BYTE PTR [rbp-0x3],0x0
   140007ca8:	66 0f ef c0          	pxor   xmm0,xmm0
   140007cac:	f3 0f 11 45 f8       	movss  DWORD PTR [rbp-0x8],xmm0
   140007cb1:	66 0f ef c0          	pxor   xmm0,xmm0
   140007cb5:	f3 0f 11 45 f4       	movss  DWORD PTR [rbp-0xc],xmm0
   140007cba:	48 8b 05 47 83 00 00 	mov    rax,QWORD PTR [rip+0x8347]        # 140010008 <vmcs>
   140007cc1:	48 8b 40 18          	mov    rax,QWORD PTR [rax+0x18]
   140007cc5:	88 45 ff             	mov    BYTE PTR [rbp-0x1],al
   140007cc8:	48 8b 05 39 83 00 00 	mov    rax,QWORD PTR [rip+0x8339]        # 140010008 <vmcs>
   140007ccf:	48 8b 40 20          	mov    rax,QWORD PTR [rax+0x20]
   140007cd3:	88 45 fe             	mov    BYTE PTR [rbp-0x2],al
   140007cd6:	48 8b 05 2b 83 00 00 	mov    rax,QWORD PTR [rip+0x832b]        # 140010008 <vmcs>
   140007cdd:	48 8b 40 28          	mov    rax,QWORD PTR [rax+0x28]
   140007ce1:	88 45 fd             	mov    BYTE PTR [rbp-0x3],al
   140007ce4:	48 8b 05 1d 83 00 00 	mov    rax,QWORD PTR [rip+0x831d]        # 140010008 <vmcs>
   140007ceb:	0f b6 55 fe          	movzx  edx,BYTE PTR [rbp-0x2]
   140007cef:	48 63 d2             	movsxd rdx,edx
   140007cf2:	48 83 c2 22          	add    rdx,0x22
   140007cf6:	48 8b 44 d0 08       	mov    rax,QWORD PTR [rax+rdx*8+0x8]
   140007cfb:	48 85 c0             	test   rax,rax
   140007cfe:	78 0b                	js     140007d0b <_ZN5rvm6410operations5rtype9rv_fmul_dEv+0x77>
   140007d00:	66 0f ef c0          	pxor   xmm0,xmm0
   140007d04:	f3 48 0f 2a c0       	cvtsi2ss xmm0,rax
   140007d09:	eb 19                	jmp    140007d24 <_ZN5rvm6410operations5rtype9rv_fmul_dEv+0x90>
   140007d0b:	48 89 c2             	mov    rdx,rax
   140007d0e:	48 d1 ea             	shr    rdx,1
   140007d11:	83 e0 01             	and    eax,0x1
   140007d14:	48 09 c2             	or     rdx,rax
   140007d17:	66 0f ef c0          	pxor   xmm0,xmm0
   140007d1b:	f3 48 0f 2a c2       	cvtsi2ss xmm0,rdx
   140007d20:	f3 0f 58 c0          	addss  xmm0,xmm0
   140007d24:	f3 0f 11 45 f8       	movss  DWORD PTR [rbp-0x8],xmm0
   140007d29:	48 8b 05 d8 82 00 00 	mov    rax,QWORD PTR [rip+0x82d8]        # 140010008 <vmcs>
   140007d30:	0f b6 55 fd          	movzx  edx,BYTE PTR [rbp-0x3]
   140007d34:	48 63 d2             	movsxd rdx,edx
   140007d37:	48 83 c2 22          	add    rdx,0x22
   140007d3b:	48 8b 44 d0 08       	mov    rax,QWORD PTR [rax+rdx*8+0x8]
   140007d40:	48 85 c0             	test   rax,rax
   140007d43:	78 0b                	js     140007d50 <_ZN5rvm6410operations5rtype9rv_fmul_dEv+0xbc>
   140007d45:	66 0f ef c0          	pxor   xmm0,xmm0
   140007d49:	f3 48 0f 2a c0       	cvtsi2ss xmm0,rax
   140007d4e:	eb 19                	jmp    140007d69 <_ZN5rvm6410operations5rtype9rv_fmul_dEv+0xd5>
   140007d50:	48 89 c2             	mov    rdx,rax
   140007d53:	48 d1 ea             	shr    rdx,1
   140007d56:	83 e0 01             	and    eax,0x1
   140007d59:	48 09 c2             	or     rdx,rax
   140007d5c:	66 0f ef c0          	pxor   xmm0,xmm0
   140007d60:	f3 48 0f 2a c2       	cvtsi2ss xmm0,rdx
   140007d65:	f3 0f 58 c0          	addss  xmm0,xmm0
   140007d69:	f3 0f 11 45 f4       	movss  DWORD PTR [rbp-0xc],xmm0
   140007d6e:	f3 0f 10 45 f8       	movss  xmm0,DWORD PTR [rbp-0x8]
   140007d73:	f3 0f 59 45 f4       	mulss  xmm0,DWORD PTR [rbp-0xc]
   140007d78:	48 8b 15 89 82 00 00 	mov    rdx,QWORD PTR [rip+0x8289]        # 140010008 <vmcs>
   140007d7f:	0f b6 4d ff          	movzx  ecx,BYTE PTR [rbp-0x1]
   140007d83:	0f 2f 05 2e 9b 00 00 	comiss xmm0,DWORD PTR [rip+0x9b2e]        # 1400118b8 <_ZL14dispatch_table+0x3b8>
   140007d8a:	73 07                	jae    140007d93 <_ZN5rvm6410operations5rtype9rv_fmul_dEv+0xff>
   140007d8c:	f3 48 0f 2c c0       	cvttss2si rax,xmm0
   140007d91:	eb 1e                	jmp    140007db1 <_ZN5rvm6410operations5rtype9rv_fmul_dEv+0x11d>
   140007d93:	f3 0f 10 0d 1d 9b 00 	movss  xmm1,DWORD PTR [rip+0x9b1d]        # 1400118b8 <_ZL14dispatch_table+0x3b8>
   140007d9a:	00 
   140007d9b:	f3 0f 5c c1          	subss  xmm0,xmm1
   140007d9f:	f3 48 0f 2c c0       	cvttss2si rax,xmm0
   140007da4:	49 b8 00 00 00 00 00 	movabs r8,0x8000000000000000
   140007dab:	00 00 80 
   140007dae:	4c 31 c0             	xor    rax,r8
   140007db1:	48 63 c9             	movsxd rcx,ecx
   140007db4:	48 83 c1 22          	add    rcx,0x22
   140007db8:	48 89 44 ca 08       	mov    QWORD PTR [rdx+rcx*8+0x8],rax
   140007dbd:	90                   	nop
   140007dbe:	48 83 c4 10          	add    rsp,0x10
   140007dc2:	5d                   	pop    rbp
   140007dc3:	c3                   	ret

0000000140007dc4 <_ZN5rvm6410operations5rtype9rv_fdiv_dEv>:
   140007dc4:	55                   	push   rbp
   140007dc5:	48 89 e5             	mov    rbp,rsp
   140007dc8:	48 83 ec 10          	sub    rsp,0x10
   140007dcc:	c6 45 ff 00          	mov    BYTE PTR [rbp-0x1],0x0
   140007dd0:	c6 45 fe 00          	mov    BYTE PTR [rbp-0x2],0x0
   140007dd4:	c6 45 fd 00          	mov    BYTE PTR [rbp-0x3],0x0
   140007dd8:	66 0f ef c0          	pxor   xmm0,xmm0
   140007ddc:	f3 0f 11 45 f8       	movss  DWORD PTR [rbp-0x8],xmm0
   140007de1:	66 0f ef c0          	pxor   xmm0,xmm0
   140007de5:	f3 0f 11 45 f4       	movss  DWORD PTR [rbp-0xc],xmm0
   140007dea:	48 8b 05 17 82 00 00 	mov    rax,QWORD PTR [rip+0x8217]        # 140010008 <vmcs>
   140007df1:	48 8b 40 18          	mov    rax,QWORD PTR [rax+0x18]
   140007df5:	88 45 ff             	mov    BYTE PTR [rbp-0x1],al
   140007df8:	48 8b 05 09 82 00 00 	mov    rax,QWORD PTR [rip+0x8209]        # 140010008 <vmcs>
   140007dff:	48 8b 40 20          	mov    rax,QWORD PTR [rax+0x20]
   140007e03:	88 45 fe             	mov    BYTE PTR [rbp-0x2],al
   140007e06:	48 8b 05 fb 81 00 00 	mov    rax,QWORD PTR [rip+0x81fb]        # 140010008 <vmcs>
   140007e0d:	48 8b 40 28          	mov    rax,QWORD PTR [rax+0x28]
   140007e11:	88 45 fd             	mov    BYTE PTR [rbp-0x3],al
   140007e14:	48 8b 05 ed 81 00 00 	mov    rax,QWORD PTR [rip+0x81ed]        # 140010008 <vmcs>
   140007e1b:	0f b6 55 fe          	movzx  edx,BYTE PTR [rbp-0x2]
   140007e1f:	48 63 d2             	movsxd rdx,edx
   140007e22:	48 83 c2 22          	add    rdx,0x22
   140007e26:	48 8b 44 d0 08       	mov    rax,QWORD PTR [rax+rdx*8+0x8]
   140007e2b:	48 85 c0             	test   rax,rax
   140007e2e:	78 0b                	js     140007e3b <_ZN5rvm6410operations5rtype9rv_fdiv_dEv+0x77>
   140007e30:	66 0f ef c0          	pxor   xmm0,xmm0
   140007e34:	f3 48 0f 2a c0       	cvtsi2ss xmm0,rax
   140007e39:	eb 19                	jmp    140007e54 <_ZN5rvm6410operations5rtype9rv_fdiv_dEv+0x90>
   140007e3b:	48 89 c2             	mov    rdx,rax
   140007e3e:	48 d1 ea             	shr    rdx,1
   140007e41:	83 e0 01             	and    eax,0x1
   140007e44:	48 09 c2             	or     rdx,rax
   140007e47:	66 0f ef c0          	pxor   xmm0,xmm0
   140007e4b:	f3 48 0f 2a c2       	cvtsi2ss xmm0,rdx
   140007e50:	f3 0f 58 c0          	addss  xmm0,xmm0
   140007e54:	f3 0f 11 45 f8       	movss  DWORD PTR [rbp-0x8],xmm0
   140007e59:	48 8b 05 a8 81 00 00 	mov    rax,QWORD PTR [rip+0x81a8]        # 140010008 <vmcs>
   140007e60:	0f b6 55 fd          	movzx  edx,BYTE PTR [rbp-0x3]
   140007e64:	48 63 d2             	movsxd rdx,edx
   140007e67:	48 83 c2 22          	add    rdx,0x22
   140007e6b:	48 8b 44 d0 08       	mov    rax,QWORD PTR [rax+rdx*8+0x8]
   140007e70:	48 85 c0             	test   rax,rax
   140007e73:	78 0b                	js     140007e80 <_ZN5rvm6410operations5rtype9rv_fdiv_dEv+0xbc>
   140007e75:	66 0f ef c0          	pxor   xmm0,xmm0
   140007e79:	f3 48 0f 2a c0       	cvtsi2ss xmm0,rax
   140007e7e:	eb 19                	jmp    140007e99 <_ZN5rvm6410operations5rtype9rv_fdiv_dEv+0xd5>
   140007e80:	48 89 c2             	mov    rdx,rax
   140007e83:	48 d1 ea             	shr    rdx,1
   140007e86:	83 e0 01             	and    eax,0x1
   140007e89:	48 09 c2             	or     rdx,rax
   140007e8c:	66 0f ef c0          	pxor   xmm0,xmm0
   140007e90:	f3 48 0f 2a c2       	cvtsi2ss xmm0,rdx
   140007e95:	f3 0f 58 c0          	addss  xmm0,xmm0
   140007e99:	f3 0f 11 45 f4       	movss  DWORD PTR [rbp-0xc],xmm0
   140007e9e:	f3 0f 10 45 f8       	movss  xmm0,DWORD PTR [rbp-0x8]
   140007ea3:	f3 0f 5e 45 f4       	divss  xmm0,DWORD PTR [rbp-0xc]
   140007ea8:	48 8b 15 59 81 00 00 	mov    rdx,QWORD PTR [rip+0x8159]        # 140010008 <vmcs>
   140007eaf:	0f b6 4d ff          	movzx  ecx,BYTE PTR [rbp-0x1]
   140007eb3:	0f 2f 05 fe 99 00 00 	comiss xmm0,DWORD PTR [rip+0x99fe]        # 1400118b8 <_ZL14dispatch_table+0x3b8>
   140007eba:	73 07                	jae    140007ec3 <_ZN5rvm6410operations5rtype9rv_fdiv_dEv+0xff>
   140007ebc:	f3 48 0f 2c c0       	cvttss2si rax,xmm0
   140007ec1:	eb 1e                	jmp    140007ee1 <_ZN5rvm6410operations5rtype9rv_fdiv_dEv+0x11d>
   140007ec3:	f3 0f 10 0d ed 99 00 	movss  xmm1,DWORD PTR [rip+0x99ed]        # 1400118b8 <_ZL14dispatch_table+0x3b8>
   140007eca:	00 
   140007ecb:	f3 0f 5c c1          	subss  xmm0,xmm1
   140007ecf:	f3 48 0f 2c c0       	cvttss2si rax,xmm0
   140007ed4:	49 b8 00 00 00 00 00 	movabs r8,0x8000000000000000
   140007edb:	00 00 80 
   140007ede:	4c 31 c0             	xor    rax,r8
   140007ee1:	48 63 c9             	movsxd rcx,ecx
   140007ee4:	48 83 c1 22          	add    rcx,0x22
   140007ee8:	48 89 44 ca 08       	mov    QWORD PTR [rdx+rcx*8+0x8],rax
   140007eed:	90                   	nop
   140007eee:	48 83 c4 10          	add    rsp,0x10
   140007ef2:	5d                   	pop    rbp
   140007ef3:	c3                   	ret

0000000140007ef4 <_ZN5rvm6410operations5rtype10rv_fsgnj_dEv>:
   140007ef4:	55                   	push   rbp
   140007ef5:	48 89 e5             	mov    rbp,rsp
   140007ef8:	48 83 ec 20          	sub    rsp,0x20
   140007efc:	c6 45 ff 00          	mov    BYTE PTR [rbp-0x1],0x0
   140007f00:	c6 45 fe 00          	mov    BYTE PTR [rbp-0x2],0x0
   140007f04:	c6 45 fd 00          	mov    BYTE PTR [rbp-0x3],0x0
   140007f08:	48 c7 45 f0 00 00 00 	mov    QWORD PTR [rbp-0x10],0x0
   140007f0f:	00 
   140007f10:	48 c7 45 e8 00 00 00 	mov    QWORD PTR [rbp-0x18],0x0
   140007f17:	00 
   140007f18:	48 8b 05 e9 80 00 00 	mov    rax,QWORD PTR [rip+0x80e9]        # 140010008 <vmcs>
   140007f1f:	48 8b 40 18          	mov    rax,QWORD PTR [rax+0x18]
   140007f23:	88 45 ff             	mov    BYTE PTR [rbp-0x1],al
   140007f26:	48 8b 05 db 80 00 00 	mov    rax,QWORD PTR [rip+0x80db]        # 140010008 <vmcs>
   140007f2d:	48 8b 40 20          	mov    rax,QWORD PTR [rax+0x20]
   140007f31:	88 45 fe             	mov    BYTE PTR [rbp-0x2],al
   140007f34:	48 8b 05 cd 80 00 00 	mov    rax,QWORD PTR [rip+0x80cd]        # 140010008 <vmcs>
   140007f3b:	48 8b 40 28          	mov    rax,QWORD PTR [rax+0x28]
   140007f3f:	88 45 fd             	mov    BYTE PTR [rbp-0x3],al
   140007f42:	48 8b 05 bf 80 00 00 	mov    rax,QWORD PTR [rip+0x80bf]        # 140010008 <vmcs>
   140007f49:	0f b6 55 fe          	movzx  edx,BYTE PTR [rbp-0x2]
   140007f4d:	48 63 d2             	movsxd rdx,edx
   140007f50:	48 83 c2 22          	add    rdx,0x22
   140007f54:	48 8b 44 d0 08       	mov    rax,QWORD PTR [rax+rdx*8+0x8]
   140007f59:	48 89 45 f0          	mov    QWORD PTR [rbp-0x10],rax
   140007f5d:	48 8b 05 a4 80 00 00 	mov    rax,QWORD PTR [rip+0x80a4]        # 140010008 <vmcs>
   140007f64:	0f b6 55 fd          	movzx  edx,BYTE PTR [rbp-0x3]
   140007f68:	48 63 d2             	movsxd rdx,edx
   140007f6b:	48 83 c2 22          	add    rdx,0x22
   140007f6f:	48 8b 44 d0 08       	mov    rax,QWORD PTR [rax+rdx*8+0x8]
   140007f74:	48 89 45 e8          	mov    QWORD PTR [rbp-0x18],rax
   140007f78:	48 8b 45 e8          	mov    rax,QWORD PTR [rbp-0x18]
   140007f7c:	48 c1 e8 3f          	shr    rax,0x3f
   140007f80:	48 89 45 e0          	mov    QWORD PTR [rbp-0x20],rax
   140007f84:	48 b8 ff ff ff ff ff 	movabs rax,0x7fffffffffffffff
   140007f8b:	ff ff 7f 
   140007f8e:	48 21 45 f0          	and    QWORD PTR [rbp-0x10],rax
   140007f92:	48 8b 45 e0          	mov    rax,QWORD PTR [rbp-0x20]
   140007f96:	48 c1 e0 3f          	shl    rax,0x3f
   140007f9a:	48 09 45 f0          	or     QWORD PTR [rbp-0x10],rax
   140007f9e:	48 8b 05 63 80 00 00 	mov    rax,QWORD PTR [rip+0x8063]        # 140010008 <vmcs>
   140007fa5:	0f b6 4d ff          	movzx  ecx,BYTE PTR [rbp-0x1]
   140007fa9:	48 8b 55 f0          	mov    rdx,QWORD PTR [rbp-0x10]
   140007fad:	48 63 c9             	movsxd rcx,ecx
   140007fb0:	48 83 c1 22          	add    rcx,0x22
   140007fb4:	48 89 54 c8 08       	mov    QWORD PTR [rax+rcx*8+0x8],rdx
   140007fb9:	90                   	nop
   140007fba:	48 83 c4 20          	add    rsp,0x20
   140007fbe:	5d                   	pop    rbp
   140007fbf:	c3                   	ret

0000000140007fc0 <_ZN5rvm6410operations5rtype11rv_fsgnjn_dEv>:
   140007fc0:	55                   	push   rbp
   140007fc1:	48 89 e5             	mov    rbp,rsp
   140007fc4:	48 83 ec 20          	sub    rsp,0x20
   140007fc8:	c6 45 ff 00          	mov    BYTE PTR [rbp-0x1],0x0
   140007fcc:	c6 45 fe 00          	mov    BYTE PTR [rbp-0x2],0x0
   140007fd0:	c6 45 fd 00          	mov    BYTE PTR [rbp-0x3],0x0
   140007fd4:	48 c7 45 f0 00 00 00 	mov    QWORD PTR [rbp-0x10],0x0
   140007fdb:	00 
   140007fdc:	48 c7 45 e8 00 00 00 	mov    QWORD PTR [rbp-0x18],0x0
   140007fe3:	00 
   140007fe4:	48 8b 05 1d 80 00 00 	mov    rax,QWORD PTR [rip+0x801d]        # 140010008 <vmcs>
   140007feb:	48 8b 40 18          	mov    rax,QWORD PTR [rax+0x18]
   140007fef:	88 45 ff             	mov    BYTE PTR [rbp-0x1],al
   140007ff2:	48 8b 05 0f 80 00 00 	mov    rax,QWORD PTR [rip+0x800f]        # 140010008 <vmcs>
   140007ff9:	48 8b 40 20          	mov    rax,QWORD PTR [rax+0x20]
   140007ffd:	88 45 fe             	mov    BYTE PTR [rbp-0x2],al
   140008000:	48 8b 05 01 80 00 00 	mov    rax,QWORD PTR [rip+0x8001]        # 140010008 <vmcs>
   140008007:	48 8b 40 28          	mov    rax,QWORD PTR [rax+0x28]
   14000800b:	88 45 fd             	mov    BYTE PTR [rbp-0x3],al
   14000800e:	48 8b 05 f3 7f 00 00 	mov    rax,QWORD PTR [rip+0x7ff3]        # 140010008 <vmcs>
   140008015:	0f b6 55 fe          	movzx  edx,BYTE PTR [rbp-0x2]
   140008019:	48 63 d2             	movsxd rdx,edx
   14000801c:	48 83 c2 22          	add    rdx,0x22
   140008020:	48 8b 44 d0 08       	mov    rax,QWORD PTR [rax+rdx*8+0x8]
   140008025:	48 89 45 f0          	mov    QWORD PTR [rbp-0x10],rax
   140008029:	48 8b 05 d8 7f 00 00 	mov    rax,QWORD PTR [rip+0x7fd8]        # 140010008 <vmcs>
   140008030:	0f b6 55 fd          	movzx  edx,BYTE PTR [rbp-0x3]
   140008034:	48 63 d2             	movsxd rdx,edx
   140008037:	48 83 c2 22          	add    rdx,0x22
   14000803b:	48 8b 44 d0 08       	mov    rax,QWORD PTR [rax+rdx*8+0x8]
   140008040:	48 89 45 e8          	mov    QWORD PTR [rbp-0x18],rax
   140008044:	48 8b 45 e8          	mov    rax,QWORD PTR [rbp-0x18]
   140008048:	48 c1 e8 3f          	shr    rax,0x3f
   14000804c:	48 83 f0 01          	xor    rax,0x1
   140008050:	48 89 45 e0          	mov    QWORD PTR [rbp-0x20],rax
   140008054:	48 b8 ff ff ff ff ff 	movabs rax,0x7fffffffffffffff
   14000805b:	ff ff 7f 
   14000805e:	48 21 45 f0          	and    QWORD PTR [rbp-0x10],rax
   140008062:	48 8b 45 e0          	mov    rax,QWORD PTR [rbp-0x20]
   140008066:	48 c1 e0 3f          	shl    rax,0x3f
   14000806a:	48 09 45 f0          	or     QWORD PTR [rbp-0x10],rax
   14000806e:	48 8b 05 93 7f 00 00 	mov    rax,QWORD PTR [rip+0x7f93]        # 140010008 <vmcs>
   140008075:	0f b6 4d ff          	movzx  ecx,BYTE PTR [rbp-0x1]
   140008079:	48 8b 55 f0          	mov    rdx,QWORD PTR [rbp-0x10]
   14000807d:	48 63 c9             	movsxd rcx,ecx
   140008080:	48 83 c1 22          	add    rcx,0x22
   140008084:	48 89 54 c8 08       	mov    QWORD PTR [rax+rcx*8+0x8],rdx
   140008089:	90                   	nop
   14000808a:	48 83 c4 20          	add    rsp,0x20
   14000808e:	5d                   	pop    rbp
   14000808f:	c3                   	ret

0000000140008090 <_ZN5rvm6410operations5rtype11rv_fsgnjx_dEv>:
   140008090:	55                   	push   rbp
   140008091:	48 89 e5             	mov    rbp,rsp
   140008094:	48 83 ec 30          	sub    rsp,0x30
   140008098:	c6 45 ff 00          	mov    BYTE PTR [rbp-0x1],0x0
   14000809c:	c6 45 fe 00          	mov    BYTE PTR [rbp-0x2],0x0
   1400080a0:	c6 45 fd 00          	mov    BYTE PTR [rbp-0x3],0x0
   1400080a4:	48 c7 45 f0 00 00 00 	mov    QWORD PTR [rbp-0x10],0x0
   1400080ab:	00 
   1400080ac:	48 c7 45 e8 00 00 00 	mov    QWORD PTR [rbp-0x18],0x0
   1400080b3:	00 
   1400080b4:	48 8b 05 4d 7f 00 00 	mov    rax,QWORD PTR [rip+0x7f4d]        # 140010008 <vmcs>
   1400080bb:	48 8b 40 18          	mov    rax,QWORD PTR [rax+0x18]
   1400080bf:	88 45 ff             	mov    BYTE PTR [rbp-0x1],al
   1400080c2:	48 8b 05 3f 7f 00 00 	mov    rax,QWORD PTR [rip+0x7f3f]        # 140010008 <vmcs>
   1400080c9:	48 8b 40 20          	mov    rax,QWORD PTR [rax+0x20]
   1400080cd:	88 45 fe             	mov    BYTE PTR [rbp-0x2],al
   1400080d0:	48 8b 05 31 7f 00 00 	mov    rax,QWORD PTR [rip+0x7f31]        # 140010008 <vmcs>
   1400080d7:	48 8b 40 28          	mov    rax,QWORD PTR [rax+0x28]
   1400080db:	88 45 fd             	mov    BYTE PTR [rbp-0x3],al
   1400080de:	48 8b 05 23 7f 00 00 	mov    rax,QWORD PTR [rip+0x7f23]        # 140010008 <vmcs>
   1400080e5:	0f b6 55 fe          	movzx  edx,BYTE PTR [rbp-0x2]
   1400080e9:	48 63 d2             	movsxd rdx,edx
   1400080ec:	48 83 c2 22          	add    rdx,0x22
   1400080f0:	48 8b 44 d0 08       	mov    rax,QWORD PTR [rax+rdx*8+0x8]
   1400080f5:	48 89 45 f0          	mov    QWORD PTR [rbp-0x10],rax
   1400080f9:	48 8b 05 08 7f 00 00 	mov    rax,QWORD PTR [rip+0x7f08]        # 140010008 <vmcs>
   140008100:	0f b6 55 fd          	movzx  edx,BYTE PTR [rbp-0x3]
   140008104:	48 63 d2             	movsxd rdx,edx
   140008107:	48 83 c2 22          	add    rdx,0x22
   14000810b:	48 8b 44 d0 08       	mov    rax,QWORD PTR [rax+rdx*8+0x8]
   140008110:	48 89 45 e8          	mov    QWORD PTR [rbp-0x18],rax
   140008114:	48 8b 45 f0          	mov    rax,QWORD PTR [rbp-0x10]
   140008118:	48 c1 e8 3f          	shr    rax,0x3f
   14000811c:	48 89 45 e0          	mov    QWORD PTR [rbp-0x20],rax
   140008120:	48 8b 45 e8          	mov    rax,QWORD PTR [rbp-0x18]
   140008124:	48 c1 e8 3f          	shr    rax,0x3f
   140008128:	48 89 45 d8          	mov    QWORD PTR [rbp-0x28],rax
   14000812c:	48 b8 ff ff ff ff ff 	movabs rax,0x7fffffffffffffff
   140008133:	ff ff 7f 
   140008136:	48 21 45 f0          	and    QWORD PTR [rbp-0x10],rax
   14000813a:	48 8b 45 e0          	mov    rax,QWORD PTR [rbp-0x20]
   14000813e:	48 33 45 d8          	xor    rax,QWORD PTR [rbp-0x28]
   140008142:	48 c1 e0 3f          	shl    rax,0x3f
   140008146:	48 09 45 f0          	or     QWORD PTR [rbp-0x10],rax
   14000814a:	48 8b 05 b7 7e 00 00 	mov    rax,QWORD PTR [rip+0x7eb7]        # 140010008 <vmcs>
   140008151:	0f b6 4d ff          	movzx  ecx,BYTE PTR [rbp-0x1]
   140008155:	48 8b 55 f0          	mov    rdx,QWORD PTR [rbp-0x10]
   140008159:	48 63 c9             	movsxd rcx,ecx
   14000815c:	48 83 c1 22          	add    rcx,0x22
   140008160:	48 89 54 c8 08       	mov    QWORD PTR [rax+rcx*8+0x8],rdx
   140008165:	90                   	nop
   140008166:	48 83 c4 30          	add    rsp,0x30
   14000816a:	5d                   	pop    rbp
   14000816b:	c3                   	ret

000000014000816c <_ZN5rvm6410operations5rtype9rv_fmin_dEv>:
   14000816c:	55                   	push   rbp
   14000816d:	48 89 e5             	mov    rbp,rsp
   140008170:	48 83 ec 40          	sub    rsp,0x40
   140008174:	c6 45 ff 00          	mov    BYTE PTR [rbp-0x1],0x0
   140008178:	c6 45 fe 00          	mov    BYTE PTR [rbp-0x2],0x0
   14000817c:	c6 45 fd 00          	mov    BYTE PTR [rbp-0x3],0x0
   140008180:	66 0f ef c0          	pxor   xmm0,xmm0
   140008184:	f2 0f 11 45 f0       	movsd  QWORD PTR [rbp-0x10],xmm0
   140008189:	66 0f ef c0          	pxor   xmm0,xmm0
   14000818d:	f2 0f 11 45 e8       	movsd  QWORD PTR [rbp-0x18],xmm0
   140008192:	48 8b 05 6f 7e 00 00 	mov    rax,QWORD PTR [rip+0x7e6f]        # 140010008 <vmcs>
   140008199:	48 8b 40 18          	mov    rax,QWORD PTR [rax+0x18]
   14000819d:	88 45 ff             	mov    BYTE PTR [rbp-0x1],al
   1400081a0:	48 8b 05 61 7e 00 00 	mov    rax,QWORD PTR [rip+0x7e61]        # 140010008 <vmcs>
   1400081a7:	48 8b 40 20          	mov    rax,QWORD PTR [rax+0x20]
   1400081ab:	88 45 fe             	mov    BYTE PTR [rbp-0x2],al
   1400081ae:	48 8b 05 53 7e 00 00 	mov    rax,QWORD PTR [rip+0x7e53]        # 140010008 <vmcs>
   1400081b5:	48 8b 40 28          	mov    rax,QWORD PTR [rax+0x28]
   1400081b9:	88 45 fd             	mov    BYTE PTR [rbp-0x3],al
   1400081bc:	48 8b 05 45 7e 00 00 	mov    rax,QWORD PTR [rip+0x7e45]        # 140010008 <vmcs>
   1400081c3:	0f b6 55 fe          	movzx  edx,BYTE PTR [rbp-0x2]
   1400081c7:	48 63 d2             	movsxd rdx,edx
   1400081ca:	48 83 c2 22          	add    rdx,0x22
   1400081ce:	48 8b 44 d0 08       	mov    rax,QWORD PTR [rax+rdx*8+0x8]
   1400081d3:	48 85 c0             	test   rax,rax
   1400081d6:	78 0b                	js     1400081e3 <_ZN5rvm6410operations5rtype9rv_fmin_dEv+0x77>
   1400081d8:	66 0f ef c0          	pxor   xmm0,xmm0
   1400081dc:	f2 48 0f 2a c0       	cvtsi2sd xmm0,rax
   1400081e1:	eb 19                	jmp    1400081fc <_ZN5rvm6410operations5rtype9rv_fmin_dEv+0x90>
   1400081e3:	48 89 c2             	mov    rdx,rax
   1400081e6:	48 d1 ea             	shr    rdx,1
   1400081e9:	83 e0 01             	and    eax,0x1
   1400081ec:	48 09 c2             	or     rdx,rax
   1400081ef:	66 0f ef c0          	pxor   xmm0,xmm0
   1400081f3:	f2 48 0f 2a c2       	cvtsi2sd xmm0,rdx
   1400081f8:	f2 0f 58 c0          	addsd  xmm0,xmm0
   1400081fc:	f2 0f 11 45 f0       	movsd  QWORD PTR [rbp-0x10],xmm0
   140008201:	48 8b 05 00 7e 00 00 	mov    rax,QWORD PTR [rip+0x7e00]        # 140010008 <vmcs>
   140008208:	0f b6 55 fd          	movzx  edx,BYTE PTR [rbp-0x3]
   14000820c:	48 63 d2             	movsxd rdx,edx
   14000820f:	48 83 c2 22          	add    rdx,0x22
   140008213:	48 8b 44 d0 08       	mov    rax,QWORD PTR [rax+rdx*8+0x8]
   140008218:	48 85 c0             	test   rax,rax
   14000821b:	78 0b                	js     140008228 <_ZN5rvm6410operations5rtype9rv_fmin_dEv+0xbc>
   14000821d:	66 0f ef c0          	pxor   xmm0,xmm0
   140008221:	f2 48 0f 2a c0       	cvtsi2sd xmm0,rax
   140008226:	eb 19                	jmp    140008241 <_ZN5rvm6410operations5rtype9rv_fmin_dEv+0xd5>
   140008228:	48 89 c2             	mov    rdx,rax
   14000822b:	48 d1 ea             	shr    rdx,1
   14000822e:	83 e0 01             	and    eax,0x1
   140008231:	48 09 c2             	or     rdx,rax
   140008234:	66 0f ef c0          	pxor   xmm0,xmm0
   140008238:	f2 48 0f 2a c2       	cvtsi2sd xmm0,rdx
   14000823d:	f2 0f 58 c0          	addsd  xmm0,xmm0
   140008241:	f2 0f 11 45 e8       	movsd  QWORD PTR [rbp-0x18],xmm0
   140008246:	48 8b 45 f0          	mov    rax,QWORD PTR [rbp-0x10]
   14000824a:	66 48 0f 6e c0       	movq   xmm0,rax
   14000824f:	e8 82 da ff ff       	call   140005cd6 <_ZN5rvm6410operations6is_nanEd>
   140008254:	84 c0                	test   al,al
   140008256:	74 5a                	je     1400082b2 <_ZN5rvm6410operations5rtype9rv_fmin_dEv+0x146>
   140008258:	48 8b 15 a9 7d 00 00 	mov    rdx,QWORD PTR [rip+0x7da9]        # 140010008 <vmcs>
   14000825f:	0f b6 4d ff          	movzx  ecx,BYTE PTR [rbp-0x1]
   140008263:	f2 0f 10 45 e8       	movsd  xmm0,QWORD PTR [rbp-0x18]
   140008268:	66 0f 2f 05 50 96 00 	comisd xmm0,QWORD PTR [rip+0x9650]        # 1400118c0 <_ZL14dispatch_table+0x3c0>
   14000826f:	00 
   140008270:	73 0c                	jae    14000827e <_ZN5rvm6410operations5rtype9rv_fmin_dEv+0x112>
   140008272:	f2 0f 10 45 e8       	movsd  xmm0,QWORD PTR [rbp-0x18]
   140008277:	f2 48 0f 2c c0       	cvttsd2si rax,xmm0
   14000827c:	eb 23                	jmp    1400082a1 <_ZN5rvm6410operations5rtype9rv_fmin_dEv+0x135>
   14000827e:	f2 0f 10 45 e8       	movsd  xmm0,QWORD PTR [rbp-0x18]
   140008283:	f2 0f 10 0d 35 96 00 	movsd  xmm1,QWORD PTR [rip+0x9635]        # 1400118c0 <_ZL14dispatch_table+0x3c0>
   14000828a:	00 
   14000828b:	f2 0f 5c c1          	subsd  xmm0,xmm1
   14000828f:	f2 48 0f 2c c0       	cvttsd2si rax,xmm0
   140008294:	49 b8 00 00 00 00 00 	movabs r8,0x8000000000000000
   14000829b:	00 00 80 
   14000829e:	4c 31 c0             	xor    rax,r8
   1400082a1:	48 63 c9             	movsxd rcx,ecx
   1400082a4:	48 83 c1 22          	add    rcx,0x22
   1400082a8:	48 89 44 ca 08       	mov    QWORD PTR [rdx+rcx*8+0x8],rax
   1400082ad:	e9 0d 01 00 00       	jmp    1400083bf <_ZN5rvm6410operations5rtype9rv_fmin_dEv+0x253>
   1400082b2:	48 8b 45 e8          	mov    rax,QWORD PTR [rbp-0x18]
   1400082b6:	66 48 0f 6e c0       	movq   xmm0,rax
   1400082bb:	e8 16 da ff ff       	call   140005cd6 <_ZN5rvm6410operations6is_nanEd>
   1400082c0:	84 c0                	test   al,al
   1400082c2:	74 5a                	je     14000831e <_ZN5rvm6410operations5rtype9rv_fmin_dEv+0x1b2>
   1400082c4:	48 8b 15 3d 7d 00 00 	mov    rdx,QWORD PTR [rip+0x7d3d]        # 140010008 <vmcs>
   1400082cb:	0f b6 4d ff          	movzx  ecx,BYTE PTR [rbp-0x1]
   1400082cf:	f2 0f 10 45 f0       	movsd  xmm0,QWORD PTR [rbp-0x10]
   1400082d4:	66 0f 2f 05 e4 95 00 	comisd xmm0,QWORD PTR [rip+0x95e4]        # 1400118c0 <_ZL14dispatch_table+0x3c0>
   1400082db:	00 
   1400082dc:	73 0c                	jae    1400082ea <_ZN5rvm6410operations5rtype9rv_fmin_dEv+0x17e>
   1400082de:	f2 0f 10 45 f0       	movsd  xmm0,QWORD PTR [rbp-0x10]
   1400082e3:	f2 48 0f 2c c0       	cvttsd2si rax,xmm0
   1400082e8:	eb 23                	jmp    14000830d <_ZN5rvm6410operations5rtype9rv_fmin_dEv+0x1a1>
   1400082ea:	f2 0f 10 45 f0       	movsd  xmm0,QWORD PTR [rbp-0x10]
   1400082ef:	f2 0f 10 0d c9 95 00 	movsd  xmm1,QWORD PTR [rip+0x95c9]        # 1400118c0 <_ZL14dispatch_table+0x3c0>
   1400082f6:	00 
   1400082f7:	f2 0f 5c c1          	subsd  xmm0,xmm1
   1400082fb:	f2 48 0f 2c c0       	cvttsd2si rax,xmm0
   140008300:	49 b8 00 00 00 00 00 	movabs r8,0x8000000000000000
   140008307:	00 00 80 
   14000830a:	4c 31 c0             	xor    rax,r8
   14000830d:	48 63 c9             	movsxd rcx,ecx
   140008310:	48 83 c1 22          	add    rcx,0x22
   140008314:	48 89 44 ca 08       	mov    QWORD PTR [rdx+rcx*8+0x8],rax
   140008319:	e9 a1 00 00 00       	jmp    1400083bf <_ZN5rvm6410operations5rtype9rv_fmin_dEv+0x253>
   14000831e:	f2 0f 10 45 f0       	movsd  xmm0,QWORD PTR [rbp-0x10]
   140008323:	66 0f 2f 45 e8       	comisd xmm0,QWORD PTR [rbp-0x18]
   140008328:	76 40                	jbe    14000836a <_ZN5rvm6410operations5rtype9rv_fmin_dEv+0x1fe>
   14000832a:	f2 0f 10 45 e8       	movsd  xmm0,QWORD PTR [rbp-0x18]
   14000832f:	66 0f 2f 05 89 95 00 	comisd xmm0,QWORD PTR [rip+0x9589]        # 1400118c0 <_ZL14dispatch_table+0x3c0>
   140008336:	00 
   140008337:	73 0c                	jae    140008345 <_ZN5rvm6410operations5rtype9rv_fmin_dEv+0x1d9>
   140008339:	f2 0f 10 45 e8       	movsd  xmm0,QWORD PTR [rbp-0x18]
   14000833e:	f2 48 0f 2c c0       	cvttsd2si rax,xmm0
   140008343:	eb 63                	jmp    1400083a8 <_ZN5rvm6410operations5rtype9rv_fmin_dEv+0x23c>
   140008345:	f2 0f 10 45 e8       	movsd  xmm0,QWORD PTR [rbp-0x18]
   14000834a:	f2 0f 10 0d 6e 95 00 	movsd  xmm1,QWORD PTR [rip+0x956e]        # 1400118c0 <_ZL14dispatch_table+0x3c0>
   140008351:	00 
   140008352:	f2 0f 5c c1          	subsd  xmm0,xmm1
   140008356:	f2 48 0f 2c c0       	cvttsd2si rax,xmm0
   14000835b:	48 ba 00 00 00 00 00 	movabs rdx,0x8000000000000000
   140008362:	00 00 80 
   140008365:	48 31 d0             	xor    rax,rdx
   140008368:	eb 3e                	jmp    1400083a8 <_ZN5rvm6410operations5rtype9rv_fmin_dEv+0x23c>
   14000836a:	f2 0f 10 45 f0       	movsd  xmm0,QWORD PTR [rbp-0x10]
   14000836f:	66 0f 2f 05 49 95 00 	comisd xmm0,QWORD PTR [rip+0x9549]        # 1400118c0 <_ZL14dispatch_table+0x3c0>
   140008376:	00 
   140008377:	73 0c                	jae    140008385 <_ZN5rvm6410operations5rtype9rv_fmin_dEv+0x219>
   140008379:	f2 0f 10 45 f0       	movsd  xmm0,QWORD PTR [rbp-0x10]
   14000837e:	f2 48 0f 2c c0       	cvttsd2si rax,xmm0
   140008383:	eb 23                	jmp    1400083a8 <_ZN5rvm6410operations5rtype9rv_fmin_dEv+0x23c>
   140008385:	f2 0f 10 45 f0       	movsd  xmm0,QWORD PTR [rbp-0x10]
   14000838a:	f2 0f 10 0d 2e 95 00 	movsd  xmm1,QWORD PTR [rip+0x952e]        # 1400118c0 <_ZL14dispatch_table+0x3c0>
   140008391:	00 
   140008392:	f2 0f 5c c1          	subsd  xmm0,xmm1
   140008396:	f2 48 0f 2c c0       	cvttsd2si rax,xmm0
   14000839b:	48 ba 00 00 00 00 00 	movabs rdx,0x8000000000000000
   1400083a2:	00 00 80 
   1400083a5:	48 31 d0             	xor    rax,rdx
   1400083a8:	48 8b 15 59 7c 00 00 	mov    rdx,QWORD PTR [rip+0x7c59]        # 140010008 <vmcs>
   1400083af:	0f b6 4d ff          	movzx  ecx,BYTE PTR [rbp-0x1]
   1400083b3:	48 63 c9             	movsxd rcx,ecx
   1400083b6:	48 83 c1 22          	add    rcx,0x22
   1400083ba:	48 89 44 ca 08       	mov    QWORD PTR [rdx+rcx*8+0x8],rax
   1400083bf:	90                   	nop
   1400083c0:	48 83 c4 40          	add    rsp,0x40
   1400083c4:	5d                   	pop    rbp
   1400083c5:	c3                   	ret

00000001400083c6 <_ZN5rvm6410operations5rtype9rv_fmax_dEv>:
   1400083c6:	55                   	push   rbp
   1400083c7:	48 89 e5             	mov    rbp,rsp
   1400083ca:	48 83 ec 40          	sub    rsp,0x40
   1400083ce:	c6 45 ff 00          	mov    BYTE PTR [rbp-0x1],0x0
   1400083d2:	c6 45 fe 00          	mov    BYTE PTR [rbp-0x2],0x0
   1400083d6:	c6 45 fd 00          	mov    BYTE PTR [rbp-0x3],0x0
   1400083da:	66 0f ef c0          	pxor   xmm0,xmm0
   1400083de:	f2 0f 11 45 f0       	movsd  QWORD PTR [rbp-0x10],xmm0
   1400083e3:	66 0f ef c0          	pxor   xmm0,xmm0
   1400083e7:	f2 0f 11 45 e8       	movsd  QWORD PTR [rbp-0x18],xmm0
   1400083ec:	48 8b 05 15 7c 00 00 	mov    rax,QWORD PTR [rip+0x7c15]        # 140010008 <vmcs>
   1400083f3:	48 8b 40 18          	mov    rax,QWORD PTR [rax+0x18]
   1400083f7:	88 45 ff             	mov    BYTE PTR [rbp-0x1],al
   1400083fa:	48 8b 05 07 7c 00 00 	mov    rax,QWORD PTR [rip+0x7c07]        # 140010008 <vmcs>
   140008401:	48 8b 40 20          	mov    rax,QWORD PTR [rax+0x20]
   140008405:	88 45 fe             	mov    BYTE PTR [rbp-0x2],al
   140008408:	48 8b 05 f9 7b 00 00 	mov    rax,QWORD PTR [rip+0x7bf9]        # 140010008 <vmcs>
   14000840f:	48 8b 40 28          	mov    rax,QWORD PTR [rax+0x28]
   140008413:	88 45 fd             	mov    BYTE PTR [rbp-0x3],al
   140008416:	48 8b 05 eb 7b 00 00 	mov    rax,QWORD PTR [rip+0x7beb]        # 140010008 <vmcs>
   14000841d:	0f b6 55 fe          	movzx  edx,BYTE PTR [rbp-0x2]
   140008421:	48 63 d2             	movsxd rdx,edx
   140008424:	48 83 c2 22          	add    rdx,0x22
   140008428:	48 8b 44 d0 08       	mov    rax,QWORD PTR [rax+rdx*8+0x8]
   14000842d:	48 85 c0             	test   rax,rax
   140008430:	78 0b                	js     14000843d <_ZN5rvm6410operations5rtype9rv_fmax_dEv+0x77>
   140008432:	66 0f ef c0          	pxor   xmm0,xmm0
   140008436:	f2 48 0f 2a c0       	cvtsi2sd xmm0,rax
   14000843b:	eb 19                	jmp    140008456 <_ZN5rvm6410operations5rtype9rv_fmax_dEv+0x90>
   14000843d:	48 89 c2             	mov    rdx,rax
   140008440:	48 d1 ea             	shr    rdx,1
   140008443:	83 e0 01             	and    eax,0x1
   140008446:	48 09 c2             	or     rdx,rax
   140008449:	66 0f ef c0          	pxor   xmm0,xmm0
   14000844d:	f2 48 0f 2a c2       	cvtsi2sd xmm0,rdx
   140008452:	f2 0f 58 c0          	addsd  xmm0,xmm0
   140008456:	f2 0f 11 45 f0       	movsd  QWORD PTR [rbp-0x10],xmm0
   14000845b:	48 8b 05 a6 7b 00 00 	mov    rax,QWORD PTR [rip+0x7ba6]        # 140010008 <vmcs>
   140008462:	0f b6 55 fd          	movzx  edx,BYTE PTR [rbp-0x3]
   140008466:	48 63 d2             	movsxd rdx,edx
   140008469:	48 83 c2 22          	add    rdx,0x22
   14000846d:	48 8b 44 d0 08       	mov    rax,QWORD PTR [rax+rdx*8+0x8]
   140008472:	48 85 c0             	test   rax,rax
   140008475:	78 0b                	js     140008482 <_ZN5rvm6410operations5rtype9rv_fmax_dEv+0xbc>
   140008477:	66 0f ef c0          	pxor   xmm0,xmm0
   14000847b:	f2 48 0f 2a c0       	cvtsi2sd xmm0,rax
   140008480:	eb 19                	jmp    14000849b <_ZN5rvm6410operations5rtype9rv_fmax_dEv+0xd5>
   140008482:	48 89 c2             	mov    rdx,rax
   140008485:	48 d1 ea             	shr    rdx,1
   140008488:	83 e0 01             	and    eax,0x1
   14000848b:	48 09 c2             	or     rdx,rax
   14000848e:	66 0f ef c0          	pxor   xmm0,xmm0
   140008492:	f2 48 0f 2a c2       	cvtsi2sd xmm0,rdx
   140008497:	f2 0f 58 c0          	addsd  xmm0,xmm0
   14000849b:	f2 0f 11 45 e8       	movsd  QWORD PTR [rbp-0x18],xmm0
   1400084a0:	48 8b 45 f0          	mov    rax,QWORD PTR [rbp-0x10]
   1400084a4:	66 48 0f 6e c0       	movq   xmm0,rax
   1400084a9:	e8 28 d8 ff ff       	call   140005cd6 <_ZN5rvm6410operations6is_nanEd>
   1400084ae:	84 c0                	test   al,al
   1400084b0:	74 5a                	je     14000850c <_ZN5rvm6410operations5rtype9rv_fmax_dEv+0x146>
   1400084b2:	48 8b 15 4f 7b 00 00 	mov    rdx,QWORD PTR [rip+0x7b4f]        # 140010008 <vmcs>
   1400084b9:	0f b6 4d ff          	movzx  ecx,BYTE PTR [rbp-0x1]
   1400084bd:	f2 0f 10 45 e8       	movsd  xmm0,QWORD PTR [rbp-0x18]
   1400084c2:	66 0f 2f 05 f6 93 00 	comisd xmm0,QWORD PTR [rip+0x93f6]        # 1400118c0 <_ZL14dispatch_table+0x3c0>
   1400084c9:	00 
   1400084ca:	73 0c                	jae    1400084d8 <_ZN5rvm6410operations5rtype9rv_fmax_dEv+0x112>
   1400084cc:	f2 0f 10 45 e8       	movsd  xmm0,QWORD PTR [rbp-0x18]
   1400084d1:	f2 48 0f 2c c0       	cvttsd2si rax,xmm0
   1400084d6:	eb 23                	jmp    1400084fb <_ZN5rvm6410operations5rtype9rv_fmax_dEv+0x135>
   1400084d8:	f2 0f 10 45 e8       	movsd  xmm0,QWORD PTR [rbp-0x18]
   1400084dd:	f2 0f 10 0d db 93 00 	movsd  xmm1,QWORD PTR [rip+0x93db]        # 1400118c0 <_ZL14dispatch_table+0x3c0>
   1400084e4:	00 
   1400084e5:	f2 0f 5c c1          	subsd  xmm0,xmm1
   1400084e9:	f2 48 0f 2c c0       	cvttsd2si rax,xmm0
   1400084ee:	49 b8 00 00 00 00 00 	movabs r8,0x8000000000000000
   1400084f5:	00 00 80 
   1400084f8:	4c 31 c0             	xor    rax,r8
   1400084fb:	48 63 c9             	movsxd rcx,ecx
   1400084fe:	48 83 c1 22          	add    rcx,0x22
   140008502:	48 89 44 ca 08       	mov    QWORD PTR [rdx+rcx*8+0x8],rax
   140008507:	e9 0d 01 00 00       	jmp    140008619 <_ZN5rvm6410operations5rtype9rv_fmax_dEv+0x253>
   14000850c:	48 8b 45 e8          	mov    rax,QWORD PTR [rbp-0x18]
   140008510:	66 48 0f 6e c0       	movq   xmm0,rax
   140008515:	e8 bc d7 ff ff       	call   140005cd6 <_ZN5rvm6410operations6is_nanEd>
   14000851a:	84 c0                	test   al,al
   14000851c:	74 5a                	je     140008578 <_ZN5rvm6410operations5rtype9rv_fmax_dEv+0x1b2>
   14000851e:	48 8b 15 e3 7a 00 00 	mov    rdx,QWORD PTR [rip+0x7ae3]        # 140010008 <vmcs>
   140008525:	0f b6 4d ff          	movzx  ecx,BYTE PTR [rbp-0x1]
   140008529:	f2 0f 10 45 f0       	movsd  xmm0,QWORD PTR [rbp-0x10]
   14000852e:	66 0f 2f 05 8a 93 00 	comisd xmm0,QWORD PTR [rip+0x938a]        # 1400118c0 <_ZL14dispatch_table+0x3c0>
   140008535:	00 
   140008536:	73 0c                	jae    140008544 <_ZN5rvm6410operations5rtype9rv_fmax_dEv+0x17e>
   140008538:	f2 0f 10 45 f0       	movsd  xmm0,QWORD PTR [rbp-0x10]
   14000853d:	f2 48 0f 2c c0       	cvttsd2si rax,xmm0
   140008542:	eb 23                	jmp    140008567 <_ZN5rvm6410operations5rtype9rv_fmax_dEv+0x1a1>
   140008544:	f2 0f 10 45 f0       	movsd  xmm0,QWORD PTR [rbp-0x10]
   140008549:	f2 0f 10 0d 6f 93 00 	movsd  xmm1,QWORD PTR [rip+0x936f]        # 1400118c0 <_ZL14dispatch_table+0x3c0>
   140008550:	00 
   140008551:	f2 0f 5c c1          	subsd  xmm0,xmm1
   140008555:	f2 48 0f 2c c0       	cvttsd2si rax,xmm0
   14000855a:	49 b8 00 00 00 00 00 	movabs r8,0x8000000000000000
   140008561:	00 00 80 
   140008564:	4c 31 c0             	xor    rax,r8
   140008567:	48 63 c9             	movsxd rcx,ecx
   14000856a:	48 83 c1 22          	add    rcx,0x22
   14000856e:	48 89 44 ca 08       	mov    QWORD PTR [rdx+rcx*8+0x8],rax
   140008573:	e9 a1 00 00 00       	jmp    140008619 <_ZN5rvm6410operations5rtype9rv_fmax_dEv+0x253>
   140008578:	f2 0f 10 45 f0       	movsd  xmm0,QWORD PTR [rbp-0x10]
   14000857d:	66 0f 2f 45 e8       	comisd xmm0,QWORD PTR [rbp-0x18]
   140008582:	76 40                	jbe    1400085c4 <_ZN5rvm6410operations5rtype9rv_fmax_dEv+0x1fe>
   140008584:	f2 0f 10 45 f0       	movsd  xmm0,QWORD PTR [rbp-0x10]
   140008589:	66 0f 2f 05 2f 93 00 	comisd xmm0,QWORD PTR [rip+0x932f]        # 1400118c0 <_ZL14dispatch_table+0x3c0>
   140008590:	00 
   140008591:	73 0c                	jae    14000859f <_ZN5rvm6410operations5rtype9rv_fmax_dEv+0x1d9>
   140008593:	f2 0f 10 45 f0       	movsd  xmm0,QWORD PTR [rbp-0x10]
   140008598:	f2 48 0f 2c c0       	cvttsd2si rax,xmm0
   14000859d:	eb 63                	jmp    140008602 <_ZN5rvm6410operations5rtype9rv_fmax_dEv+0x23c>
   14000859f:	f2 0f 10 45 f0       	movsd  xmm0,QWORD PTR [rbp-0x10]
   1400085a4:	f2 0f 10 0d 14 93 00 	movsd  xmm1,QWORD PTR [rip+0x9314]        # 1400118c0 <_ZL14dispatch_table+0x3c0>
   1400085ab:	00 
   1400085ac:	f2 0f 5c c1          	subsd  xmm0,xmm1
   1400085b0:	f2 48 0f 2c c0       	cvttsd2si rax,xmm0
   1400085b5:	48 ba 00 00 00 00 00 	movabs rdx,0x8000000000000000
   1400085bc:	00 00 80 
   1400085bf:	48 31 d0             	xor    rax,rdx
   1400085c2:	eb 3e                	jmp    140008602 <_ZN5rvm6410operations5rtype9rv_fmax_dEv+0x23c>
   1400085c4:	f2 0f 10 45 e8       	movsd  xmm0,QWORD PTR [rbp-0x18]
   1400085c9:	66 0f 2f 05 ef 92 00 	comisd xmm0,QWORD PTR [rip+0x92ef]        # 1400118c0 <_ZL14dispatch_table+0x3c0>
   1400085d0:	00 
   1400085d1:	73 0c                	jae    1400085df <_ZN5rvm6410operations5rtype9rv_fmax_dEv+0x219>
   1400085d3:	f2 0f 10 45 e8       	movsd  xmm0,QWORD PTR [rbp-0x18]
   1400085d8:	f2 48 0f 2c c0       	cvttsd2si rax,xmm0
   1400085dd:	eb 23                	jmp    140008602 <_ZN5rvm6410operations5rtype9rv_fmax_dEv+0x23c>
   1400085df:	f2 0f 10 45 e8       	movsd  xmm0,QWORD PTR [rbp-0x18]
   1400085e4:	f2 0f 10 0d d4 92 00 	movsd  xmm1,QWORD PTR [rip+0x92d4]        # 1400118c0 <_ZL14dispatch_table+0x3c0>
   1400085eb:	00 
   1400085ec:	f2 0f 5c c1          	subsd  xmm0,xmm1
   1400085f0:	f2 48 0f 2c c0       	cvttsd2si rax,xmm0
   1400085f5:	48 ba 00 00 00 00 00 	movabs rdx,0x8000000000000000
   1400085fc:	00 00 80 
   1400085ff:	48 31 d0             	xor    rax,rdx
   140008602:	48 8b 15 ff 79 00 00 	mov    rdx,QWORD PTR [rip+0x79ff]        # 140010008 <vmcs>
   140008609:	0f b6 4d ff          	movzx  ecx,BYTE PTR [rbp-0x1]
   14000860d:	48 63 c9             	movsxd rcx,ecx
   140008610:	48 83 c1 22          	add    rcx,0x22
   140008614:	48 89 44 ca 08       	mov    QWORD PTR [rdx+rcx*8+0x8],rax
   140008619:	90                   	nop
   14000861a:	48 83 c4 40          	add    rsp,0x40
   14000861e:	5d                   	pop    rbp
   14000861f:	c3                   	ret

0000000140008620 <_ZN5rvm6410operations5rtype8rv_feq_dEv>:
   140008620:	55                   	push   rbp
   140008621:	48 89 e5             	mov    rbp,rsp
   140008624:	48 83 ec 40          	sub    rsp,0x40
   140008628:	c6 45 ff 00          	mov    BYTE PTR [rbp-0x1],0x0
   14000862c:	c6 45 fe 00          	mov    BYTE PTR [rbp-0x2],0x0
   140008630:	c6 45 fd 00          	mov    BYTE PTR [rbp-0x3],0x0
   140008634:	66 0f ef c0          	pxor   xmm0,xmm0
   140008638:	f2 0f 11 45 f0       	movsd  QWORD PTR [rbp-0x10],xmm0
   14000863d:	66 0f ef c0          	pxor   xmm0,xmm0
   140008641:	f2 0f 11 45 e8       	movsd  QWORD PTR [rbp-0x18],xmm0
   140008646:	48 8b 05 bb 79 00 00 	mov    rax,QWORD PTR [rip+0x79bb]        # 140010008 <vmcs>
   14000864d:	48 8b 40 18          	mov    rax,QWORD PTR [rax+0x18]
   140008651:	88 45 ff             	mov    BYTE PTR [rbp-0x1],al
   140008654:	48 8b 05 ad 79 00 00 	mov    rax,QWORD PTR [rip+0x79ad]        # 140010008 <vmcs>
   14000865b:	48 8b 40 20          	mov    rax,QWORD PTR [rax+0x20]
   14000865f:	88 45 fe             	mov    BYTE PTR [rbp-0x2],al
   140008662:	48 8b 05 9f 79 00 00 	mov    rax,QWORD PTR [rip+0x799f]        # 140010008 <vmcs>
   140008669:	48 8b 40 28          	mov    rax,QWORD PTR [rax+0x28]
   14000866d:	88 45 fd             	mov    BYTE PTR [rbp-0x3],al
   140008670:	48 8b 05 91 79 00 00 	mov    rax,QWORD PTR [rip+0x7991]        # 140010008 <vmcs>
   140008677:	0f b6 55 fe          	movzx  edx,BYTE PTR [rbp-0x2]
   14000867b:	48 63 d2             	movsxd rdx,edx
   14000867e:	48 83 c2 22          	add    rdx,0x22
   140008682:	48 8b 44 d0 08       	mov    rax,QWORD PTR [rax+rdx*8+0x8]
   140008687:	48 85 c0             	test   rax,rax
   14000868a:	78 0b                	js     140008697 <_ZN5rvm6410operations5rtype8rv_feq_dEv+0x77>
   14000868c:	66 0f ef c0          	pxor   xmm0,xmm0
   140008690:	f2 48 0f 2a c0       	cvtsi2sd xmm0,rax
   140008695:	eb 19                	jmp    1400086b0 <_ZN5rvm6410operations5rtype8rv_feq_dEv+0x90>
   140008697:	48 89 c2             	mov    rdx,rax
   14000869a:	48 d1 ea             	shr    rdx,1
   14000869d:	83 e0 01             	and    eax,0x1
   1400086a0:	48 09 c2             	or     rdx,rax
   1400086a3:	66 0f ef c0          	pxor   xmm0,xmm0
   1400086a7:	f2 48 0f 2a c2       	cvtsi2sd xmm0,rdx
   1400086ac:	f2 0f 58 c0          	addsd  xmm0,xmm0
   1400086b0:	f2 0f 11 45 f0       	movsd  QWORD PTR [rbp-0x10],xmm0
   1400086b5:	48 8b 05 4c 79 00 00 	mov    rax,QWORD PTR [rip+0x794c]        # 140010008 <vmcs>
   1400086bc:	0f b6 55 fd          	movzx  edx,BYTE PTR [rbp-0x3]
   1400086c0:	48 63 d2             	movsxd rdx,edx
   1400086c3:	48 83 c2 22          	add    rdx,0x22
   1400086c7:	48 8b 44 d0 08       	mov    rax,QWORD PTR [rax+rdx*8+0x8]
   1400086cc:	48 85 c0             	test   rax,rax
   1400086cf:	78 0b                	js     1400086dc <_ZN5rvm6410operations5rtype8rv_feq_dEv+0xbc>
   1400086d1:	66 0f ef c0          	pxor   xmm0,xmm0
   1400086d5:	f2 48 0f 2a c0       	cvtsi2sd xmm0,rax
   1400086da:	eb 19                	jmp    1400086f5 <_ZN5rvm6410operations5rtype8rv_feq_dEv+0xd5>
   1400086dc:	48 89 c2             	mov    rdx,rax
   1400086df:	48 d1 ea             	shr    rdx,1
   1400086e2:	83 e0 01             	and    eax,0x1
   1400086e5:	48 09 c2             	or     rdx,rax
   1400086e8:	66 0f ef c0          	pxor   xmm0,xmm0
   1400086ec:	f2 48 0f 2a c2       	cvtsi2sd xmm0,rdx
   1400086f1:	f2 0f 58 c0          	addsd  xmm0,xmm0
   1400086f5:	f2 0f 11 45 e8       	movsd  QWORD PTR [rbp-0x18],xmm0
   1400086fa:	48 8b 45 f0          	mov    rax,QWORD PTR [rbp-0x10]
   1400086fe:	66 48 0f 6e c0       	movq   xmm0,rax
   140008703:	e8 ce d5 ff ff       	call   140005cd6 <_ZN5rvm6410operations6is_nanEd>
   140008708:	84 c0                	test   al,al
   14000870a:	75 12                	jne    14000871e <_ZN5rvm6410operations5rtype8rv_feq_dEv+0xfe>
   14000870c:	48 8b 45 e8          	mov    rax,QWORD PTR [rbp-0x18]
   140008710:	66 48 0f 6e c0       	movq   xmm0,rax
   140008715:	e8 bc d5 ff ff       	call   140005cd6 <_ZN5rvm6410operations6is_nanEd>
   14000871a:	84 c0                	test   al,al
   14000871c:	74 07                	je     140008725 <_ZN5rvm6410operations5rtype8rv_feq_dEv+0x105>
   14000871e:	b8 01 00 00 00       	mov    eax,0x1
   140008723:	eb 05                	jmp    14000872a <_ZN5rvm6410operations5rtype8rv_feq_dEv+0x10a>
   140008725:	b8 00 00 00 00       	mov    eax,0x0
   14000872a:	84 c0                	test   al,al
   14000872c:	74 1d                	je     14000874b <_ZN5rvm6410operations5rtype8rv_feq_dEv+0x12b>
   14000872e:	48 8b 05 d3 78 00 00 	mov    rax,QWORD PTR [rip+0x78d3]        # 140010008 <vmcs>
   140008735:	0f b6 55 ff          	movzx  edx,BYTE PTR [rbp-0x1]
   140008739:	48 63 d2             	movsxd rdx,edx
   14000873c:	48 83 c2 22          	add    rdx,0x22
   140008740:	48 c7 44 d0 08 00 00 	mov    QWORD PTR [rax+rdx*8+0x8],0x0
   140008747:	00 00 
   140008749:	eb 39                	jmp    140008784 <_ZN5rvm6410operations5rtype8rv_feq_dEv+0x164>
   14000874b:	f2 0f 10 45 f0       	movsd  xmm0,QWORD PTR [rbp-0x10]
   140008750:	66 0f 2e 45 e8       	ucomisd xmm0,QWORD PTR [rbp-0x18]
   140008755:	0f 9b c0             	setnp  al
   140008758:	ba 00 00 00 00       	mov    edx,0x0
   14000875d:	f2 0f 10 45 f0       	movsd  xmm0,QWORD PTR [rbp-0x10]
   140008762:	66 0f 2e 45 e8       	ucomisd xmm0,QWORD PTR [rbp-0x18]
   140008767:	0f 44 d0             	cmove  edx,eax
   14000876a:	48 8b 05 97 78 00 00 	mov    rax,QWORD PTR [rip+0x7897]        # 140010008 <vmcs>
   140008771:	0f b6 4d ff          	movzx  ecx,BYTE PTR [rbp-0x1]
   140008775:	0f b6 d2             	movzx  edx,dl
   140008778:	48 63 c9             	movsxd rcx,ecx
   14000877b:	48 83 c1 22          	add    rcx,0x22
   14000877f:	48 89 54 c8 08       	mov    QWORD PTR [rax+rcx*8+0x8],rdx
   140008784:	48 83 c4 40          	add    rsp,0x40
   140008788:	5d                   	pop    rbp
   140008789:	c3                   	ret

000000014000878a <_ZN5rvm6410operations5rtype8rv_flt_dEv>:
   14000878a:	55                   	push   rbp
   14000878b:	48 89 e5             	mov    rbp,rsp
   14000878e:	48 83 ec 40          	sub    rsp,0x40
   140008792:	c6 45 ff 00          	mov    BYTE PTR [rbp-0x1],0x0
   140008796:	c6 45 fe 00          	mov    BYTE PTR [rbp-0x2],0x0
   14000879a:	c6 45 fd 00          	mov    BYTE PTR [rbp-0x3],0x0
   14000879e:	66 0f ef c0          	pxor   xmm0,xmm0
   1400087a2:	f2 0f 11 45 f0       	movsd  QWORD PTR [rbp-0x10],xmm0
   1400087a7:	66 0f ef c0          	pxor   xmm0,xmm0
   1400087ab:	f2 0f 11 45 e8       	movsd  QWORD PTR [rbp-0x18],xmm0
   1400087b0:	48 8b 05 51 78 00 00 	mov    rax,QWORD PTR [rip+0x7851]        # 140010008 <vmcs>
   1400087b7:	48 8b 40 18          	mov    rax,QWORD PTR [rax+0x18]
   1400087bb:	88 45 ff             	mov    BYTE PTR [rbp-0x1],al
   1400087be:	48 8b 05 43 78 00 00 	mov    rax,QWORD PTR [rip+0x7843]        # 140010008 <vmcs>
   1400087c5:	48 8b 40 20          	mov    rax,QWORD PTR [rax+0x20]
   1400087c9:	88 45 fe             	mov    BYTE PTR [rbp-0x2],al
   1400087cc:	48 8b 05 35 78 00 00 	mov    rax,QWORD PTR [rip+0x7835]        # 140010008 <vmcs>
   1400087d3:	48 8b 40 28          	mov    rax,QWORD PTR [rax+0x28]
   1400087d7:	88 45 fd             	mov    BYTE PTR [rbp-0x3],al
   1400087da:	48 8b 05 27 78 00 00 	mov    rax,QWORD PTR [rip+0x7827]        # 140010008 <vmcs>
   1400087e1:	0f b6 55 fe          	movzx  edx,BYTE PTR [rbp-0x2]
   1400087e5:	48 63 d2             	movsxd rdx,edx
   1400087e8:	48 83 c2 22          	add    rdx,0x22
   1400087ec:	48 8b 44 d0 08       	mov    rax,QWORD PTR [rax+rdx*8+0x8]
   1400087f1:	48 85 c0             	test   rax,rax
   1400087f4:	78 0b                	js     140008801 <_ZN5rvm6410operations5rtype8rv_flt_dEv+0x77>
   1400087f6:	66 0f ef c0          	pxor   xmm0,xmm0
   1400087fa:	f2 48 0f 2a c0       	cvtsi2sd xmm0,rax
   1400087ff:	eb 19                	jmp    14000881a <_ZN5rvm6410operations5rtype8rv_flt_dEv+0x90>
   140008801:	48 89 c2             	mov    rdx,rax
   140008804:	48 d1 ea             	shr    rdx,1
   140008807:	83 e0 01             	and    eax,0x1
   14000880a:	48 09 c2             	or     rdx,rax
   14000880d:	66 0f ef c0          	pxor   xmm0,xmm0
   140008811:	f2 48 0f 2a c2       	cvtsi2sd xmm0,rdx
   140008816:	f2 0f 58 c0          	addsd  xmm0,xmm0
   14000881a:	f2 0f 11 45 f0       	movsd  QWORD PTR [rbp-0x10],xmm0
   14000881f:	48 8b 05 e2 77 00 00 	mov    rax,QWORD PTR [rip+0x77e2]        # 140010008 <vmcs>
   140008826:	0f b6 55 fd          	movzx  edx,BYTE PTR [rbp-0x3]
   14000882a:	48 63 d2             	movsxd rdx,edx
   14000882d:	48 83 c2 22          	add    rdx,0x22
   140008831:	48 8b 44 d0 08       	mov    rax,QWORD PTR [rax+rdx*8+0x8]
   140008836:	48 85 c0             	test   rax,rax
   140008839:	78 0b                	js     140008846 <_ZN5rvm6410operations5rtype8rv_flt_dEv+0xbc>
   14000883b:	66 0f ef c0          	pxor   xmm0,xmm0
   14000883f:	f2 48 0f 2a c0       	cvtsi2sd xmm0,rax
   140008844:	eb 19                	jmp    14000885f <_ZN5rvm6410operations5rtype8rv_flt_dEv+0xd5>
   140008846:	48 89 c2             	mov    rdx,rax
   140008849:	48 d1 ea             	shr    rdx,1
   14000884c:	83 e0 01             	and    eax,0x1
   14000884f:	48 09 c2             	or     rdx,rax
   140008852:	66 0f ef c0          	pxor   xmm0,xmm0
   140008856:	f2 48 0f 2a c2       	cvtsi2sd xmm0,rdx
   14000885b:	f2 0f 58 c0          	addsd  xmm0,xmm0
   14000885f:	f2 0f 11 45 e8       	movsd  QWORD PTR [rbp-0x18],xmm0
   140008864:	48 8b 45 f0          	mov    rax,QWORD PTR [rbp-0x10]
   140008868:	66 48 0f 6e c0       	movq   xmm0,rax
   14000886d:	e8 64 d4 ff ff       	call   140005cd6 <_ZN5rvm6410operations6is_nanEd>
   140008872:	84 c0                	test   al,al
   140008874:	75 12                	jne    140008888 <_ZN5rvm6410operations5rtype8rv_flt_dEv+0xfe>
   140008876:	48 8b 45 e8          	mov    rax,QWORD PTR [rbp-0x18]
   14000887a:	66 48 0f 6e c0       	movq   xmm0,rax
   14000887f:	e8 52 d4 ff ff       	call   140005cd6 <_ZN5rvm6410operations6is_nanEd>
   140008884:	84 c0                	test   al,al
   140008886:	74 07                	je     14000888f <_ZN5rvm6410operations5rtype8rv_flt_dEv+0x105>
   140008888:	b8 01 00 00 00       	mov    eax,0x1
   14000888d:	eb 05                	jmp    140008894 <_ZN5rvm6410operations5rtype8rv_flt_dEv+0x10a>
   14000888f:	b8 00 00 00 00       	mov    eax,0x0
   140008894:	84 c0                	test   al,al
   140008896:	74 1d                	je     1400088b5 <_ZN5rvm6410operations5rtype8rv_flt_dEv+0x12b>
   140008898:	48 8b 05 69 77 00 00 	mov    rax,QWORD PTR [rip+0x7769]        # 140010008 <vmcs>
   14000889f:	0f b6 55 ff          	movzx  edx,BYTE PTR [rbp-0x1]
   1400088a3:	48 63 d2             	movsxd rdx,edx
   1400088a6:	48 83 c2 22          	add    rdx,0x22
   1400088aa:	48 c7 44 d0 08 00 00 	mov    QWORD PTR [rax+rdx*8+0x8],0x0
   1400088b1:	00 00 
   1400088b3:	eb 27                	jmp    1400088dc <_ZN5rvm6410operations5rtype8rv_flt_dEv+0x152>
   1400088b5:	f2 0f 10 45 e8       	movsd  xmm0,QWORD PTR [rbp-0x18]
   1400088ba:	66 0f 2f 45 f0       	comisd xmm0,QWORD PTR [rbp-0x10]
   1400088bf:	0f 97 c2             	seta   dl
   1400088c2:	48 8b 05 3f 77 00 00 	mov    rax,QWORD PTR [rip+0x773f]        # 140010008 <vmcs>
   1400088c9:	0f b6 4d ff          	movzx  ecx,BYTE PTR [rbp-0x1]
   1400088cd:	0f b6 d2             	movzx  edx,dl
   1400088d0:	48 63 c9             	movsxd rcx,ecx
   1400088d3:	48 83 c1 22          	add    rcx,0x22
   1400088d7:	48 89 54 c8 08       	mov    QWORD PTR [rax+rcx*8+0x8],rdx
   1400088dc:	48 83 c4 40          	add    rsp,0x40
   1400088e0:	5d                   	pop    rbp
   1400088e1:	c3                   	ret

00000001400088e2 <_ZN5rvm6410operations5rtype8rv_fle_dEv>:
   1400088e2:	55                   	push   rbp
   1400088e3:	48 89 e5             	mov    rbp,rsp
   1400088e6:	48 83 ec 40          	sub    rsp,0x40
   1400088ea:	c6 45 ff 00          	mov    BYTE PTR [rbp-0x1],0x0
   1400088ee:	c6 45 fe 00          	mov    BYTE PTR [rbp-0x2],0x0
   1400088f2:	c6 45 fd 00          	mov    BYTE PTR [rbp-0x3],0x0
   1400088f6:	66 0f ef c0          	pxor   xmm0,xmm0
   1400088fa:	f2 0f 11 45 f0       	movsd  QWORD PTR [rbp-0x10],xmm0
   1400088ff:	66 0f ef c0          	pxor   xmm0,xmm0
   140008903:	f2 0f 11 45 e8       	movsd  QWORD PTR [rbp-0x18],xmm0
   140008908:	48 8b 05 f9 76 00 00 	mov    rax,QWORD PTR [rip+0x76f9]        # 140010008 <vmcs>
   14000890f:	48 8b 40 18          	mov    rax,QWORD PTR [rax+0x18]
   140008913:	88 45 ff             	mov    BYTE PTR [rbp-0x1],al
   140008916:	48 8b 05 eb 76 00 00 	mov    rax,QWORD PTR [rip+0x76eb]        # 140010008 <vmcs>
   14000891d:	48 8b 40 20          	mov    rax,QWORD PTR [rax+0x20]
   140008921:	88 45 fe             	mov    BYTE PTR [rbp-0x2],al
   140008924:	48 8b 05 dd 76 00 00 	mov    rax,QWORD PTR [rip+0x76dd]        # 140010008 <vmcs>
   14000892b:	48 8b 40 28          	mov    rax,QWORD PTR [rax+0x28]
   14000892f:	88 45 fd             	mov    BYTE PTR [rbp-0x3],al
   140008932:	48 8b 05 cf 76 00 00 	mov    rax,QWORD PTR [rip+0x76cf]        # 140010008 <vmcs>
   140008939:	0f b6 55 fe          	movzx  edx,BYTE PTR [rbp-0x2]
   14000893d:	48 63 d2             	movsxd rdx,edx
   140008940:	48 83 c2 22          	add    rdx,0x22
   140008944:	48 8b 44 d0 08       	mov    rax,QWORD PTR [rax+rdx*8+0x8]
   140008949:	48 85 c0             	test   rax,rax
   14000894c:	78 0b                	js     140008959 <_ZN5rvm6410operations5rtype8rv_fle_dEv+0x77>
   14000894e:	66 0f ef c0          	pxor   xmm0,xmm0
   140008952:	f2 48 0f 2a c0       	cvtsi2sd xmm0,rax
   140008957:	eb 19                	jmp    140008972 <_ZN5rvm6410operations5rtype8rv_fle_dEv+0x90>
   140008959:	48 89 c2             	mov    rdx,rax
   14000895c:	48 d1 ea             	shr    rdx,1
   14000895f:	83 e0 01             	and    eax,0x1
   140008962:	48 09 c2             	or     rdx,rax
   140008965:	66 0f ef c0          	pxor   xmm0,xmm0
   140008969:	f2 48 0f 2a c2       	cvtsi2sd xmm0,rdx
   14000896e:	f2 0f 58 c0          	addsd  xmm0,xmm0
   140008972:	f2 0f 11 45 f0       	movsd  QWORD PTR [rbp-0x10],xmm0
   140008977:	48 8b 05 8a 76 00 00 	mov    rax,QWORD PTR [rip+0x768a]        # 140010008 <vmcs>
   14000897e:	0f b6 55 fd          	movzx  edx,BYTE PTR [rbp-0x3]
   140008982:	48 63 d2             	movsxd rdx,edx
   140008985:	48 83 c2 22          	add    rdx,0x22
   140008989:	48 8b 44 d0 08       	mov    rax,QWORD PTR [rax+rdx*8+0x8]
   14000898e:	48 85 c0             	test   rax,rax
   140008991:	78 0b                	js     14000899e <_ZN5rvm6410operations5rtype8rv_fle_dEv+0xbc>
   140008993:	66 0f ef c0          	pxor   xmm0,xmm0
   140008997:	f2 48 0f 2a c0       	cvtsi2sd xmm0,rax
   14000899c:	eb 19                	jmp    1400089b7 <_ZN5rvm6410operations5rtype8rv_fle_dEv+0xd5>
   14000899e:	48 89 c2             	mov    rdx,rax
   1400089a1:	48 d1 ea             	shr    rdx,1
   1400089a4:	83 e0 01             	and    eax,0x1
   1400089a7:	48 09 c2             	or     rdx,rax
   1400089aa:	66 0f ef c0          	pxor   xmm0,xmm0
   1400089ae:	f2 48 0f 2a c2       	cvtsi2sd xmm0,rdx
   1400089b3:	f2 0f 58 c0          	addsd  xmm0,xmm0
   1400089b7:	f2 0f 11 45 e8       	movsd  QWORD PTR [rbp-0x18],xmm0
   1400089bc:	48 8b 45 f0          	mov    rax,QWORD PTR [rbp-0x10]
   1400089c0:	66 48 0f 6e c0       	movq   xmm0,rax
   1400089c5:	e8 0c d3 ff ff       	call   140005cd6 <_ZN5rvm6410operations6is_nanEd>
   1400089ca:	84 c0                	test   al,al
   1400089cc:	75 12                	jne    1400089e0 <_ZN5rvm6410operations5rtype8rv_fle_dEv+0xfe>
   1400089ce:	48 8b 45 e8          	mov    rax,QWORD PTR [rbp-0x18]
   1400089d2:	66 48 0f 6e c0       	movq   xmm0,rax
   1400089d7:	e8 fa d2 ff ff       	call   140005cd6 <_ZN5rvm6410operations6is_nanEd>
   1400089dc:	84 c0                	test   al,al
   1400089de:	74 07                	je     1400089e7 <_ZN5rvm6410operations5rtype8rv_fle_dEv+0x105>
   1400089e0:	b8 01 00 00 00       	mov    eax,0x1
   1400089e5:	eb 05                	jmp    1400089ec <_ZN5rvm6410operations5rtype8rv_fle_dEv+0x10a>
   1400089e7:	b8 00 00 00 00       	mov    eax,0x0
   1400089ec:	84 c0                	test   al,al
   1400089ee:	74 1d                	je     140008a0d <_ZN5rvm6410operations5rtype8rv_fle_dEv+0x12b>
   1400089f0:	48 8b 05 11 76 00 00 	mov    rax,QWORD PTR [rip+0x7611]        # 140010008 <vmcs>
   1400089f7:	0f b6 55 ff          	movzx  edx,BYTE PTR [rbp-0x1]
   1400089fb:	48 63 d2             	movsxd rdx,edx
   1400089fe:	48 83 c2 22          	add    rdx,0x22
   140008a02:	48 c7 44 d0 08 00 00 	mov    QWORD PTR [rax+rdx*8+0x8],0x0
   140008a09:	00 00 
   140008a0b:	eb 27                	jmp    140008a34 <_ZN5rvm6410operations5rtype8rv_fle_dEv+0x152>
   140008a0d:	f2 0f 10 45 e8       	movsd  xmm0,QWORD PTR [rbp-0x18]
   140008a12:	66 0f 2f 45 f0       	comisd xmm0,QWORD PTR [rbp-0x10]
   140008a17:	0f 93 c2             	setae  dl
   140008a1a:	48 8b 05 e7 75 00 00 	mov    rax,QWORD PTR [rip+0x75e7]        # 140010008 <vmcs>
   140008a21:	0f b6 4d ff          	movzx  ecx,BYTE PTR [rbp-0x1]
   140008a25:	0f b6 d2             	movzx  edx,dl
   140008a28:	48 63 c9             	movsxd rcx,ecx
   140008a2b:	48 83 c1 22          	add    rcx,0x22
   140008a2f:	48 89 54 c8 08       	mov    QWORD PTR [rax+rcx*8+0x8],rdx
   140008a34:	48 83 c4 40          	add    rsp,0x40
   140008a38:	5d                   	pop    rbp
   140008a39:	c3                   	ret

0000000140008a3a <_ZN5rvm6410operations5rtype7rv_addwEv>:
   140008a3a:	55                   	push   rbp
   140008a3b:	48 89 e5             	mov    rbp,rsp
   140008a3e:	48 83 ec 10          	sub    rsp,0x10
   140008a42:	c6 45 ff 00          	mov    BYTE PTR [rbp-0x1],0x0
   140008a46:	c6 45 fe 00          	mov    BYTE PTR [rbp-0x2],0x0
   140008a4a:	c6 45 fd 00          	mov    BYTE PTR [rbp-0x3],0x0
   140008a4e:	c7 45 f8 00 00 00 00 	mov    DWORD PTR [rbp-0x8],0x0
   140008a55:	c7 45 f4 00 00 00 00 	mov    DWORD PTR [rbp-0xc],0x0
   140008a5c:	48 8b 05 a5 75 00 00 	mov    rax,QWORD PTR [rip+0x75a5]        # 140010008 <vmcs>
   140008a63:	48 8b 40 18          	mov    rax,QWORD PTR [rax+0x18]
   140008a67:	88 45 ff             	mov    BYTE PTR [rbp-0x1],al
   140008a6a:	48 8b 05 97 75 00 00 	mov    rax,QWORD PTR [rip+0x7597]        # 140010008 <vmcs>
   140008a71:	48 8b 40 20          	mov    rax,QWORD PTR [rax+0x20]
   140008a75:	88 45 fe             	mov    BYTE PTR [rbp-0x2],al
   140008a78:	48 8b 05 89 75 00 00 	mov    rax,QWORD PTR [rip+0x7589]        # 140010008 <vmcs>
   140008a7f:	48 8b 40 28          	mov    rax,QWORD PTR [rax+0x28]
   140008a83:	88 45 fd             	mov    BYTE PTR [rbp-0x3],al
   140008a86:	48 8b 05 7b 75 00 00 	mov    rax,QWORD PTR [rip+0x757b]        # 140010008 <vmcs>
   140008a8d:	0f b6 55 fe          	movzx  edx,BYTE PTR [rbp-0x2]
   140008a91:	48 63 d2             	movsxd rdx,edx
   140008a94:	48 83 c2 22          	add    rdx,0x22
   140008a98:	48 8b 44 d0 08       	mov    rax,QWORD PTR [rax+rdx*8+0x8]
   140008a9d:	89 45 f8             	mov    DWORD PTR [rbp-0x8],eax
   140008aa0:	48 8b 05 61 75 00 00 	mov    rax,QWORD PTR [rip+0x7561]        # 140010008 <vmcs>
   140008aa7:	0f b6 55 fd          	movzx  edx,BYTE PTR [rbp-0x3]
   140008aab:	48 63 d2             	movsxd rdx,edx
   140008aae:	48 83 c2 22          	add    rdx,0x22
   140008ab2:	48 8b 44 d0 08       	mov    rax,QWORD PTR [rax+rdx*8+0x8]
   140008ab7:	89 45 f4             	mov    DWORD PTR [rbp-0xc],eax
   140008aba:	8b 55 f8             	mov    edx,DWORD PTR [rbp-0x8]
   140008abd:	8b 45 f4             	mov    eax,DWORD PTR [rbp-0xc]
   140008ac0:	01 c2                	add    edx,eax
   140008ac2:	48 8b 05 3f 75 00 00 	mov    rax,QWORD PTR [rip+0x753f]        # 140010008 <vmcs>
   140008ac9:	0f b6 4d ff          	movzx  ecx,BYTE PTR [rbp-0x1]
   140008acd:	48 63 d2             	movsxd rdx,edx
   140008ad0:	48 63 c9             	movsxd rcx,ecx
   140008ad3:	48 83 c1 22          	add    rcx,0x22
   140008ad7:	48 89 54 c8 08       	mov    QWORD PTR [rax+rcx*8+0x8],rdx
   140008adc:	90                   	nop
   140008add:	48 83 c4 10          	add    rsp,0x10
   140008ae1:	5d                   	pop    rbp
   140008ae2:	c3                   	ret

0000000140008ae3 <_ZN5rvm6410operations5rtype7rv_subwEv>:
   140008ae3:	55                   	push   rbp
   140008ae4:	48 89 e5             	mov    rbp,rsp
   140008ae7:	48 83 ec 10          	sub    rsp,0x10
   140008aeb:	c6 45 ff 00          	mov    BYTE PTR [rbp-0x1],0x0
   140008aef:	c6 45 fe 00          	mov    BYTE PTR [rbp-0x2],0x0
   140008af3:	c6 45 fd 00          	mov    BYTE PTR [rbp-0x3],0x0
   140008af7:	c7 45 f8 00 00 00 00 	mov    DWORD PTR [rbp-0x8],0x0
   140008afe:	c7 45 f4 00 00 00 00 	mov    DWORD PTR [rbp-0xc],0x0
   140008b05:	48 8b 05 fc 74 00 00 	mov    rax,QWORD PTR [rip+0x74fc]        # 140010008 <vmcs>
   140008b0c:	48 8b 40 18          	mov    rax,QWORD PTR [rax+0x18]
   140008b10:	88 45 ff             	mov    BYTE PTR [rbp-0x1],al
   140008b13:	48 8b 05 ee 74 00 00 	mov    rax,QWORD PTR [rip+0x74ee]        # 140010008 <vmcs>
   140008b1a:	48 8b 40 20          	mov    rax,QWORD PTR [rax+0x20]
   140008b1e:	88 45 fe             	mov    BYTE PTR [rbp-0x2],al
   140008b21:	48 8b 05 e0 74 00 00 	mov    rax,QWORD PTR [rip+0x74e0]        # 140010008 <vmcs>
   140008b28:	48 8b 40 28          	mov    rax,QWORD PTR [rax+0x28]
   140008b2c:	88 45 fd             	mov    BYTE PTR [rbp-0x3],al
   140008b2f:	48 8b 05 d2 74 00 00 	mov    rax,QWORD PTR [rip+0x74d2]        # 140010008 <vmcs>
   140008b36:	0f b6 55 fe          	movzx  edx,BYTE PTR [rbp-0x2]
   140008b3a:	48 63 d2             	movsxd rdx,edx
   140008b3d:	48 83 c2 22          	add    rdx,0x22
   140008b41:	48 8b 44 d0 08       	mov    rax,QWORD PTR [rax+rdx*8+0x8]
   140008b46:	89 45 f8             	mov    DWORD PTR [rbp-0x8],eax
   140008b49:	48 8b 05 b8 74 00 00 	mov    rax,QWORD PTR [rip+0x74b8]        # 140010008 <vmcs>
   140008b50:	0f b6 55 fd          	movzx  edx,BYTE PTR [rbp-0x3]
   140008b54:	48 63 d2             	movsxd rdx,edx
   140008b57:	48 83 c2 22          	add    rdx,0x22
   140008b5b:	48 8b 44 d0 08       	mov    rax,QWORD PTR [rax+rdx*8+0x8]
   140008b60:	89 45 f4             	mov    DWORD PTR [rbp-0xc],eax
   140008b63:	8b 45 f8             	mov    eax,DWORD PTR [rbp-0x8]
   140008b66:	2b 45 f4             	sub    eax,DWORD PTR [rbp-0xc]
   140008b69:	89 c2                	mov    edx,eax
   140008b6b:	48 8b 05 96 74 00 00 	mov    rax,QWORD PTR [rip+0x7496]        # 140010008 <vmcs>
   140008b72:	0f b6 4d ff          	movzx  ecx,BYTE PTR [rbp-0x1]
   140008b76:	48 63 d2             	movsxd rdx,edx
   140008b79:	48 63 c9             	movsxd rcx,ecx
   140008b7c:	48 83 c1 22          	add    rcx,0x22
   140008b80:	48 89 54 c8 08       	mov    QWORD PTR [rax+rcx*8+0x8],rdx
   140008b85:	90                   	nop
   140008b86:	48 83 c4 10          	add    rsp,0x10
   140008b8a:	5d                   	pop    rbp
   140008b8b:	c3                   	ret

0000000140008b8c <_ZN5rvm6410operations5rtype7rv_mulwEv>:
   140008b8c:	55                   	push   rbp
   140008b8d:	48 89 e5             	mov    rbp,rsp
   140008b90:	48 83 ec 10          	sub    rsp,0x10
   140008b94:	c6 45 ff 00          	mov    BYTE PTR [rbp-0x1],0x0
   140008b98:	c6 45 fe 00          	mov    BYTE PTR [rbp-0x2],0x0
   140008b9c:	c6 45 fd 00          	mov    BYTE PTR [rbp-0x3],0x0
   140008ba0:	c7 45 f8 00 00 00 00 	mov    DWORD PTR [rbp-0x8],0x0
   140008ba7:	c7 45 f4 00 00 00 00 	mov    DWORD PTR [rbp-0xc],0x0
   140008bae:	48 8b 05 53 74 00 00 	mov    rax,QWORD PTR [rip+0x7453]        # 140010008 <vmcs>
   140008bb5:	48 8b 40 18          	mov    rax,QWORD PTR [rax+0x18]
   140008bb9:	88 45 ff             	mov    BYTE PTR [rbp-0x1],al
   140008bbc:	48 8b 05 45 74 00 00 	mov    rax,QWORD PTR [rip+0x7445]        # 140010008 <vmcs>
   140008bc3:	48 8b 40 20          	mov    rax,QWORD PTR [rax+0x20]
   140008bc7:	88 45 fe             	mov    BYTE PTR [rbp-0x2],al
   140008bca:	48 8b 05 37 74 00 00 	mov    rax,QWORD PTR [rip+0x7437]        # 140010008 <vmcs>
   140008bd1:	48 8b 40 28          	mov    rax,QWORD PTR [rax+0x28]
   140008bd5:	88 45 fd             	mov    BYTE PTR [rbp-0x3],al
   140008bd8:	48 8b 05 29 74 00 00 	mov    rax,QWORD PTR [rip+0x7429]        # 140010008 <vmcs>
   140008bdf:	0f b6 55 fe          	movzx  edx,BYTE PTR [rbp-0x2]
   140008be3:	48 63 d2             	movsxd rdx,edx
   140008be6:	48 83 c2 22          	add    rdx,0x22
   140008bea:	48 8b 44 d0 08       	mov    rax,QWORD PTR [rax+rdx*8+0x8]
   140008bef:	89 45 f8             	mov    DWORD PTR [rbp-0x8],eax
   140008bf2:	48 8b 05 0f 74 00 00 	mov    rax,QWORD PTR [rip+0x740f]        # 140010008 <vmcs>
   140008bf9:	0f b6 55 fd          	movzx  edx,BYTE PTR [rbp-0x3]
   140008bfd:	48 63 d2             	movsxd rdx,edx
   140008c00:	48 83 c2 22          	add    rdx,0x22
   140008c04:	48 8b 44 d0 08       	mov    rax,QWORD PTR [rax+rdx*8+0x8]
   140008c09:	89 45 f4             	mov    DWORD PTR [rbp-0xc],eax
   140008c0c:	8b 45 f8             	mov    eax,DWORD PTR [rbp-0x8]
   140008c0f:	0f af 45 f4          	imul   eax,DWORD PTR [rbp-0xc]
   140008c13:	89 c2                	mov    edx,eax
   140008c15:	48 8b 05 ec 73 00 00 	mov    rax,QWORD PTR [rip+0x73ec]        # 140010008 <vmcs>
   140008c1c:	0f b6 4d ff          	movzx  ecx,BYTE PTR [rbp-0x1]
   140008c20:	48 63 d2             	movsxd rdx,edx
   140008c23:	48 63 c9             	movsxd rcx,ecx
   140008c26:	48 83 c1 22          	add    rcx,0x22
   140008c2a:	48 89 54 c8 08       	mov    QWORD PTR [rax+rcx*8+0x8],rdx
   140008c2f:	90                   	nop
   140008c30:	48 83 c4 10          	add    rsp,0x10
   140008c34:	5d                   	pop    rbp
   140008c35:	c3                   	ret

0000000140008c36 <_ZN5rvm6410operations5rtype7rv_srlwEv>:
   140008c36:	55                   	push   rbp
   140008c37:	48 89 e5             	mov    rbp,rsp
   140008c3a:	48 83 ec 10          	sub    rsp,0x10
   140008c3e:	c6 45 ff 00          	mov    BYTE PTR [rbp-0x1],0x0
   140008c42:	c6 45 fe 00          	mov    BYTE PTR [rbp-0x2],0x0
   140008c46:	c6 45 fd 00          	mov    BYTE PTR [rbp-0x3],0x0
   140008c4a:	c7 45 f8 00 00 00 00 	mov    DWORD PTR [rbp-0x8],0x0
   140008c51:	c7 45 f4 00 00 00 00 	mov    DWORD PTR [rbp-0xc],0x0
   140008c58:	48 8b 05 a9 73 00 00 	mov    rax,QWORD PTR [rip+0x73a9]        # 140010008 <vmcs>
   140008c5f:	48 8b 40 18          	mov    rax,QWORD PTR [rax+0x18]
   140008c63:	88 45 ff             	mov    BYTE PTR [rbp-0x1],al
   140008c66:	48 8b 05 9b 73 00 00 	mov    rax,QWORD PTR [rip+0x739b]        # 140010008 <vmcs>
   140008c6d:	48 8b 40 20          	mov    rax,QWORD PTR [rax+0x20]
   140008c71:	88 45 fe             	mov    BYTE PTR [rbp-0x2],al
   140008c74:	48 8b 05 8d 73 00 00 	mov    rax,QWORD PTR [rip+0x738d]        # 140010008 <vmcs>
   140008c7b:	48 8b 40 28          	mov    rax,QWORD PTR [rax+0x28]
   140008c7f:	88 45 fd             	mov    BYTE PTR [rbp-0x3],al
   140008c82:	48 8b 05 7f 73 00 00 	mov    rax,QWORD PTR [rip+0x737f]        # 140010008 <vmcs>
   140008c89:	0f b6 55 fe          	movzx  edx,BYTE PTR [rbp-0x2]
   140008c8d:	48 63 d2             	movsxd rdx,edx
   140008c90:	48 83 c2 22          	add    rdx,0x22
   140008c94:	48 8b 44 d0 08       	mov    rax,QWORD PTR [rax+rdx*8+0x8]
   140008c99:	89 45 f8             	mov    DWORD PTR [rbp-0x8],eax
   140008c9c:	48 8b 05 65 73 00 00 	mov    rax,QWORD PTR [rip+0x7365]        # 140010008 <vmcs>
   140008ca3:	0f b6 55 fd          	movzx  edx,BYTE PTR [rbp-0x3]
   140008ca7:	48 63 d2             	movsxd rdx,edx
   140008caa:	48 83 c2 22          	add    rdx,0x22
   140008cae:	48 8b 44 d0 08       	mov    rax,QWORD PTR [rax+rdx*8+0x8]
   140008cb3:	89 45 f4             	mov    DWORD PTR [rbp-0xc],eax
   140008cb6:	8b 45 f4             	mov    eax,DWORD PTR [rbp-0xc]
   140008cb9:	83 e0 1f             	and    eax,0x1f
   140008cbc:	8b 55 f8             	mov    edx,DWORD PTR [rbp-0x8]
   140008cbf:	89 c1                	mov    ecx,eax
   140008cc1:	d3 fa                	sar    edx,cl
   140008cc3:	48 8b 05 3e 73 00 00 	mov    rax,QWORD PTR [rip+0x733e]        # 140010008 <vmcs>
   140008cca:	0f b6 4d ff          	movzx  ecx,BYTE PTR [rbp-0x1]
   140008cce:	48 63 d2             	movsxd rdx,edx
   140008cd1:	48 63 c9             	movsxd rcx,ecx
   140008cd4:	48 83 c1 22          	add    rcx,0x22
   140008cd8:	48 89 54 c8 08       	mov    QWORD PTR [rax+rcx*8+0x8],rdx
   140008cdd:	90                   	nop
   140008cde:	48 83 c4 10          	add    rsp,0x10
   140008ce2:	5d                   	pop    rbp
   140008ce3:	c3                   	ret

0000000140008ce4 <_ZN5rvm6410operations5rtype7rv_srawEv>:
   140008ce4:	55                   	push   rbp
   140008ce5:	48 89 e5             	mov    rbp,rsp
   140008ce8:	48 83 ec 10          	sub    rsp,0x10
   140008cec:	c6 45 ff 00          	mov    BYTE PTR [rbp-0x1],0x0
   140008cf0:	c6 45 fe 00          	mov    BYTE PTR [rbp-0x2],0x0
   140008cf4:	c6 45 fd 00          	mov    BYTE PTR [rbp-0x3],0x0
   140008cf8:	c7 45 f8 00 00 00 00 	mov    DWORD PTR [rbp-0x8],0x0
   140008cff:	c7 45 f4 00 00 00 00 	mov    DWORD PTR [rbp-0xc],0x0
   140008d06:	48 8b 05 fb 72 00 00 	mov    rax,QWORD PTR [rip+0x72fb]        # 140010008 <vmcs>
   140008d0d:	48 8b 40 18          	mov    rax,QWORD PTR [rax+0x18]
   140008d11:	88 45 ff             	mov    BYTE PTR [rbp-0x1],al
   140008d14:	48 8b 05 ed 72 00 00 	mov    rax,QWORD PTR [rip+0x72ed]        # 140010008 <vmcs>
   140008d1b:	48 8b 40 20          	mov    rax,QWORD PTR [rax+0x20]
   140008d1f:	88 45 fe             	mov    BYTE PTR [rbp-0x2],al
   140008d22:	48 8b 05 df 72 00 00 	mov    rax,QWORD PTR [rip+0x72df]        # 140010008 <vmcs>
   140008d29:	48 8b 40 28          	mov    rax,QWORD PTR [rax+0x28]
   140008d2d:	88 45 fd             	mov    BYTE PTR [rbp-0x3],al
   140008d30:	48 8b 05 d1 72 00 00 	mov    rax,QWORD PTR [rip+0x72d1]        # 140010008 <vmcs>
   140008d37:	0f b6 55 fe          	movzx  edx,BYTE PTR [rbp-0x2]
   140008d3b:	48 63 d2             	movsxd rdx,edx
   140008d3e:	48 83 c2 22          	add    rdx,0x22
   140008d42:	48 8b 44 d0 08       	mov    rax,QWORD PTR [rax+rdx*8+0x8]
   140008d47:	89 45 f8             	mov    DWORD PTR [rbp-0x8],eax
   140008d4a:	48 8b 05 b7 72 00 00 	mov    rax,QWORD PTR [rip+0x72b7]        # 140010008 <vmcs>
   140008d51:	0f b6 55 fd          	movzx  edx,BYTE PTR [rbp-0x3]
   140008d55:	48 63 d2             	movsxd rdx,edx
   140008d58:	48 83 c2 22          	add    rdx,0x22
   140008d5c:	48 8b 44 d0 08       	mov    rax,QWORD PTR [rax+rdx*8+0x8]
   140008d61:	89 45 f4             	mov    DWORD PTR [rbp-0xc],eax
   140008d64:	8b 45 f4             	mov    eax,DWORD PTR [rbp-0xc]
   140008d67:	83 e0 1f             	and    eax,0x1f
   140008d6a:	8b 55 f8             	mov    edx,DWORD PTR [rbp-0x8]
   140008d6d:	89 c1                	mov    ecx,eax
   140008d6f:	d3 fa                	sar    edx,cl
   140008d71:	48 8b 05 90 72 00 00 	mov    rax,QWORD PTR [rip+0x7290]        # 140010008 <vmcs>
   140008d78:	0f b6 4d ff          	movzx  ecx,BYTE PTR [rbp-0x1]
   140008d7c:	48 63 d2             	movsxd rdx,edx
   140008d7f:	48 63 c9             	movsxd rcx,ecx
   140008d82:	48 83 c1 22          	add    rcx,0x22
   140008d86:	48 89 54 c8 08       	mov    QWORD PTR [rax+rcx*8+0x8],rdx
   140008d8b:	90                   	nop
   140008d8c:	48 83 c4 10          	add    rsp,0x10
   140008d90:	5d                   	pop    rbp
   140008d91:	c3                   	ret

0000000140008d92 <_ZN5rvm6410operations5rtype8rv_divuwEv>:
   140008d92:	55                   	push   rbp
   140008d93:	48 89 e5             	mov    rbp,rsp
   140008d96:	48 83 ec 10          	sub    rsp,0x10
   140008d9a:	c6 45 ff 00          	mov    BYTE PTR [rbp-0x1],0x0
   140008d9e:	c6 45 fe 00          	mov    BYTE PTR [rbp-0x2],0x0
   140008da2:	c6 45 fd 00          	mov    BYTE PTR [rbp-0x3],0x0
   140008da6:	c7 45 f8 00 00 00 00 	mov    DWORD PTR [rbp-0x8],0x0
   140008dad:	c7 45 f4 00 00 00 00 	mov    DWORD PTR [rbp-0xc],0x0
   140008db4:	48 8b 05 4d 72 00 00 	mov    rax,QWORD PTR [rip+0x724d]        # 140010008 <vmcs>
   140008dbb:	48 8b 40 18          	mov    rax,QWORD PTR [rax+0x18]
   140008dbf:	88 45 ff             	mov    BYTE PTR [rbp-0x1],al
   140008dc2:	48 8b 05 3f 72 00 00 	mov    rax,QWORD PTR [rip+0x723f]        # 140010008 <vmcs>
   140008dc9:	48 8b 40 20          	mov    rax,QWORD PTR [rax+0x20]
   140008dcd:	88 45 fe             	mov    BYTE PTR [rbp-0x2],al
   140008dd0:	48 8b 05 31 72 00 00 	mov    rax,QWORD PTR [rip+0x7231]        # 140010008 <vmcs>
   140008dd7:	48 8b 40 28          	mov    rax,QWORD PTR [rax+0x28]
   140008ddb:	88 45 fd             	mov    BYTE PTR [rbp-0x3],al
   140008dde:	48 8b 05 23 72 00 00 	mov    rax,QWORD PTR [rip+0x7223]        # 140010008 <vmcs>
   140008de5:	0f b6 55 fe          	movzx  edx,BYTE PTR [rbp-0x2]
   140008de9:	48 63 d2             	movsxd rdx,edx
   140008dec:	48 83 c2 22          	add    rdx,0x22
   140008df0:	48 8b 44 d0 08       	mov    rax,QWORD PTR [rax+rdx*8+0x8]
   140008df5:	89 45 f8             	mov    DWORD PTR [rbp-0x8],eax
   140008df8:	48 8b 05 09 72 00 00 	mov    rax,QWORD PTR [rip+0x7209]        # 140010008 <vmcs>
   140008dff:	0f b6 55 fd          	movzx  edx,BYTE PTR [rbp-0x3]
   140008e03:	48 63 d2             	movsxd rdx,edx
   140008e06:	48 83 c2 22          	add    rdx,0x22
   140008e0a:	48 8b 44 d0 08       	mov    rax,QWORD PTR [rax+rdx*8+0x8]
   140008e0f:	89 45 f4             	mov    DWORD PTR [rbp-0xc],eax
   140008e12:	8b 45 f8             	mov    eax,DWORD PTR [rbp-0x8]
   140008e15:	ba 00 00 00 00       	mov    edx,0x0
   140008e1a:	f7 75 f4             	div    DWORD PTR [rbp-0xc]
   140008e1d:	89 c1                	mov    ecx,eax
   140008e1f:	48 8b 05 e2 71 00 00 	mov    rax,QWORD PTR [rip+0x71e2]        # 140010008 <vmcs>
   140008e26:	0f b6 55 ff          	movzx  edx,BYTE PTR [rbp-0x1]
   140008e2a:	89 c9                	mov    ecx,ecx
   140008e2c:	48 63 d2             	movsxd rdx,edx
   140008e2f:	48 83 c2 22          	add    rdx,0x22
   140008e33:	48 89 4c d0 08       	mov    QWORD PTR [rax+rdx*8+0x8],rcx
   140008e38:	90                   	nop
   140008e39:	48 83 c4 10          	add    rsp,0x10
   140008e3d:	5d                   	pop    rbp
   140008e3e:	c3                   	ret

0000000140008e3f <_ZN5rvm6410operations5rtype7rv_sllwEv>:
   140008e3f:	55                   	push   rbp
   140008e40:	48 89 e5             	mov    rbp,rsp
   140008e43:	48 83 ec 10          	sub    rsp,0x10
   140008e47:	c6 45 ff 00          	mov    BYTE PTR [rbp-0x1],0x0
   140008e4b:	c6 45 fe 00          	mov    BYTE PTR [rbp-0x2],0x0
   140008e4f:	c6 45 fd 00          	mov    BYTE PTR [rbp-0x3],0x0
   140008e53:	c7 45 f8 00 00 00 00 	mov    DWORD PTR [rbp-0x8],0x0
   140008e5a:	c7 45 f4 00 00 00 00 	mov    DWORD PTR [rbp-0xc],0x0
   140008e61:	48 8b 05 a0 71 00 00 	mov    rax,QWORD PTR [rip+0x71a0]        # 140010008 <vmcs>
   140008e68:	48 8b 40 18          	mov    rax,QWORD PTR [rax+0x18]
   140008e6c:	88 45 ff             	mov    BYTE PTR [rbp-0x1],al
   140008e6f:	48 8b 05 92 71 00 00 	mov    rax,QWORD PTR [rip+0x7192]        # 140010008 <vmcs>
   140008e76:	48 8b 40 20          	mov    rax,QWORD PTR [rax+0x20]
   140008e7a:	88 45 fe             	mov    BYTE PTR [rbp-0x2],al
   140008e7d:	48 8b 05 84 71 00 00 	mov    rax,QWORD PTR [rip+0x7184]        # 140010008 <vmcs>
   140008e84:	48 8b 40 28          	mov    rax,QWORD PTR [rax+0x28]
   140008e88:	88 45 fd             	mov    BYTE PTR [rbp-0x3],al
   140008e8b:	48 8b 05 76 71 00 00 	mov    rax,QWORD PTR [rip+0x7176]        # 140010008 <vmcs>
   140008e92:	0f b6 55 fe          	movzx  edx,BYTE PTR [rbp-0x2]
   140008e96:	48 63 d2             	movsxd rdx,edx
   140008e99:	48 83 c2 22          	add    rdx,0x22
   140008e9d:	48 8b 44 d0 08       	mov    rax,QWORD PTR [rax+rdx*8+0x8]
   140008ea2:	89 45 f8             	mov    DWORD PTR [rbp-0x8],eax
   140008ea5:	48 8b 05 5c 71 00 00 	mov    rax,QWORD PTR [rip+0x715c]        # 140010008 <vmcs>
   140008eac:	0f b6 55 fd          	movzx  edx,BYTE PTR [rbp-0x3]
   140008eb0:	48 63 d2             	movsxd rdx,edx
   140008eb3:	48 83 c2 22          	add    rdx,0x22
   140008eb7:	48 8b 44 d0 08       	mov    rax,QWORD PTR [rax+rdx*8+0x8]
   140008ebc:	89 45 f4             	mov    DWORD PTR [rbp-0xc],eax
   140008ebf:	8b 45 f4             	mov    eax,DWORD PTR [rbp-0xc]
   140008ec2:	83 e0 1f             	and    eax,0x1f
   140008ec5:	8b 55 f8             	mov    edx,DWORD PTR [rbp-0x8]
   140008ec8:	89 c1                	mov    ecx,eax
   140008eca:	d3 e2                	shl    edx,cl
   140008ecc:	48 8b 05 35 71 00 00 	mov    rax,QWORD PTR [rip+0x7135]        # 140010008 <vmcs>
   140008ed3:	0f b6 4d ff          	movzx  ecx,BYTE PTR [rbp-0x1]
   140008ed7:	48 63 d2             	movsxd rdx,edx
   140008eda:	48 63 c9             	movsxd rcx,ecx
   140008edd:	48 83 c1 22          	add    rcx,0x22
   140008ee1:	48 89 54 c8 08       	mov    QWORD PTR [rax+rcx*8+0x8],rdx
   140008ee6:	90                   	nop
   140008ee7:	48 83 c4 10          	add    rsp,0x10
   140008eeb:	5d                   	pop    rbp
   140008eec:	c3                   	ret

0000000140008eed <_ZN5rvm6410operations5rtype7rv_divwEv>:
   140008eed:	55                   	push   rbp
   140008eee:	48 89 e5             	mov    rbp,rsp
   140008ef1:	48 83 ec 10          	sub    rsp,0x10
   140008ef5:	c6 45 ff 00          	mov    BYTE PTR [rbp-0x1],0x0
   140008ef9:	c6 45 fe 00          	mov    BYTE PTR [rbp-0x2],0x0
   140008efd:	c6 45 fd 00          	mov    BYTE PTR [rbp-0x3],0x0
   140008f01:	c7 45 f8 00 00 00 00 	mov    DWORD PTR [rbp-0x8],0x0
   140008f08:	c7 45 f4 00 00 00 00 	mov    DWORD PTR [rbp-0xc],0x0
   140008f0f:	48 8b 05 f2 70 00 00 	mov    rax,QWORD PTR [rip+0x70f2]        # 140010008 <vmcs>
   140008f16:	48 8b 40 18          	mov    rax,QWORD PTR [rax+0x18]
   140008f1a:	88 45 ff             	mov    BYTE PTR [rbp-0x1],al
   140008f1d:	48 8b 05 e4 70 00 00 	mov    rax,QWORD PTR [rip+0x70e4]        # 140010008 <vmcs>
   140008f24:	48 8b 40 20          	mov    rax,QWORD PTR [rax+0x20]
   140008f28:	88 45 fe             	mov    BYTE PTR [rbp-0x2],al
   140008f2b:	48 8b 05 d6 70 00 00 	mov    rax,QWORD PTR [rip+0x70d6]        # 140010008 <vmcs>
   140008f32:	48 8b 40 28          	mov    rax,QWORD PTR [rax+0x28]
   140008f36:	88 45 fd             	mov    BYTE PTR [rbp-0x3],al
   140008f39:	48 8b 05 c8 70 00 00 	mov    rax,QWORD PTR [rip+0x70c8]        # 140010008 <vmcs>
   140008f40:	0f b6 55 fe          	movzx  edx,BYTE PTR [rbp-0x2]
   140008f44:	48 63 d2             	movsxd rdx,edx
   140008f47:	48 83 c2 22          	add    rdx,0x22
   140008f4b:	48 8b 44 d0 08       	mov    rax,QWORD PTR [rax+rdx*8+0x8]
   140008f50:	89 45 f8             	mov    DWORD PTR [rbp-0x8],eax
   140008f53:	48 8b 05 ae 70 00 00 	mov    rax,QWORD PTR [rip+0x70ae]        # 140010008 <vmcs>
   140008f5a:	0f b6 55 fd          	movzx  edx,BYTE PTR [rbp-0x3]
   140008f5e:	48 63 d2             	movsxd rdx,edx
   140008f61:	48 83 c2 22          	add    rdx,0x22
   140008f65:	48 8b 44 d0 08       	mov    rax,QWORD PTR [rax+rdx*8+0x8]
   140008f6a:	89 45 f4             	mov    DWORD PTR [rbp-0xc],eax
   140008f6d:	8b 45 f8             	mov    eax,DWORD PTR [rbp-0x8]
   140008f70:	99                   	cdq
   140008f71:	f7 7d f4             	idiv   DWORD PTR [rbp-0xc]
   140008f74:	89 c2                	mov    edx,eax
   140008f76:	48 8b 05 8b 70 00 00 	mov    rax,QWORD PTR [rip+0x708b]        # 140010008 <vmcs>
   140008f7d:	0f b6 4d ff          	movzx  ecx,BYTE PTR [rbp-0x1]
   140008f81:	48 63 d2             	movsxd rdx,edx
   140008f84:	48 63 c9             	movsxd rcx,ecx
   140008f87:	48 83 c1 22          	add    rcx,0x22
   140008f8b:	48 89 54 c8 08       	mov    QWORD PTR [rax+rcx*8+0x8],rdx
   140008f90:	90                   	nop
   140008f91:	48 83 c4 10          	add    rsp,0x10
   140008f95:	5d                   	pop    rbp
   140008f96:	c3                   	ret

0000000140008f97 <_ZN5rvm6410operations5rtype7rv_remwEv>:
   140008f97:	55                   	push   rbp
   140008f98:	48 89 e5             	mov    rbp,rsp
   140008f9b:	48 83 ec 10          	sub    rsp,0x10
   140008f9f:	c6 45 ff 00          	mov    BYTE PTR [rbp-0x1],0x0
   140008fa3:	c6 45 fe 00          	mov    BYTE PTR [rbp-0x2],0x0
   140008fa7:	c6 45 fd 00          	mov    BYTE PTR [rbp-0x3],0x0
   140008fab:	c7 45 f8 00 00 00 00 	mov    DWORD PTR [rbp-0x8],0x0
   140008fb2:	c7 45 f4 00 00 00 00 	mov    DWORD PTR [rbp-0xc],0x0
   140008fb9:	48 8b 05 48 70 00 00 	mov    rax,QWORD PTR [rip+0x7048]        # 140010008 <vmcs>
   140008fc0:	48 8b 40 18          	mov    rax,QWORD PTR [rax+0x18]
   140008fc4:	88 45 ff             	mov    BYTE PTR [rbp-0x1],al
   140008fc7:	48 8b 05 3a 70 00 00 	mov    rax,QWORD PTR [rip+0x703a]        # 140010008 <vmcs>
   140008fce:	48 8b 40 20          	mov    rax,QWORD PTR [rax+0x20]
   140008fd2:	88 45 fe             	mov    BYTE PTR [rbp-0x2],al
   140008fd5:	48 8b 05 2c 70 00 00 	mov    rax,QWORD PTR [rip+0x702c]        # 140010008 <vmcs>
   140008fdc:	48 8b 40 28          	mov    rax,QWORD PTR [rax+0x28]
   140008fe0:	88 45 fd             	mov    BYTE PTR [rbp-0x3],al
   140008fe3:	48 8b 05 1e 70 00 00 	mov    rax,QWORD PTR [rip+0x701e]        # 140010008 <vmcs>
   140008fea:	0f b6 55 fe          	movzx  edx,BYTE PTR [rbp-0x2]
   140008fee:	48 63 d2             	movsxd rdx,edx
   140008ff1:	48 83 c2 22          	add    rdx,0x22
   140008ff5:	48 8b 44 d0 08       	mov    rax,QWORD PTR [rax+rdx*8+0x8]
   140008ffa:	89 45 f8             	mov    DWORD PTR [rbp-0x8],eax
   140008ffd:	48 8b 05 04 70 00 00 	mov    rax,QWORD PTR [rip+0x7004]        # 140010008 <vmcs>
   140009004:	0f b6 55 fd          	movzx  edx,BYTE PTR [rbp-0x3]
   140009008:	48 63 d2             	movsxd rdx,edx
   14000900b:	48 83 c2 22          	add    rdx,0x22
   14000900f:	48 8b 44 d0 08       	mov    rax,QWORD PTR [rax+rdx*8+0x8]
   140009014:	89 45 f4             	mov    DWORD PTR [rbp-0xc],eax
   140009017:	8b 45 f8             	mov    eax,DWORD PTR [rbp-0x8]
   14000901a:	99                   	cdq
   14000901b:	f7 7d f4             	idiv   DWORD PTR [rbp-0xc]
   14000901e:	48 8b 05 e3 6f 00 00 	mov    rax,QWORD PTR [rip+0x6fe3]        # 140010008 <vmcs>
   140009025:	0f b6 4d ff          	movzx  ecx,BYTE PTR [rbp-0x1]
   140009029:	48 63 d2             	movsxd rdx,edx
   14000902c:	48 63 c9             	movsxd rcx,ecx
   14000902f:	48 83 c1 22          	add    rcx,0x22
   140009033:	48 89 54 c8 08       	mov    QWORD PTR [rax+rcx*8+0x8],rdx
   140009038:	90                   	nop
   140009039:	48 83 c4 10          	add    rsp,0x10
   14000903d:	5d                   	pop    rbp
   14000903e:	c3                   	ret

000000014000903f <_ZN5rvm6410operations5rtype8rv_remuwEv>:
   14000903f:	55                   	push   rbp
   140009040:	48 89 e5             	mov    rbp,rsp
   140009043:	48 83 ec 10          	sub    rsp,0x10
   140009047:	c6 45 ff 00          	mov    BYTE PTR [rbp-0x1],0x0
   14000904b:	c6 45 fe 00          	mov    BYTE PTR [rbp-0x2],0x0
   14000904f:	c6 45 fd 00          	mov    BYTE PTR [rbp-0x3],0x0
   140009053:	c7 45 f8 00 00 00 00 	mov    DWORD PTR [rbp-0x8],0x0
   14000905a:	c7 45 f4 00 00 00 00 	mov    DWORD PTR [rbp-0xc],0x0
   140009061:	48 8b 05 a0 6f 00 00 	mov    rax,QWORD PTR [rip+0x6fa0]        # 140010008 <vmcs>
   140009068:	48 8b 40 18          	mov    rax,QWORD PTR [rax+0x18]
   14000906c:	88 45 ff             	mov    BYTE PTR [rbp-0x1],al
   14000906f:	48 8b 05 92 6f 00 00 	mov    rax,QWORD PTR [rip+0x6f92]        # 140010008 <vmcs>
   140009076:	48 8b 40 20          	mov    rax,QWORD PTR [rax+0x20]
   14000907a:	88 45 fe             	mov    BYTE PTR [rbp-0x2],al
   14000907d:	48 8b 05 84 6f 00 00 	mov    rax,QWORD PTR [rip+0x6f84]        # 140010008 <vmcs>
   140009084:	48 8b 40 28          	mov    rax,QWORD PTR [rax+0x28]
   140009088:	88 45 fd             	mov    BYTE PTR [rbp-0x3],al
   14000908b:	48 8b 05 76 6f 00 00 	mov    rax,QWORD PTR [rip+0x6f76]        # 140010008 <vmcs>
   140009092:	0f b6 55 fe          	movzx  edx,BYTE PTR [rbp-0x2]
   140009096:	48 63 d2             	movsxd rdx,edx
   140009099:	48 83 c2 22          	add    rdx,0x22
   14000909d:	48 8b 44 d0 08       	mov    rax,QWORD PTR [rax+rdx*8+0x8]
   1400090a2:	89 45 f8             	mov    DWORD PTR [rbp-0x8],eax
   1400090a5:	48 8b 05 5c 6f 00 00 	mov    rax,QWORD PTR [rip+0x6f5c]        # 140010008 <vmcs>
   1400090ac:	0f b6 55 fd          	movzx  edx,BYTE PTR [rbp-0x3]
   1400090b0:	48 63 d2             	movsxd rdx,edx
   1400090b3:	48 83 c2 22          	add    rdx,0x22
   1400090b7:	48 8b 44 d0 08       	mov    rax,QWORD PTR [rax+rdx*8+0x8]
   1400090bc:	89 45 f4             	mov    DWORD PTR [rbp-0xc],eax
   1400090bf:	8b 45 f8             	mov    eax,DWORD PTR [rbp-0x8]
   1400090c2:	ba 00 00 00 00       	mov    edx,0x0
   1400090c7:	f7 75 f4             	div    DWORD PTR [rbp-0xc]
   1400090ca:	89 d1                	mov    ecx,edx
   1400090cc:	48 8b 05 35 6f 00 00 	mov    rax,QWORD PTR [rip+0x6f35]        # 140010008 <vmcs>
   1400090d3:	0f b6 55 ff          	movzx  edx,BYTE PTR [rbp-0x1]
   1400090d7:	89 c9                	mov    ecx,ecx
   1400090d9:	48 63 d2             	movsxd rdx,edx
   1400090dc:	48 83 c2 22          	add    rdx,0x22
   1400090e0:	48 89 4c d0 08       	mov    QWORD PTR [rax+rdx*8+0x8],rcx
   1400090e5:	90                   	nop
   1400090e6:	48 83 c4 10          	add    rsp,0x10
   1400090ea:	5d                   	pop    rbp
   1400090eb:	c3                   	ret

00000001400090ec <_ZN5rvm6410operations5rtype6rv_addEv>:
   1400090ec:	55                   	push   rbp
   1400090ed:	48 89 e5             	mov    rbp,rsp
   1400090f0:	48 83 ec 10          	sub    rsp,0x10
   1400090f4:	c6 45 ff 00          	mov    BYTE PTR [rbp-0x1],0x0
   1400090f8:	c6 45 fe 00          	mov    BYTE PTR [rbp-0x2],0x0
   1400090fc:	c6 45 fd 00          	mov    BYTE PTR [rbp-0x3],0x0
   140009100:	c7 45 f8 00 00 00 00 	mov    DWORD PTR [rbp-0x8],0x0
   140009107:	c7 45 f4 00 00 00 00 	mov    DWORD PTR [rbp-0xc],0x0
   14000910e:	48 8b 05 f3 6e 00 00 	mov    rax,QWORD PTR [rip+0x6ef3]        # 140010008 <vmcs>
   140009115:	48 8b 40 18          	mov    rax,QWORD PTR [rax+0x18]
   140009119:	88 45 ff             	mov    BYTE PTR [rbp-0x1],al
   14000911c:	48 8b 05 e5 6e 00 00 	mov    rax,QWORD PTR [rip+0x6ee5]        # 140010008 <vmcs>
   140009123:	48 8b 40 20          	mov    rax,QWORD PTR [rax+0x20]
   140009127:	88 45 fe             	mov    BYTE PTR [rbp-0x2],al
   14000912a:	48 8b 05 d7 6e 00 00 	mov    rax,QWORD PTR [rip+0x6ed7]        # 140010008 <vmcs>
   140009131:	48 8b 40 28          	mov    rax,QWORD PTR [rax+0x28]
   140009135:	88 45 fd             	mov    BYTE PTR [rbp-0x3],al
   140009138:	48 8b 05 c9 6e 00 00 	mov    rax,QWORD PTR [rip+0x6ec9]        # 140010008 <vmcs>
   14000913f:	0f b6 55 fe          	movzx  edx,BYTE PTR [rbp-0x2]
   140009143:	48 63 d2             	movsxd rdx,edx
   140009146:	48 83 c2 22          	add    rdx,0x22
   14000914a:	48 8b 44 d0 08       	mov    rax,QWORD PTR [rax+rdx*8+0x8]
   14000914f:	89 45 f8             	mov    DWORD PTR [rbp-0x8],eax
   140009152:	48 8b 05 af 6e 00 00 	mov    rax,QWORD PTR [rip+0x6eaf]        # 140010008 <vmcs>
   140009159:	0f b6 55 fd          	movzx  edx,BYTE PTR [rbp-0x3]
   14000915d:	48 63 d2             	movsxd rdx,edx
   140009160:	48 83 c2 22          	add    rdx,0x22
   140009164:	48 8b 44 d0 08       	mov    rax,QWORD PTR [rax+rdx*8+0x8]
   140009169:	89 45 f4             	mov    DWORD PTR [rbp-0xc],eax
   14000916c:	8b 55 f8             	mov    edx,DWORD PTR [rbp-0x8]
   14000916f:	8b 45 f4             	mov    eax,DWORD PTR [rbp-0xc]
   140009172:	01 c2                	add    edx,eax
   140009174:	48 8b 05 8d 6e 00 00 	mov    rax,QWORD PTR [rip+0x6e8d]        # 140010008 <vmcs>
   14000917b:	0f b6 4d ff          	movzx  ecx,BYTE PTR [rbp-0x1]
   14000917f:	48 63 d2             	movsxd rdx,edx
   140009182:	48 63 c9             	movsxd rcx,ecx
   140009185:	48 83 c1 22          	add    rcx,0x22
   140009189:	48 89 54 c8 08       	mov    QWORD PTR [rax+rcx*8+0x8],rdx
   14000918e:	90                   	nop
   14000918f:	48 83 c4 10          	add    rsp,0x10
   140009193:	5d                   	pop    rbp
   140009194:	c3                   	ret

0000000140009195 <_ZN5rvm6410operations5rtype6rv_subEv>:
   140009195:	55                   	push   rbp
   140009196:	48 89 e5             	mov    rbp,rsp
   140009199:	48 83 ec 10          	sub    rsp,0x10
   14000919d:	c6 45 ff 00          	mov    BYTE PTR [rbp-0x1],0x0
   1400091a1:	c6 45 fe 00          	mov    BYTE PTR [rbp-0x2],0x0
   1400091a5:	c6 45 fd 00          	mov    BYTE PTR [rbp-0x3],0x0
   1400091a9:	c7 45 f8 00 00 00 00 	mov    DWORD PTR [rbp-0x8],0x0
   1400091b0:	c7 45 f4 00 00 00 00 	mov    DWORD PTR [rbp-0xc],0x0
   1400091b7:	48 8b 05 4a 6e 00 00 	mov    rax,QWORD PTR [rip+0x6e4a]        # 140010008 <vmcs>
   1400091be:	48 8b 40 18          	mov    rax,QWORD PTR [rax+0x18]
   1400091c2:	88 45 ff             	mov    BYTE PTR [rbp-0x1],al
   1400091c5:	48 8b 05 3c 6e 00 00 	mov    rax,QWORD PTR [rip+0x6e3c]        # 140010008 <vmcs>
   1400091cc:	48 8b 40 20          	mov    rax,QWORD PTR [rax+0x20]
   1400091d0:	88 45 fe             	mov    BYTE PTR [rbp-0x2],al
   1400091d3:	48 8b 05 2e 6e 00 00 	mov    rax,QWORD PTR [rip+0x6e2e]        # 140010008 <vmcs>
   1400091da:	48 8b 40 28          	mov    rax,QWORD PTR [rax+0x28]
   1400091de:	88 45 fd             	mov    BYTE PTR [rbp-0x3],al
   1400091e1:	48 8b 05 20 6e 00 00 	mov    rax,QWORD PTR [rip+0x6e20]        # 140010008 <vmcs>
   1400091e8:	0f b6 55 fe          	movzx  edx,BYTE PTR [rbp-0x2]
   1400091ec:	48 63 d2             	movsxd rdx,edx
   1400091ef:	48 83 c2 22          	add    rdx,0x22
   1400091f3:	48 8b 44 d0 08       	mov    rax,QWORD PTR [rax+rdx*8+0x8]
   1400091f8:	89 45 f8             	mov    DWORD PTR [rbp-0x8],eax
   1400091fb:	48 8b 05 06 6e 00 00 	mov    rax,QWORD PTR [rip+0x6e06]        # 140010008 <vmcs>
   140009202:	0f b6 55 fd          	movzx  edx,BYTE PTR [rbp-0x3]
   140009206:	48 63 d2             	movsxd rdx,edx
   140009209:	48 83 c2 22          	add    rdx,0x22
   14000920d:	48 8b 44 d0 08       	mov    rax,QWORD PTR [rax+rdx*8+0x8]
   140009212:	89 45 f4             	mov    DWORD PTR [rbp-0xc],eax
   140009215:	8b 45 f8             	mov    eax,DWORD PTR [rbp-0x8]
   140009218:	2b 45 f4             	sub    eax,DWORD PTR [rbp-0xc]
   14000921b:	89 c2                	mov    edx,eax
   14000921d:	48 8b 05 e4 6d 00 00 	mov    rax,QWORD PTR [rip+0x6de4]        # 140010008 <vmcs>
   140009224:	0f b6 4d ff          	movzx  ecx,BYTE PTR [rbp-0x1]
   140009228:	48 63 d2             	movsxd rdx,edx
   14000922b:	48 63 c9             	movsxd rcx,ecx
   14000922e:	48 83 c1 22          	add    rcx,0x22
   140009232:	48 89 54 c8 08       	mov    QWORD PTR [rax+rcx*8+0x8],rdx
   140009237:	90                   	nop
   140009238:	48 83 c4 10          	add    rsp,0x10
   14000923c:	5d                   	pop    rbp
   14000923d:	c3                   	ret

000000014000923e <_ZN5rvm6410operations5rtype6rv_mulEv>:
   14000923e:	55                   	push   rbp
   14000923f:	48 89 e5             	mov    rbp,rsp
   140009242:	48 83 ec 10          	sub    rsp,0x10
   140009246:	c6 45 ff 00          	mov    BYTE PTR [rbp-0x1],0x0
   14000924a:	c6 45 fe 00          	mov    BYTE PTR [rbp-0x2],0x0
   14000924e:	c6 45 fd 00          	mov    BYTE PTR [rbp-0x3],0x0
   140009252:	c7 45 f8 00 00 00 00 	mov    DWORD PTR [rbp-0x8],0x0
   140009259:	c7 45 f4 00 00 00 00 	mov    DWORD PTR [rbp-0xc],0x0
   140009260:	48 8b 05 a1 6d 00 00 	mov    rax,QWORD PTR [rip+0x6da1]        # 140010008 <vmcs>
   140009267:	48 8b 40 18          	mov    rax,QWORD PTR [rax+0x18]
   14000926b:	88 45 ff             	mov    BYTE PTR [rbp-0x1],al
   14000926e:	48 8b 05 93 6d 00 00 	mov    rax,QWORD PTR [rip+0x6d93]        # 140010008 <vmcs>
   140009275:	48 8b 40 20          	mov    rax,QWORD PTR [rax+0x20]
   140009279:	88 45 fe             	mov    BYTE PTR [rbp-0x2],al
   14000927c:	48 8b 05 85 6d 00 00 	mov    rax,QWORD PTR [rip+0x6d85]        # 140010008 <vmcs>
   140009283:	48 8b 40 28          	mov    rax,QWORD PTR [rax+0x28]
   140009287:	88 45 fd             	mov    BYTE PTR [rbp-0x3],al
   14000928a:	48 8b 05 77 6d 00 00 	mov    rax,QWORD PTR [rip+0x6d77]        # 140010008 <vmcs>
   140009291:	0f b6 55 fe          	movzx  edx,BYTE PTR [rbp-0x2]
   140009295:	48 63 d2             	movsxd rdx,edx
   140009298:	48 83 c2 22          	add    rdx,0x22
   14000929c:	48 8b 44 d0 08       	mov    rax,QWORD PTR [rax+rdx*8+0x8]
   1400092a1:	89 45 f8             	mov    DWORD PTR [rbp-0x8],eax
   1400092a4:	48 8b 05 5d 6d 00 00 	mov    rax,QWORD PTR [rip+0x6d5d]        # 140010008 <vmcs>
   1400092ab:	0f b6 55 fd          	movzx  edx,BYTE PTR [rbp-0x3]
   1400092af:	48 63 d2             	movsxd rdx,edx
   1400092b2:	48 83 c2 22          	add    rdx,0x22
   1400092b6:	48 8b 44 d0 08       	mov    rax,QWORD PTR [rax+rdx*8+0x8]
   1400092bb:	89 45 f4             	mov    DWORD PTR [rbp-0xc],eax
   1400092be:	8b 45 f8             	mov    eax,DWORD PTR [rbp-0x8]
   1400092c1:	0f af 45 f4          	imul   eax,DWORD PTR [rbp-0xc]
   1400092c5:	89 c2                	mov    edx,eax
   1400092c7:	48 8b 05 3a 6d 00 00 	mov    rax,QWORD PTR [rip+0x6d3a]        # 140010008 <vmcs>
   1400092ce:	0f b6 4d ff          	movzx  ecx,BYTE PTR [rbp-0x1]
   1400092d2:	48 63 d2             	movsxd rdx,edx
   1400092d5:	48 63 c9             	movsxd rcx,ecx
   1400092d8:	48 83 c1 22          	add    rcx,0x22
   1400092dc:	48 89 54 c8 08       	mov    QWORD PTR [rax+rcx*8+0x8],rdx
   1400092e1:	90                   	nop
   1400092e2:	48 83 c4 10          	add    rsp,0x10
   1400092e6:	5d                   	pop    rbp
   1400092e7:	c3                   	ret

00000001400092e8 <_ZN5rvm6410operations5rtype6rv_sllEv>:
   1400092e8:	55                   	push   rbp
   1400092e9:	48 89 e5             	mov    rbp,rsp
   1400092ec:	48 83 ec 10          	sub    rsp,0x10
   1400092f0:	c6 45 ff 00          	mov    BYTE PTR [rbp-0x1],0x0
   1400092f4:	c6 45 fe 00          	mov    BYTE PTR [rbp-0x2],0x0
   1400092f8:	c6 45 fd 00          	mov    BYTE PTR [rbp-0x3],0x0
   1400092fc:	c7 45 f8 00 00 00 00 	mov    DWORD PTR [rbp-0x8],0x0
   140009303:	c7 45 f4 00 00 00 00 	mov    DWORD PTR [rbp-0xc],0x0
   14000930a:	48 8b 05 f7 6c 00 00 	mov    rax,QWORD PTR [rip+0x6cf7]        # 140010008 <vmcs>
   140009311:	48 8b 40 18          	mov    rax,QWORD PTR [rax+0x18]
   140009315:	88 45 ff             	mov    BYTE PTR [rbp-0x1],al
   140009318:	48 8b 05 e9 6c 00 00 	mov    rax,QWORD PTR [rip+0x6ce9]        # 140010008 <vmcs>
   14000931f:	48 8b 40 20          	mov    rax,QWORD PTR [rax+0x20]
   140009323:	88 45 fe             	mov    BYTE PTR [rbp-0x2],al
   140009326:	48 8b 05 db 6c 00 00 	mov    rax,QWORD PTR [rip+0x6cdb]        # 140010008 <vmcs>
   14000932d:	48 8b 40 28          	mov    rax,QWORD PTR [rax+0x28]
   140009331:	88 45 fd             	mov    BYTE PTR [rbp-0x3],al
   140009334:	48 8b 05 cd 6c 00 00 	mov    rax,QWORD PTR [rip+0x6ccd]        # 140010008 <vmcs>
   14000933b:	8b 55 f8             	mov    edx,DWORD PTR [rbp-0x8]
   14000933e:	48 63 d2             	movsxd rdx,edx
   140009341:	48 83 c2 22          	add    rdx,0x22
   140009345:	48 8b 44 d0 08       	mov    rax,QWORD PTR [rax+rdx*8+0x8]
   14000934a:	88 45 fe             	mov    BYTE PTR [rbp-0x2],al
   14000934d:	48 8b 05 b4 6c 00 00 	mov    rax,QWORD PTR [rip+0x6cb4]        # 140010008 <vmcs>
   140009354:	8b 55 f4             	mov    edx,DWORD PTR [rbp-0xc]
   140009357:	48 83 c2 22          	add    rdx,0x22
   14000935b:	48 8b 44 d0 08       	mov    rax,QWORD PTR [rax+rdx*8+0x8]
   140009360:	88 45 fd             	mov    BYTE PTR [rbp-0x3],al
   140009363:	8b 45 f4             	mov    eax,DWORD PTR [rbp-0xc]
   140009366:	83 e0 1f             	and    eax,0x1f
   140009369:	8b 55 f8             	mov    edx,DWORD PTR [rbp-0x8]
   14000936c:	89 c1                	mov    ecx,eax
   14000936e:	d3 e2                	shl    edx,cl
   140009370:	48 8b 05 91 6c 00 00 	mov    rax,QWORD PTR [rip+0x6c91]        # 140010008 <vmcs>
   140009377:	0f b6 4d ff          	movzx  ecx,BYTE PTR [rbp-0x1]
   14000937b:	48 63 d2             	movsxd rdx,edx
   14000937e:	48 63 c9             	movsxd rcx,ecx
   140009381:	48 83 c1 22          	add    rcx,0x22
   140009385:	48 89 54 c8 08       	mov    QWORD PTR [rax+rcx*8+0x8],rdx
   14000938a:	90                   	nop
   14000938b:	48 83 c4 10          	add    rsp,0x10
   14000938f:	5d                   	pop    rbp
   140009390:	c3                   	ret

0000000140009391 <_ZN5rvm6410operations5rtype7rv_mulhEv>:
   140009391:	55                   	push   rbp
   140009392:	53                   	push   rbx
   140009393:	48 83 ec 38          	sub    rsp,0x38
   140009397:	48 8d 6c 24 30       	lea    rbp,[rsp+0x30]
   14000939c:	c6 45 ff 00          	mov    BYTE PTR [rbp-0x1],0x0
   1400093a0:	c6 45 fe 00          	mov    BYTE PTR [rbp-0x2],0x0
   1400093a4:	c6 45 fd 00          	mov    BYTE PTR [rbp-0x3],0x0
   1400093a8:	48 c7 45 f0 00 00 00 	mov    QWORD PTR [rbp-0x10],0x0
   1400093af:	00 
   1400093b0:	48 c7 45 e8 00 00 00 	mov    QWORD PTR [rbp-0x18],0x0
   1400093b7:	00 
   1400093b8:	48 8b 05 49 6c 00 00 	mov    rax,QWORD PTR [rip+0x6c49]        # 140010008 <vmcs>
   1400093bf:	48 8b 40 18          	mov    rax,QWORD PTR [rax+0x18]
   1400093c3:	88 45 ff             	mov    BYTE PTR [rbp-0x1],al
   1400093c6:	48 8b 05 3b 6c 00 00 	mov    rax,QWORD PTR [rip+0x6c3b]        # 140010008 <vmcs>
   1400093cd:	48 8b 40 20          	mov    rax,QWORD PTR [rax+0x20]
   1400093d1:	88 45 fe             	mov    BYTE PTR [rbp-0x2],al
   1400093d4:	48 8b 05 2d 6c 00 00 	mov    rax,QWORD PTR [rip+0x6c2d]        # 140010008 <vmcs>
   1400093db:	48 8b 40 28          	mov    rax,QWORD PTR [rax+0x28]
   1400093df:	88 45 fd             	mov    BYTE PTR [rbp-0x3],al
   1400093e2:	48 8b 05 1f 6c 00 00 	mov    rax,QWORD PTR [rip+0x6c1f]        # 140010008 <vmcs>
   1400093e9:	0f b6 55 fe          	movzx  edx,BYTE PTR [rbp-0x2]
   1400093ed:	48 63 d2             	movsxd rdx,edx
   1400093f0:	48 83 c2 22          	add    rdx,0x22
   1400093f4:	48 8b 44 d0 08       	mov    rax,QWORD PTR [rax+rdx*8+0x8]
   1400093f9:	48 89 45 f0          	mov    QWORD PTR [rbp-0x10],rax
   1400093fd:	48 8b 05 04 6c 00 00 	mov    rax,QWORD PTR [rip+0x6c04]        # 140010008 <vmcs>
   140009404:	0f b6 55 fd          	movzx  edx,BYTE PTR [rbp-0x3]
   140009408:	48 63 d2             	movsxd rdx,edx
   14000940b:	48 83 c2 22          	add    rdx,0x22
   14000940f:	48 8b 44 d0 08       	mov    rax,QWORD PTR [rax+rdx*8+0x8]
   140009414:	48 89 45 e8          	mov    QWORD PTR [rbp-0x18],rax
   140009418:	48 8b 45 f0          	mov    rax,QWORD PTR [rbp-0x10]
   14000941c:	48 89 c1             	mov    rcx,rax
   14000941f:	48 89 c3             	mov    rbx,rax
   140009422:	48 c1 fb 3f          	sar    rbx,0x3f
   140009426:	48 8b 45 e8          	mov    rax,QWORD PTR [rbp-0x18]
   14000942a:	48 99                	cqo
   14000942c:	49 89 d9             	mov    r9,rbx
   14000942f:	4c 0f af c8          	imul   r9,rax
   140009433:	49 89 d0             	mov    r8,rdx
   140009436:	4c 0f af c1          	imul   r8,rcx
   14000943a:	4d 01 c8             	add    r8,r9
   14000943d:	48 f7 e1             	mul    rcx
   140009440:	49 8d 0c 10          	lea    rcx,[r8+rdx*1]
   140009444:	48 89 ca             	mov    rdx,rcx
   140009447:	48 89 45 d0          	mov    QWORD PTR [rbp-0x30],rax
   14000944b:	48 89 55 d8          	mov    QWORD PTR [rbp-0x28],rdx
   14000944f:	48 89 45 d0          	mov    QWORD PTR [rbp-0x30],rax
   140009453:	48 89 55 d8          	mov    QWORD PTR [rbp-0x28],rdx
   140009457:	48 8b 45 d0          	mov    rax,QWORD PTR [rbp-0x30]
   14000945b:	48 8b 55 d8          	mov    rdx,QWORD PTR [rbp-0x28]
   14000945f:	48 89 d0             	mov    rax,rdx
   140009462:	48 89 c2             	mov    rdx,rax
   140009465:	48 c1 fa 3f          	sar    rdx,0x3f
   140009469:	48 8b 0d 98 6b 00 00 	mov    rcx,QWORD PTR [rip+0x6b98]        # 140010008 <vmcs>
   140009470:	44 0f b6 45 ff       	movzx  r8d,BYTE PTR [rbp-0x1]
   140009475:	48 89 c2             	mov    rdx,rax
   140009478:	49 63 c0             	movsxd rax,r8d
   14000947b:	48 83 c0 22          	add    rax,0x22
   14000947f:	48 89 54 c1 08       	mov    QWORD PTR [rcx+rax*8+0x8],rdx
   140009484:	90                   	nop
   140009485:	48 83 c4 38          	add    rsp,0x38
   140009489:	5b                   	pop    rbx
   14000948a:	5d                   	pop    rbp
   14000948b:	c3                   	ret

000000014000948c <_ZN5rvm6410operations5rtype6rv_sltEv>:
   14000948c:	55                   	push   rbp
   14000948d:	48 89 e5             	mov    rbp,rsp
   140009490:	48 83 ec 20          	sub    rsp,0x20
   140009494:	c6 45 ff 00          	mov    BYTE PTR [rbp-0x1],0x0
   140009498:	c6 45 fe 00          	mov    BYTE PTR [rbp-0x2],0x0
   14000949c:	c6 45 fd 00          	mov    BYTE PTR [rbp-0x3],0x0
   1400094a0:	48 c7 45 f0 00 00 00 	mov    QWORD PTR [rbp-0x10],0x0
   1400094a7:	00 
   1400094a8:	48 c7 45 e8 00 00 00 	mov    QWORD PTR [rbp-0x18],0x0
   1400094af:	00 
   1400094b0:	48 8b 05 51 6b 00 00 	mov    rax,QWORD PTR [rip+0x6b51]        # 140010008 <vmcs>
   1400094b7:	48 8b 40 18          	mov    rax,QWORD PTR [rax+0x18]
   1400094bb:	88 45 ff             	mov    BYTE PTR [rbp-0x1],al
   1400094be:	48 8b 05 43 6b 00 00 	mov    rax,QWORD PTR [rip+0x6b43]        # 140010008 <vmcs>
   1400094c5:	48 8b 40 20          	mov    rax,QWORD PTR [rax+0x20]
   1400094c9:	88 45 fe             	mov    BYTE PTR [rbp-0x2],al
   1400094cc:	48 8b 05 35 6b 00 00 	mov    rax,QWORD PTR [rip+0x6b35]        # 140010008 <vmcs>
   1400094d3:	48 8b 40 28          	mov    rax,QWORD PTR [rax+0x28]
   1400094d7:	88 45 fd             	mov    BYTE PTR [rbp-0x3],al
   1400094da:	48 8b 05 27 6b 00 00 	mov    rax,QWORD PTR [rip+0x6b27]        # 140010008 <vmcs>
   1400094e1:	0f b6 55 fe          	movzx  edx,BYTE PTR [rbp-0x2]
   1400094e5:	48 63 d2             	movsxd rdx,edx
   1400094e8:	48 83 c2 22          	add    rdx,0x22
   1400094ec:	48 8b 44 d0 08       	mov    rax,QWORD PTR [rax+rdx*8+0x8]
   1400094f1:	48 89 45 f0          	mov    QWORD PTR [rbp-0x10],rax
   1400094f5:	48 8b 05 0c 6b 00 00 	mov    rax,QWORD PTR [rip+0x6b0c]        # 140010008 <vmcs>
   1400094fc:	0f b6 55 fd          	movzx  edx,BYTE PTR [rbp-0x3]
   140009500:	48 63 d2             	movsxd rdx,edx
   140009503:	48 83 c2 22          	add    rdx,0x22
   140009507:	48 8b 44 d0 08       	mov    rax,QWORD PTR [rax+rdx*8+0x8]
   14000950c:	48 89 45 e8          	mov    QWORD PTR [rbp-0x18],rax
   140009510:	48 8b 45 f0          	mov    rax,QWORD PTR [rbp-0x10]
   140009514:	48 3b 45 e8          	cmp    rax,QWORD PTR [rbp-0x18]
   140009518:	7d 07                	jge    140009521 <_ZN5rvm6410operations5rtype6rv_sltEv+0x95>
   14000951a:	b9 01 00 00 00       	mov    ecx,0x1
   14000951f:	eb 05                	jmp    140009526 <_ZN5rvm6410operations5rtype6rv_sltEv+0x9a>
   140009521:	b9 00 00 00 00       	mov    ecx,0x0
   140009526:	48 8b 05 db 6a 00 00 	mov    rax,QWORD PTR [rip+0x6adb]        # 140010008 <vmcs>
   14000952d:	0f b6 55 ff          	movzx  edx,BYTE PTR [rbp-0x1]
   140009531:	48 63 d2             	movsxd rdx,edx
   140009534:	48 83 c2 22          	add    rdx,0x22
   140009538:	48 89 4c d0 08       	mov    QWORD PTR [rax+rdx*8+0x8],rcx
   14000953d:	90                   	nop
   14000953e:	48 83 c4 20          	add    rsp,0x20
   140009542:	5d                   	pop    rbp
   140009543:	c3                   	ret

0000000140009544 <_ZN5rvm6410operations5rtype9rv_mulhsuEv>:
   140009544:	55                   	push   rbp
   140009545:	53                   	push   rbx
   140009546:	48 83 ec 38          	sub    rsp,0x38
   14000954a:	48 8d 6c 24 30       	lea    rbp,[rsp+0x30]
   14000954f:	c6 45 ff 00          	mov    BYTE PTR [rbp-0x1],0x0
   140009553:	c6 45 fe 00          	mov    BYTE PTR [rbp-0x2],0x0
   140009557:	c6 45 fd 00          	mov    BYTE PTR [rbp-0x3],0x0
   14000955b:	48 c7 45 f0 00 00 00 	mov    QWORD PTR [rbp-0x10],0x0
   140009562:	00 
   140009563:	48 c7 45 e8 00 00 00 	mov    QWORD PTR [rbp-0x18],0x0
   14000956a:	00 
   14000956b:	48 8b 05 96 6a 00 00 	mov    rax,QWORD PTR [rip+0x6a96]        # 140010008 <vmcs>
   140009572:	48 8b 40 18          	mov    rax,QWORD PTR [rax+0x18]
   140009576:	88 45 ff             	mov    BYTE PTR [rbp-0x1],al
   140009579:	48 8b 05 88 6a 00 00 	mov    rax,QWORD PTR [rip+0x6a88]        # 140010008 <vmcs>
   140009580:	48 8b 40 20          	mov    rax,QWORD PTR [rax+0x20]
   140009584:	88 45 fe             	mov    BYTE PTR [rbp-0x2],al
   140009587:	48 8b 05 7a 6a 00 00 	mov    rax,QWORD PTR [rip+0x6a7a]        # 140010008 <vmcs>
   14000958e:	48 8b 40 28          	mov    rax,QWORD PTR [rax+0x28]
   140009592:	88 45 fd             	mov    BYTE PTR [rbp-0x3],al
   140009595:	48 8b 05 6c 6a 00 00 	mov    rax,QWORD PTR [rip+0x6a6c]        # 140010008 <vmcs>
   14000959c:	0f b6 55 fe          	movzx  edx,BYTE PTR [rbp-0x2]
   1400095a0:	48 63 d2             	movsxd rdx,edx
   1400095a3:	48 83 c2 22          	add    rdx,0x22
   1400095a7:	48 8b 44 d0 08       	mov    rax,QWORD PTR [rax+rdx*8+0x8]
   1400095ac:	48 89 45 f0          	mov    QWORD PTR [rbp-0x10],rax
   1400095b0:	48 8b 05 51 6a 00 00 	mov    rax,QWORD PTR [rip+0x6a51]        # 140010008 <vmcs>
   1400095b7:	0f b6 55 fd          	movzx  edx,BYTE PTR [rbp-0x3]
   1400095bb:	48 63 d2             	movsxd rdx,edx
   1400095be:	48 83 c2 22          	add    rdx,0x22
   1400095c2:	48 8b 44 d0 08       	mov    rax,QWORD PTR [rax+rdx*8+0x8]
   1400095c7:	48 89 45 e8          	mov    QWORD PTR [rbp-0x18],rax
   1400095cb:	48 8b 45 f0          	mov    rax,QWORD PTR [rbp-0x10]
   1400095cf:	48 99                	cqo
   1400095d1:	48 8b 4d e8          	mov    rcx,QWORD PTR [rbp-0x18]
   1400095d5:	bb 00 00 00 00       	mov    ebx,0x0
   1400095da:	49 89 d1             	mov    r9,rdx
   1400095dd:	4c 0f af c9          	imul   r9,rcx
   1400095e1:	49 89 d8             	mov    r8,rbx
   1400095e4:	4c 0f af c0          	imul   r8,rax
   1400095e8:	4d 01 c8             	add    r8,r9
   1400095eb:	48 f7 e1             	mul    rcx
   1400095ee:	49 8d 0c 10          	lea    rcx,[r8+rdx*1]
   1400095f2:	48 89 ca             	mov    rdx,rcx
   1400095f5:	48 89 45 d0          	mov    QWORD PTR [rbp-0x30],rax
   1400095f9:	48 89 55 d8          	mov    QWORD PTR [rbp-0x28],rdx
   1400095fd:	48 8b 45 d0          	mov    rax,QWORD PTR [rbp-0x30]
   140009601:	48 8b 55 d8          	mov    rdx,QWORD PTR [rbp-0x28]
   140009605:	48 89 d0             	mov    rax,rdx
   140009608:	48 89 c2             	mov    rdx,rax
   14000960b:	48 c1 fa 3f          	sar    rdx,0x3f
   14000960f:	48 8b 0d f2 69 00 00 	mov    rcx,QWORD PTR [rip+0x69f2]        # 140010008 <vmcs>
   140009616:	44 0f b6 45 ff       	movzx  r8d,BYTE PTR [rbp-0x1]
   14000961b:	48 89 c2             	mov    rdx,rax
   14000961e:	49 63 c0             	movsxd rax,r8d
   140009621:	48 83 c0 22          	add    rax,0x22
   140009625:	48 89 54 c1 08       	mov    QWORD PTR [rcx+rax*8+0x8],rdx
   14000962a:	90                   	nop
   14000962b:	48 83 c4 38          	add    rsp,0x38
   14000962f:	5b                   	pop    rbx
   140009630:	5d                   	pop    rbp
   140009631:	c3                   	ret

0000000140009632 <_ZN5rvm6410operations5rtype7rv_sltuEv>:
   140009632:	55                   	push   rbp
   140009633:	48 89 e5             	mov    rbp,rsp
   140009636:	48 83 ec 20          	sub    rsp,0x20
   14000963a:	c6 45 ff 00          	mov    BYTE PTR [rbp-0x1],0x0
   14000963e:	c6 45 fe 00          	mov    BYTE PTR [rbp-0x2],0x0
   140009642:	c6 45 fd 00          	mov    BYTE PTR [rbp-0x3],0x0
   140009646:	48 c7 45 f0 00 00 00 	mov    QWORD PTR [rbp-0x10],0x0
   14000964d:	00 
   14000964e:	48 c7 45 e8 00 00 00 	mov    QWORD PTR [rbp-0x18],0x0
   140009655:	00 
   140009656:	48 8b 05 ab 69 00 00 	mov    rax,QWORD PTR [rip+0x69ab]        # 140010008 <vmcs>
   14000965d:	48 8b 40 18          	mov    rax,QWORD PTR [rax+0x18]
   140009661:	88 45 ff             	mov    BYTE PTR [rbp-0x1],al
   140009664:	48 8b 05 9d 69 00 00 	mov    rax,QWORD PTR [rip+0x699d]        # 140010008 <vmcs>
   14000966b:	48 8b 40 20          	mov    rax,QWORD PTR [rax+0x20]
   14000966f:	88 45 fe             	mov    BYTE PTR [rbp-0x2],al
   140009672:	48 8b 05 8f 69 00 00 	mov    rax,QWORD PTR [rip+0x698f]        # 140010008 <vmcs>
   140009679:	48 8b 40 28          	mov    rax,QWORD PTR [rax+0x28]
   14000967d:	88 45 fd             	mov    BYTE PTR [rbp-0x3],al
   140009680:	48 8b 05 81 69 00 00 	mov    rax,QWORD PTR [rip+0x6981]        # 140010008 <vmcs>
   140009687:	0f b6 55 fe          	movzx  edx,BYTE PTR [rbp-0x2]
   14000968b:	48 63 d2             	movsxd rdx,edx
   14000968e:	48 83 c2 22          	add    rdx,0x22
   140009692:	48 8b 44 d0 08       	mov    rax,QWORD PTR [rax+rdx*8+0x8]
   140009697:	48 89 45 f0          	mov    QWORD PTR [rbp-0x10],rax
   14000969b:	48 8b 05 66 69 00 00 	mov    rax,QWORD PTR [rip+0x6966]        # 140010008 <vmcs>
   1400096a2:	0f b6 55 fd          	movzx  edx,BYTE PTR [rbp-0x3]
   1400096a6:	48 63 d2             	movsxd rdx,edx
   1400096a9:	48 83 c2 22          	add    rdx,0x22
   1400096ad:	48 8b 44 d0 08       	mov    rax,QWORD PTR [rax+rdx*8+0x8]
   1400096b2:	48 89 45 e8          	mov    QWORD PTR [rbp-0x18],rax
   1400096b6:	48 8b 45 f0          	mov    rax,QWORD PTR [rbp-0x10]
   1400096ba:	48 3b 45 e8          	cmp    rax,QWORD PTR [rbp-0x18]
   1400096be:	73 07                	jae    1400096c7 <_ZN5rvm6410operations5rtype7rv_sltuEv+0x95>
   1400096c0:	b9 01 00 00 00       	mov    ecx,0x1
   1400096c5:	eb 05                	jmp    1400096cc <_ZN5rvm6410operations5rtype7rv_sltuEv+0x9a>
   1400096c7:	b9 00 00 00 00       	mov    ecx,0x0
   1400096cc:	48 8b 05 35 69 00 00 	mov    rax,QWORD PTR [rip+0x6935]        # 140010008 <vmcs>
   1400096d3:	0f b6 55 ff          	movzx  edx,BYTE PTR [rbp-0x1]
   1400096d7:	48 63 d2             	movsxd rdx,edx
   1400096da:	48 83 c2 22          	add    rdx,0x22
   1400096de:	48 89 4c d0 08       	mov    QWORD PTR [rax+rdx*8+0x8],rcx
   1400096e3:	90                   	nop
   1400096e4:	48 83 c4 20          	add    rsp,0x20
   1400096e8:	5d                   	pop    rbp
   1400096e9:	c3                   	ret

00000001400096ea <_ZN5rvm6410operations5rtype8rv_mulhuEv>:
   1400096ea:	55                   	push   rbp
   1400096eb:	48 89 e5             	mov    rbp,rsp
   1400096ee:	48 83 ec 20          	sub    rsp,0x20
   1400096f2:	c6 45 ff 00          	mov    BYTE PTR [rbp-0x1],0x0
   1400096f6:	c6 45 fe 00          	mov    BYTE PTR [rbp-0x2],0x0
   1400096fa:	c6 45 fd 00          	mov    BYTE PTR [rbp-0x3],0x0
   1400096fe:	48 c7 45 f0 00 00 00 	mov    QWORD PTR [rbp-0x10],0x0
   140009705:	00 
   140009706:	48 c7 45 e8 00 00 00 	mov    QWORD PTR [rbp-0x18],0x0
   14000970d:	00 
   14000970e:	48 8b 05 f3 68 00 00 	mov    rax,QWORD PTR [rip+0x68f3]        # 140010008 <vmcs>
   140009715:	48 8b 40 18          	mov    rax,QWORD PTR [rax+0x18]
   140009719:	88 45 ff             	mov    BYTE PTR [rbp-0x1],al
   14000971c:	48 8b 05 e5 68 00 00 	mov    rax,QWORD PTR [rip+0x68e5]        # 140010008 <vmcs>
   140009723:	48 8b 40 20          	mov    rax,QWORD PTR [rax+0x20]
   140009727:	88 45 fe             	mov    BYTE PTR [rbp-0x2],al
   14000972a:	48 8b 05 d7 68 00 00 	mov    rax,QWORD PTR [rip+0x68d7]        # 140010008 <vmcs>
   140009731:	48 8b 40 28          	mov    rax,QWORD PTR [rax+0x28]
   140009735:	88 45 fd             	mov    BYTE PTR [rbp-0x3],al
   140009738:	48 8b 05 c9 68 00 00 	mov    rax,QWORD PTR [rip+0x68c9]        # 140010008 <vmcs>
   14000973f:	0f b6 55 fe          	movzx  edx,BYTE PTR [rbp-0x2]
   140009743:	48 63 d2             	movsxd rdx,edx
   140009746:	48 83 c2 22          	add    rdx,0x22
   14000974a:	48 8b 44 d0 08       	mov    rax,QWORD PTR [rax+rdx*8+0x8]
   14000974f:	48 89 45 f0          	mov    QWORD PTR [rbp-0x10],rax
   140009753:	48 8b 05 ae 68 00 00 	mov    rax,QWORD PTR [rip+0x68ae]        # 140010008 <vmcs>
   14000975a:	0f b6 55 fd          	movzx  edx,BYTE PTR [rbp-0x3]
   14000975e:	48 63 d2             	movsxd rdx,edx
   140009761:	48 83 c2 22          	add    rdx,0x22
   140009765:	48 8b 44 d0 08       	mov    rax,QWORD PTR [rax+rdx*8+0x8]
   14000976a:	48 89 45 e8          	mov    QWORD PTR [rbp-0x18],rax
   14000976e:	48 8b 45 f0          	mov    rax,QWORD PTR [rbp-0x10]
   140009772:	48 0f af 45 e8       	imul   rax,QWORD PTR [rbp-0x18]
   140009777:	48 89 45 e0          	mov    QWORD PTR [rbp-0x20],rax
   14000977b:	48 8b 05 86 68 00 00 	mov    rax,QWORD PTR [rip+0x6886]        # 140010008 <vmcs>
   140009782:	0f b6 55 ff          	movzx  edx,BYTE PTR [rbp-0x1]
   140009786:	48 8b 4d e0          	mov    rcx,QWORD PTR [rbp-0x20]
   14000978a:	48 c1 e9 20          	shr    rcx,0x20
   14000978e:	48 63 d2             	movsxd rdx,edx
   140009791:	48 83 c2 22          	add    rdx,0x22
   140009795:	48 89 4c d0 08       	mov    QWORD PTR [rax+rdx*8+0x8],rcx
   14000979a:	90                   	nop
   14000979b:	48 83 c4 20          	add    rsp,0x20
   14000979f:	5d                   	pop    rbp
   1400097a0:	c3                   	ret

00000001400097a1 <_ZN5rvm6410operations5rtype6rv_xorEv>:
   1400097a1:	55                   	push   rbp
   1400097a2:	48 89 e5             	mov    rbp,rsp
   1400097a5:	48 83 ec 20          	sub    rsp,0x20
   1400097a9:	c6 45 ff 00          	mov    BYTE PTR [rbp-0x1],0x0
   1400097ad:	c6 45 fe 00          	mov    BYTE PTR [rbp-0x2],0x0
   1400097b1:	c6 45 fd 00          	mov    BYTE PTR [rbp-0x3],0x0
   1400097b5:	48 c7 45 f0 00 00 00 	mov    QWORD PTR [rbp-0x10],0x0
   1400097bc:	00 
   1400097bd:	48 c7 45 e8 00 00 00 	mov    QWORD PTR [rbp-0x18],0x0
   1400097c4:	00 
   1400097c5:	48 8b 05 3c 68 00 00 	mov    rax,QWORD PTR [rip+0x683c]        # 140010008 <vmcs>
   1400097cc:	48 8b 40 18          	mov    rax,QWORD PTR [rax+0x18]
   1400097d0:	88 45 ff             	mov    BYTE PTR [rbp-0x1],al
   1400097d3:	48 8b 05 2e 68 00 00 	mov    rax,QWORD PTR [rip+0x682e]        # 140010008 <vmcs>
   1400097da:	48 8b 40 20          	mov    rax,QWORD PTR [rax+0x20]
   1400097de:	88 45 fe             	mov    BYTE PTR [rbp-0x2],al
   1400097e1:	48 8b 05 20 68 00 00 	mov    rax,QWORD PTR [rip+0x6820]        # 140010008 <vmcs>
   1400097e8:	48 8b 40 28          	mov    rax,QWORD PTR [rax+0x28]
   1400097ec:	88 45 fd             	mov    BYTE PTR [rbp-0x3],al
   1400097ef:	48 8b 05 12 68 00 00 	mov    rax,QWORD PTR [rip+0x6812]        # 140010008 <vmcs>
   1400097f6:	0f b6 55 fe          	movzx  edx,BYTE PTR [rbp-0x2]
   1400097fa:	48 63 d2             	movsxd rdx,edx
   1400097fd:	48 83 c2 22          	add    rdx,0x22
   140009801:	48 8b 44 d0 08       	mov    rax,QWORD PTR [rax+rdx*8+0x8]
   140009806:	48 89 45 f0          	mov    QWORD PTR [rbp-0x10],rax
   14000980a:	48 8b 05 f7 67 00 00 	mov    rax,QWORD PTR [rip+0x67f7]        # 140010008 <vmcs>
   140009811:	0f b6 55 fd          	movzx  edx,BYTE PTR [rbp-0x3]
   140009815:	48 63 d2             	movsxd rdx,edx
   140009818:	48 83 c2 22          	add    rdx,0x22
   14000981c:	48 8b 44 d0 08       	mov    rax,QWORD PTR [rax+rdx*8+0x8]
   140009821:	48 89 45 e8          	mov    QWORD PTR [rbp-0x18],rax
   140009825:	48 8b 05 dc 67 00 00 	mov    rax,QWORD PTR [rip+0x67dc]        # 140010008 <vmcs>
   14000982c:	0f b6 4d ff          	movzx  ecx,BYTE PTR [rbp-0x1]
   140009830:	48 8b 55 f0          	mov    rdx,QWORD PTR [rbp-0x10]
   140009834:	48 33 55 e8          	xor    rdx,QWORD PTR [rbp-0x18]
   140009838:	48 63 c9             	movsxd rcx,ecx
   14000983b:	48 83 c1 22          	add    rcx,0x22
   14000983f:	48 89 54 c8 08       	mov    QWORD PTR [rax+rcx*8+0x8],rdx
   140009844:	90                   	nop
   140009845:	48 83 c4 20          	add    rsp,0x20
   140009849:	5d                   	pop    rbp
   14000984a:	c3                   	ret

000000014000984b <_ZN5rvm6410operations5rtype6rv_divEv>:
   14000984b:	55                   	push   rbp
   14000984c:	48 89 e5             	mov    rbp,rsp
   14000984f:	48 83 ec 20          	sub    rsp,0x20
   140009853:	c6 45 ff 00          	mov    BYTE PTR [rbp-0x1],0x0
   140009857:	c6 45 fe 00          	mov    BYTE PTR [rbp-0x2],0x0
   14000985b:	c6 45 fd 00          	mov    BYTE PTR [rbp-0x3],0x0
   14000985f:	48 c7 45 f0 00 00 00 	mov    QWORD PTR [rbp-0x10],0x0
   140009866:	00 
   140009867:	48 c7 45 e8 00 00 00 	mov    QWORD PTR [rbp-0x18],0x0
   14000986e:	00 
   14000986f:	48 8b 05 92 67 00 00 	mov    rax,QWORD PTR [rip+0x6792]        # 140010008 <vmcs>
   140009876:	48 8b 40 18          	mov    rax,QWORD PTR [rax+0x18]
   14000987a:	88 45 ff             	mov    BYTE PTR [rbp-0x1],al
   14000987d:	48 8b 05 84 67 00 00 	mov    rax,QWORD PTR [rip+0x6784]        # 140010008 <vmcs>
   140009884:	48 8b 40 20          	mov    rax,QWORD PTR [rax+0x20]
   140009888:	88 45 fe             	mov    BYTE PTR [rbp-0x2],al
   14000988b:	48 8b 05 76 67 00 00 	mov    rax,QWORD PTR [rip+0x6776]        # 140010008 <vmcs>
   140009892:	48 8b 40 28          	mov    rax,QWORD PTR [rax+0x28]
   140009896:	88 45 fd             	mov    BYTE PTR [rbp-0x3],al
   140009899:	48 8b 05 68 67 00 00 	mov    rax,QWORD PTR [rip+0x6768]        # 140010008 <vmcs>
   1400098a0:	0f b6 55 fe          	movzx  edx,BYTE PTR [rbp-0x2]
   1400098a4:	48 63 d2             	movsxd rdx,edx
   1400098a7:	48 83 c2 22          	add    rdx,0x22
   1400098ab:	48 8b 44 d0 08       	mov    rax,QWORD PTR [rax+rdx*8+0x8]
   1400098b0:	48 89 45 f0          	mov    QWORD PTR [rbp-0x10],rax
   1400098b4:	48 8b 05 4d 67 00 00 	mov    rax,QWORD PTR [rip+0x674d]        # 140010008 <vmcs>
   1400098bb:	0f b6 55 fd          	movzx  edx,BYTE PTR [rbp-0x3]
   1400098bf:	48 63 d2             	movsxd rdx,edx
   1400098c2:	48 83 c2 22          	add    rdx,0x22
   1400098c6:	48 8b 44 d0 08       	mov    rax,QWORD PTR [rax+rdx*8+0x8]
   1400098cb:	48 89 45 e8          	mov    QWORD PTR [rbp-0x18],rax
   1400098cf:	48 8b 0d 32 67 00 00 	mov    rcx,QWORD PTR [rip+0x6732]        # 140010008 <vmcs>
   1400098d6:	44 0f b6 45 ff       	movzx  r8d,BYTE PTR [rbp-0x1]
   1400098db:	48 8b 45 f0          	mov    rax,QWORD PTR [rbp-0x10]
   1400098df:	ba 00 00 00 00       	mov    edx,0x0
   1400098e4:	48 f7 75 e8          	div    QWORD PTR [rbp-0x18]
   1400098e8:	48 89 c2             	mov    rdx,rax
   1400098eb:	49 63 c0             	movsxd rax,r8d
   1400098ee:	48 83 c0 22          	add    rax,0x22
   1400098f2:	48 89 54 c1 08       	mov    QWORD PTR [rcx+rax*8+0x8],rdx
   1400098f7:	90                   	nop
   1400098f8:	48 83 c4 20          	add    rsp,0x20
   1400098fc:	5d                   	pop    rbp
   1400098fd:	c3                   	ret

00000001400098fe <_ZN5rvm6410operations5rtype6rv_srlEv>:
   1400098fe:	55                   	push   rbp
   1400098ff:	48 89 e5             	mov    rbp,rsp
   140009902:	48 83 ec 20          	sub    rsp,0x20
   140009906:	c6 45 ff 00          	mov    BYTE PTR [rbp-0x1],0x0
   14000990a:	c6 45 fe 00          	mov    BYTE PTR [rbp-0x2],0x0
   14000990e:	c6 45 fd 00          	mov    BYTE PTR [rbp-0x3],0x0
   140009912:	48 c7 45 f0 00 00 00 	mov    QWORD PTR [rbp-0x10],0x0
   140009919:	00 
   14000991a:	c7 45 ec 00 00 00 00 	mov    DWORD PTR [rbp-0x14],0x0
   140009921:	48 8b 05 e0 66 00 00 	mov    rax,QWORD PTR [rip+0x66e0]        # 140010008 <vmcs>
   140009928:	48 8b 40 18          	mov    rax,QWORD PTR [rax+0x18]
   14000992c:	88 45 ff             	mov    BYTE PTR [rbp-0x1],al
   14000992f:	48 8b 05 d2 66 00 00 	mov    rax,QWORD PTR [rip+0x66d2]        # 140010008 <vmcs>
   140009936:	48 8b 40 20          	mov    rax,QWORD PTR [rax+0x20]
   14000993a:	88 45 fe             	mov    BYTE PTR [rbp-0x2],al
   14000993d:	48 8b 05 c4 66 00 00 	mov    rax,QWORD PTR [rip+0x66c4]        # 140010008 <vmcs>
   140009944:	48 8b 40 28          	mov    rax,QWORD PTR [rax+0x28]
   140009948:	88 45 fd             	mov    BYTE PTR [rbp-0x3],al
   14000994b:	48 8b 05 b6 66 00 00 	mov    rax,QWORD PTR [rip+0x66b6]        # 140010008 <vmcs>
   140009952:	0f b6 55 fe          	movzx  edx,BYTE PTR [rbp-0x2]
   140009956:	48 63 d2             	movsxd rdx,edx
   140009959:	48 83 c2 22          	add    rdx,0x22
   14000995d:	48 8b 44 d0 08       	mov    rax,QWORD PTR [rax+rdx*8+0x8]
   140009962:	48 89 45 f0          	mov    QWORD PTR [rbp-0x10],rax
   140009966:	48 8b 05 9b 66 00 00 	mov    rax,QWORD PTR [rip+0x669b]        # 140010008 <vmcs>
   14000996d:	0f b6 55 fd          	movzx  edx,BYTE PTR [rbp-0x3]
   140009971:	48 63 d2             	movsxd rdx,edx
   140009974:	48 83 c2 22          	add    rdx,0x22
   140009978:	48 8b 44 d0 08       	mov    rax,QWORD PTR [rax+rdx*8+0x8]
   14000997d:	89 45 ec             	mov    DWORD PTR [rbp-0x14],eax
   140009980:	8b 45 ec             	mov    eax,DWORD PTR [rbp-0x14]
   140009983:	83 e0 1f             	and    eax,0x1f
   140009986:	89 c1                	mov    ecx,eax
   140009988:	48 8b 05 79 66 00 00 	mov    rax,QWORD PTR [rip+0x6679]        # 140010008 <vmcs>
   14000998f:	0f b6 55 ff          	movzx  edx,BYTE PTR [rbp-0x1]
   140009993:	4c 8b 45 f0          	mov    r8,QWORD PTR [rbp-0x10]
   140009997:	49 d3 e8             	shr    r8,cl
   14000999a:	4c 89 c1             	mov    rcx,r8
   14000999d:	48 63 d2             	movsxd rdx,edx
   1400099a0:	48 83 c2 22          	add    rdx,0x22
   1400099a4:	48 89 4c d0 08       	mov    QWORD PTR [rax+rdx*8+0x8],rcx
   1400099a9:	90                   	nop
   1400099aa:	48 83 c4 20          	add    rsp,0x20
   1400099ae:	5d                   	pop    rbp
   1400099af:	c3                   	ret

00000001400099b0 <_ZN5rvm6410operations5rtype6rv_sraEv>:
   1400099b0:	55                   	push   rbp
   1400099b1:	48 89 e5             	mov    rbp,rsp
   1400099b4:	48 83 ec 20          	sub    rsp,0x20
   1400099b8:	c6 45 ff 00          	mov    BYTE PTR [rbp-0x1],0x0
   1400099bc:	c6 45 fe 00          	mov    BYTE PTR [rbp-0x2],0x0
   1400099c0:	c6 45 fd 00          	mov    BYTE PTR [rbp-0x3],0x0
   1400099c4:	48 c7 45 f0 00 00 00 	mov    QWORD PTR [rbp-0x10],0x0
   1400099cb:	00 
   1400099cc:	c7 45 ec 00 00 00 00 	mov    DWORD PTR [rbp-0x14],0x0
   1400099d3:	48 8b 05 2e 66 00 00 	mov    rax,QWORD PTR [rip+0x662e]        # 140010008 <vmcs>
   1400099da:	48 8b 40 18          	mov    rax,QWORD PTR [rax+0x18]
   1400099de:	88 45 ff             	mov    BYTE PTR [rbp-0x1],al
   1400099e1:	48 8b 05 20 66 00 00 	mov    rax,QWORD PTR [rip+0x6620]        # 140010008 <vmcs>
   1400099e8:	48 8b 40 20          	mov    rax,QWORD PTR [rax+0x20]
   1400099ec:	88 45 fe             	mov    BYTE PTR [rbp-0x2],al
   1400099ef:	48 8b 05 12 66 00 00 	mov    rax,QWORD PTR [rip+0x6612]        # 140010008 <vmcs>
   1400099f6:	48 8b 40 28          	mov    rax,QWORD PTR [rax+0x28]
   1400099fa:	88 45 fd             	mov    BYTE PTR [rbp-0x3],al
   1400099fd:	48 8b 05 04 66 00 00 	mov    rax,QWORD PTR [rip+0x6604]        # 140010008 <vmcs>
   140009a04:	0f b6 55 fe          	movzx  edx,BYTE PTR [rbp-0x2]
   140009a08:	48 63 d2             	movsxd rdx,edx
   140009a0b:	48 83 c2 22          	add    rdx,0x22
   140009a0f:	48 8b 44 d0 08       	mov    rax,QWORD PTR [rax+rdx*8+0x8]
   140009a14:	48 89 45 f0          	mov    QWORD PTR [rbp-0x10],rax
   140009a18:	48 8b 05 e9 65 00 00 	mov    rax,QWORD PTR [rip+0x65e9]        # 140010008 <vmcs>
   140009a1f:	0f b6 55 fd          	movzx  edx,BYTE PTR [rbp-0x3]
   140009a23:	48 63 d2             	movsxd rdx,edx
   140009a26:	48 83 c2 22          	add    rdx,0x22
   140009a2a:	48 8b 44 d0 08       	mov    rax,QWORD PTR [rax+rdx*8+0x8]
   140009a2f:	89 45 ec             	mov    DWORD PTR [rbp-0x14],eax
   140009a32:	8b 45 ec             	mov    eax,DWORD PTR [rbp-0x14]
   140009a35:	83 e0 1f             	and    eax,0x1f
   140009a38:	48 8b 55 f0          	mov    rdx,QWORD PTR [rbp-0x10]
   140009a3c:	89 c1                	mov    ecx,eax
   140009a3e:	48 d3 fa             	sar    rdx,cl
   140009a41:	48 89 d1             	mov    rcx,rdx
   140009a44:	48 8b 05 bd 65 00 00 	mov    rax,QWORD PTR [rip+0x65bd]        # 140010008 <vmcs>
   140009a4b:	0f b6 55 ff          	movzx  edx,BYTE PTR [rbp-0x1]
   140009a4f:	48 63 d2             	movsxd rdx,edx
   140009a52:	48 83 c2 22          	add    rdx,0x22
   140009a56:	48 89 4c d0 08       	mov    QWORD PTR [rax+rdx*8+0x8],rcx
   140009a5b:	90                   	nop
   140009a5c:	48 83 c4 20          	add    rsp,0x20
   140009a60:	5d                   	pop    rbp
   140009a61:	c3                   	ret

0000000140009a62 <_ZN5rvm6410operations5rtype7rv_divuEv>:
   140009a62:	55                   	push   rbp
   140009a63:	48 89 e5             	mov    rbp,rsp
   140009a66:	48 83 ec 20          	sub    rsp,0x20
   140009a6a:	c6 45 ff 00          	mov    BYTE PTR [rbp-0x1],0x0
   140009a6e:	c6 45 fe 00          	mov    BYTE PTR [rbp-0x2],0x0
   140009a72:	c6 45 fd 00          	mov    BYTE PTR [rbp-0x3],0x0
   140009a76:	48 c7 45 f0 00 00 00 	mov    QWORD PTR [rbp-0x10],0x0
   140009a7d:	00 
   140009a7e:	48 c7 45 e8 00 00 00 	mov    QWORD PTR [rbp-0x18],0x0
   140009a85:	00 
   140009a86:	48 8b 05 7b 65 00 00 	mov    rax,QWORD PTR [rip+0x657b]        # 140010008 <vmcs>
   140009a8d:	48 8b 40 18          	mov    rax,QWORD PTR [rax+0x18]
   140009a91:	88 45 ff             	mov    BYTE PTR [rbp-0x1],al
   140009a94:	48 8b 05 6d 65 00 00 	mov    rax,QWORD PTR [rip+0x656d]        # 140010008 <vmcs>
   140009a9b:	48 8b 40 20          	mov    rax,QWORD PTR [rax+0x20]
   140009a9f:	88 45 fe             	mov    BYTE PTR [rbp-0x2],al
   140009aa2:	48 8b 05 5f 65 00 00 	mov    rax,QWORD PTR [rip+0x655f]        # 140010008 <vmcs>
   140009aa9:	48 8b 40 28          	mov    rax,QWORD PTR [rax+0x28]
   140009aad:	88 45 fd             	mov    BYTE PTR [rbp-0x3],al
   140009ab0:	48 8b 05 51 65 00 00 	mov    rax,QWORD PTR [rip+0x6551]        # 140010008 <vmcs>
   140009ab7:	0f b6 55 fe          	movzx  edx,BYTE PTR [rbp-0x2]
   140009abb:	48 63 d2             	movsxd rdx,edx
   140009abe:	48 83 c2 22          	add    rdx,0x22
   140009ac2:	48 8b 44 d0 08       	mov    rax,QWORD PTR [rax+rdx*8+0x8]
   140009ac7:	48 89 45 f0          	mov    QWORD PTR [rbp-0x10],rax
   140009acb:	48 8b 05 36 65 00 00 	mov    rax,QWORD PTR [rip+0x6536]        # 140010008 <vmcs>
   140009ad2:	0f b6 55 fd          	movzx  edx,BYTE PTR [rbp-0x3]
   140009ad6:	48 63 d2             	movsxd rdx,edx
   140009ad9:	48 83 c2 22          	add    rdx,0x22
   140009add:	48 8b 44 d0 08       	mov    rax,QWORD PTR [rax+rdx*8+0x8]
   140009ae2:	48 89 45 e8          	mov    QWORD PTR [rbp-0x18],rax
   140009ae6:	48 83 7d e8 00       	cmp    QWORD PTR [rbp-0x18],0x0
   140009aeb:	75 1d                	jne    140009b0a <_ZN5rvm6410operations5rtype7rv_divuEv+0xa8>
   140009aed:	48 8b 05 14 65 00 00 	mov    rax,QWORD PTR [rip+0x6514]        # 140010008 <vmcs>
   140009af4:	0f b6 55 ff          	movzx  edx,BYTE PTR [rbp-0x1]
   140009af8:	48 63 d2             	movsxd rdx,edx
   140009afb:	48 83 c2 22          	add    rdx,0x22
   140009aff:	48 c7 44 d0 08 00 00 	mov    QWORD PTR [rax+rdx*8+0x8],0x0
   140009b06:	00 00 
   140009b08:	eb 28                	jmp    140009b32 <_ZN5rvm6410operations5rtype7rv_divuEv+0xd0>
   140009b0a:	48 8b 0d f7 64 00 00 	mov    rcx,QWORD PTR [rip+0x64f7]        # 140010008 <vmcs>
   140009b11:	44 0f b6 45 ff       	movzx  r8d,BYTE PTR [rbp-0x1]
   140009b16:	48 8b 45 f0          	mov    rax,QWORD PTR [rbp-0x10]
   140009b1a:	ba 00 00 00 00       	mov    edx,0x0
   140009b1f:	48 f7 75 e8          	div    QWORD PTR [rbp-0x18]
   140009b23:	48 89 c2             	mov    rdx,rax
   140009b26:	49 63 c0             	movsxd rax,r8d
   140009b29:	48 83 c0 22          	add    rax,0x22
   140009b2d:	48 89 54 c1 08       	mov    QWORD PTR [rcx+rax*8+0x8],rdx
   140009b32:	90                   	nop
   140009b33:	48 83 c4 20          	add    rsp,0x20
   140009b37:	5d                   	pop    rbp
   140009b38:	c3                   	ret

0000000140009b39 <_ZN5rvm6410operations5rtype5rv_orEv>:
   140009b39:	55                   	push   rbp
   140009b3a:	48 89 e5             	mov    rbp,rsp
   140009b3d:	48 83 ec 20          	sub    rsp,0x20
   140009b41:	c6 45 ff 00          	mov    BYTE PTR [rbp-0x1],0x0
   140009b45:	c6 45 fe 00          	mov    BYTE PTR [rbp-0x2],0x0
   140009b49:	c6 45 fd 00          	mov    BYTE PTR [rbp-0x3],0x0
   140009b4d:	48 c7 45 f0 00 00 00 	mov    QWORD PTR [rbp-0x10],0x0
   140009b54:	00 
   140009b55:	48 c7 45 e8 00 00 00 	mov    QWORD PTR [rbp-0x18],0x0
   140009b5c:	00 
   140009b5d:	48 8b 05 a4 64 00 00 	mov    rax,QWORD PTR [rip+0x64a4]        # 140010008 <vmcs>
   140009b64:	48 8b 40 18          	mov    rax,QWORD PTR [rax+0x18]
   140009b68:	88 45 ff             	mov    BYTE PTR [rbp-0x1],al
   140009b6b:	48 8b 05 96 64 00 00 	mov    rax,QWORD PTR [rip+0x6496]        # 140010008 <vmcs>
   140009b72:	48 8b 40 20          	mov    rax,QWORD PTR [rax+0x20]
   140009b76:	88 45 fe             	mov    BYTE PTR [rbp-0x2],al
   140009b79:	48 8b 05 88 64 00 00 	mov    rax,QWORD PTR [rip+0x6488]        # 140010008 <vmcs>
   140009b80:	48 8b 40 28          	mov    rax,QWORD PTR [rax+0x28]
   140009b84:	88 45 fd             	mov    BYTE PTR [rbp-0x3],al
   140009b87:	48 8b 05 7a 64 00 00 	mov    rax,QWORD PTR [rip+0x647a]        # 140010008 <vmcs>
   140009b8e:	48 8b 55 f0          	mov    rdx,QWORD PTR [rbp-0x10]
   140009b92:	48 83 c2 22          	add    rdx,0x22
   140009b96:	48 8b 44 d0 08       	mov    rax,QWORD PTR [rax+rdx*8+0x8]
   140009b9b:	88 45 fe             	mov    BYTE PTR [rbp-0x2],al
   140009b9e:	48 8b 05 63 64 00 00 	mov    rax,QWORD PTR [rip+0x6463]        # 140010008 <vmcs>
   140009ba5:	48 8b 55 e8          	mov    rdx,QWORD PTR [rbp-0x18]
   140009ba9:	48 83 c2 22          	add    rdx,0x22
   140009bad:	48 8b 44 d0 08       	mov    rax,QWORD PTR [rax+rdx*8+0x8]
   140009bb2:	88 45 fd             	mov    BYTE PTR [rbp-0x3],al
   140009bb5:	48 8b 45 f0          	mov    rax,QWORD PTR [rbp-0x10]
   140009bb9:	48 0b 45 e8          	or     rax,QWORD PTR [rbp-0x18]
   140009bbd:	48 89 c1             	mov    rcx,rax
   140009bc0:	48 8b 05 41 64 00 00 	mov    rax,QWORD PTR [rip+0x6441]        # 140010008 <vmcs>
   140009bc7:	0f b6 55 ff          	movzx  edx,BYTE PTR [rbp-0x1]
   140009bcb:	48 63 d2             	movsxd rdx,edx
   140009bce:	48 83 c2 22          	add    rdx,0x22
   140009bd2:	48 89 4c d0 08       	mov    QWORD PTR [rax+rdx*8+0x8],rcx
   140009bd7:	90                   	nop
   140009bd8:	48 83 c4 20          	add    rsp,0x20
   140009bdc:	5d                   	pop    rbp
   140009bdd:	c3                   	ret

0000000140009bde <_ZN5rvm6410operations5rtype6rv_remEv>:
   140009bde:	55                   	push   rbp
   140009bdf:	48 89 e5             	mov    rbp,rsp
   140009be2:	48 83 ec 20          	sub    rsp,0x20
   140009be6:	c6 45 ff 00          	mov    BYTE PTR [rbp-0x1],0x0
   140009bea:	c6 45 fe 00          	mov    BYTE PTR [rbp-0x2],0x0
   140009bee:	c6 45 fd 00          	mov    BYTE PTR [rbp-0x3],0x0
   140009bf2:	48 c7 45 f0 00 00 00 	mov    QWORD PTR [rbp-0x10],0x0
   140009bf9:	00 
   140009bfa:	48 c7 45 e8 00 00 00 	mov    QWORD PTR [rbp-0x18],0x0
   140009c01:	00 
   140009c02:	48 8b 05 ff 63 00 00 	mov    rax,QWORD PTR [rip+0x63ff]        # 140010008 <vmcs>
   140009c09:	48 8b 40 18          	mov    rax,QWORD PTR [rax+0x18]
   140009c0d:	88 45 ff             	mov    BYTE PTR [rbp-0x1],al
   140009c10:	48 8b 05 f1 63 00 00 	mov    rax,QWORD PTR [rip+0x63f1]        # 140010008 <vmcs>
   140009c17:	48 8b 40 20          	mov    rax,QWORD PTR [rax+0x20]
   140009c1b:	88 45 fe             	mov    BYTE PTR [rbp-0x2],al
   140009c1e:	48 8b 05 e3 63 00 00 	mov    rax,QWORD PTR [rip+0x63e3]        # 140010008 <vmcs>
   140009c25:	48 8b 40 28          	mov    rax,QWORD PTR [rax+0x28]
   140009c29:	88 45 fd             	mov    BYTE PTR [rbp-0x3],al
   140009c2c:	48 8b 05 d5 63 00 00 	mov    rax,QWORD PTR [rip+0x63d5]        # 140010008 <vmcs>
   140009c33:	0f b6 55 fe          	movzx  edx,BYTE PTR [rbp-0x2]
   140009c37:	48 63 d2             	movsxd rdx,edx
   140009c3a:	48 83 c2 22          	add    rdx,0x22
   140009c3e:	48 8b 44 d0 08       	mov    rax,QWORD PTR [rax+rdx*8+0x8]
   140009c43:	48 89 45 f0          	mov    QWORD PTR [rbp-0x10],rax
   140009c47:	48 8b 05 ba 63 00 00 	mov    rax,QWORD PTR [rip+0x63ba]        # 140010008 <vmcs>
   140009c4e:	0f b6 55 fd          	movzx  edx,BYTE PTR [rbp-0x3]
   140009c52:	48 63 d2             	movsxd rdx,edx
   140009c55:	48 83 c2 22          	add    rdx,0x22
   140009c59:	48 8b 44 d0 08       	mov    rax,QWORD PTR [rax+rdx*8+0x8]
   140009c5e:	48 89 45 e8          	mov    QWORD PTR [rbp-0x18],rax
   140009c62:	48 83 7d e8 00       	cmp    QWORD PTR [rbp-0x18],0x0
   140009c67:	75 1d                	jne    140009c86 <_ZN5rvm6410operations5rtype6rv_remEv+0xa8>
   140009c69:	48 8b 05 98 63 00 00 	mov    rax,QWORD PTR [rip+0x6398]        # 140010008 <vmcs>
   140009c70:	0f b6 55 ff          	movzx  edx,BYTE PTR [rbp-0x1]
   140009c74:	48 63 d2             	movsxd rdx,edx
   140009c77:	48 83 c2 22          	add    rdx,0x22
   140009c7b:	48 c7 44 d0 08 00 00 	mov    QWORD PTR [rax+rdx*8+0x8],0x0
   140009c82:	00 00 
   140009c84:	eb 24                	jmp    140009caa <_ZN5rvm6410operations5rtype6rv_remEv+0xcc>
   140009c86:	48 8b 45 f0          	mov    rax,QWORD PTR [rbp-0x10]
   140009c8a:	48 99                	cqo
   140009c8c:	48 f7 7d e8          	idiv   QWORD PTR [rbp-0x18]
   140009c90:	48 89 d1             	mov    rcx,rdx
   140009c93:	48 8b 05 6e 63 00 00 	mov    rax,QWORD PTR [rip+0x636e]        # 140010008 <vmcs>
   140009c9a:	0f b6 55 ff          	movzx  edx,BYTE PTR [rbp-0x1]
   140009c9e:	48 63 d2             	movsxd rdx,edx
   140009ca1:	48 83 c2 22          	add    rdx,0x22
   140009ca5:	48 89 4c d0 08       	mov    QWORD PTR [rax+rdx*8+0x8],rcx
   140009caa:	90                   	nop
   140009cab:	48 83 c4 20          	add    rsp,0x20
   140009caf:	5d                   	pop    rbp
   140009cb0:	c3                   	ret

0000000140009cb1 <_ZN5rvm6410operations5rtype6rv_andEv>:
   140009cb1:	55                   	push   rbp
   140009cb2:	48 89 e5             	mov    rbp,rsp
   140009cb5:	48 83 ec 20          	sub    rsp,0x20
   140009cb9:	c6 45 ff 00          	mov    BYTE PTR [rbp-0x1],0x0
   140009cbd:	c6 45 fe 00          	mov    BYTE PTR [rbp-0x2],0x0
   140009cc1:	c6 45 fd 00          	mov    BYTE PTR [rbp-0x3],0x0
   140009cc5:	48 c7 45 f0 00 00 00 	mov    QWORD PTR [rbp-0x10],0x0
   140009ccc:	00 
   140009ccd:	48 c7 45 e8 00 00 00 	mov    QWORD PTR [rbp-0x18],0x0
   140009cd4:	00 
   140009cd5:	48 8b 05 2c 63 00 00 	mov    rax,QWORD PTR [rip+0x632c]        # 140010008 <vmcs>
   140009cdc:	48 8b 40 18          	mov    rax,QWORD PTR [rax+0x18]
   140009ce0:	88 45 ff             	mov    BYTE PTR [rbp-0x1],al
   140009ce3:	48 8b 05 1e 63 00 00 	mov    rax,QWORD PTR [rip+0x631e]        # 140010008 <vmcs>
   140009cea:	48 8b 40 20          	mov    rax,QWORD PTR [rax+0x20]
   140009cee:	88 45 fe             	mov    BYTE PTR [rbp-0x2],al
   140009cf1:	48 8b 05 10 63 00 00 	mov    rax,QWORD PTR [rip+0x6310]        # 140010008 <vmcs>
   140009cf8:	48 8b 40 28          	mov    rax,QWORD PTR [rax+0x28]
   140009cfc:	88 45 fd             	mov    BYTE PTR [rbp-0x3],al
   140009cff:	48 8b 05 02 63 00 00 	mov    rax,QWORD PTR [rip+0x6302]        # 140010008 <vmcs>
   140009d06:	0f b6 55 fe          	movzx  edx,BYTE PTR [rbp-0x2]
   140009d0a:	48 63 d2             	movsxd rdx,edx
   140009d0d:	48 83 c2 22          	add    rdx,0x22
   140009d11:	48 8b 44 d0 08       	mov    rax,QWORD PTR [rax+rdx*8+0x8]
   140009d16:	48 89 45 f0          	mov    QWORD PTR [rbp-0x10],rax
   140009d1a:	48 8b 05 e7 62 00 00 	mov    rax,QWORD PTR [rip+0x62e7]        # 140010008 <vmcs>
   140009d21:	0f b6 55 fd          	movzx  edx,BYTE PTR [rbp-0x3]
   140009d25:	48 63 d2             	movsxd rdx,edx
   140009d28:	48 83 c2 22          	add    rdx,0x22
   140009d2c:	48 8b 44 d0 08       	mov    rax,QWORD PTR [rax+rdx*8+0x8]
   140009d31:	48 89 45 e8          	mov    QWORD PTR [rbp-0x18],rax
   140009d35:	48 8b 05 cc 62 00 00 	mov    rax,QWORD PTR [rip+0x62cc]        # 140010008 <vmcs>
   140009d3c:	0f b6 4d ff          	movzx  ecx,BYTE PTR [rbp-0x1]
   140009d40:	48 8b 55 f0          	mov    rdx,QWORD PTR [rbp-0x10]
   140009d44:	48 23 55 e8          	and    rdx,QWORD PTR [rbp-0x18]
   140009d48:	48 63 c9             	movsxd rcx,ecx
   140009d4b:	48 83 c1 22          	add    rcx,0x22
   140009d4f:	48 89 54 c8 08       	mov    QWORD PTR [rax+rcx*8+0x8],rdx
   140009d54:	90                   	nop
   140009d55:	48 83 c4 20          	add    rsp,0x20
   140009d59:	5d                   	pop    rbp
   140009d5a:	c3                   	ret

0000000140009d5b <_ZN5rvm6410operations5rtype7rv_remuEv>:
   140009d5b:	55                   	push   rbp
   140009d5c:	48 89 e5             	mov    rbp,rsp
   140009d5f:	48 83 ec 20          	sub    rsp,0x20
   140009d63:	c6 45 ff 00          	mov    BYTE PTR [rbp-0x1],0x0
   140009d67:	c6 45 fe 00          	mov    BYTE PTR [rbp-0x2],0x0
   140009d6b:	c6 45 fd 00          	mov    BYTE PTR [rbp-0x3],0x0
   140009d6f:	48 c7 45 f0 00 00 00 	mov    QWORD PTR [rbp-0x10],0x0
   140009d76:	00 
   140009d77:	48 c7 45 e8 00 00 00 	mov    QWORD PTR [rbp-0x18],0x0
   140009d7e:	00 
   140009d7f:	48 8b 05 82 62 00 00 	mov    rax,QWORD PTR [rip+0x6282]        # 140010008 <vmcs>
   140009d86:	48 8b 40 18          	mov    rax,QWORD PTR [rax+0x18]
   140009d8a:	88 45 ff             	mov    BYTE PTR [rbp-0x1],al
   140009d8d:	48 8b 05 74 62 00 00 	mov    rax,QWORD PTR [rip+0x6274]        # 140010008 <vmcs>
   140009d94:	48 8b 40 20          	mov    rax,QWORD PTR [rax+0x20]
   140009d98:	88 45 fe             	mov    BYTE PTR [rbp-0x2],al
   140009d9b:	48 8b 05 66 62 00 00 	mov    rax,QWORD PTR [rip+0x6266]        # 140010008 <vmcs>
   140009da2:	48 8b 40 28          	mov    rax,QWORD PTR [rax+0x28]
   140009da6:	88 45 fd             	mov    BYTE PTR [rbp-0x3],al
   140009da9:	48 8b 05 58 62 00 00 	mov    rax,QWORD PTR [rip+0x6258]        # 140010008 <vmcs>
   140009db0:	0f b6 55 fe          	movzx  edx,BYTE PTR [rbp-0x2]
   140009db4:	48 63 d2             	movsxd rdx,edx
   140009db7:	48 83 c2 22          	add    rdx,0x22
   140009dbb:	48 8b 44 d0 08       	mov    rax,QWORD PTR [rax+rdx*8+0x8]
   140009dc0:	48 89 45 f0          	mov    QWORD PTR [rbp-0x10],rax
   140009dc4:	48 8b 05 3d 62 00 00 	mov    rax,QWORD PTR [rip+0x623d]        # 140010008 <vmcs>
   140009dcb:	0f b6 55 fd          	movzx  edx,BYTE PTR [rbp-0x3]
   140009dcf:	48 63 d2             	movsxd rdx,edx
   140009dd2:	48 83 c2 22          	add    rdx,0x22
   140009dd6:	48 8b 44 d0 08       	mov    rax,QWORD PTR [rax+rdx*8+0x8]
   140009ddb:	48 89 45 e8          	mov    QWORD PTR [rbp-0x18],rax
   140009ddf:	48 83 7d e8 00       	cmp    QWORD PTR [rbp-0x18],0x0
   140009de4:	75 1d                	jne    140009e03 <_ZN5rvm6410operations5rtype7rv_remuEv+0xa8>
   140009de6:	48 8b 05 1b 62 00 00 	mov    rax,QWORD PTR [rip+0x621b]        # 140010008 <vmcs>
   140009ded:	0f b6 55 ff          	movzx  edx,BYTE PTR [rbp-0x1]
   140009df1:	48 63 d2             	movsxd rdx,edx
   140009df4:	48 83 c2 22          	add    rdx,0x22
   140009df8:	48 c7 44 d0 08 00 00 	mov    QWORD PTR [rax+rdx*8+0x8],0x0
   140009dff:	00 00 
   140009e01:	eb 25                	jmp    140009e28 <_ZN5rvm6410operations5rtype7rv_remuEv+0xcd>
   140009e03:	48 8b 0d fe 61 00 00 	mov    rcx,QWORD PTR [rip+0x61fe]        # 140010008 <vmcs>
   140009e0a:	44 0f b6 45 ff       	movzx  r8d,BYTE PTR [rbp-0x1]
   140009e0f:	48 8b 45 f0          	mov    rax,QWORD PTR [rbp-0x10]
   140009e13:	ba 00 00 00 00       	mov    edx,0x0
   140009e18:	48 f7 75 e8          	div    QWORD PTR [rbp-0x18]
   140009e1c:	49 63 c0             	movsxd rax,r8d
   140009e1f:	48 83 c0 22          	add    rax,0x22
   140009e23:	48 89 54 c1 08       	mov    QWORD PTR [rcx+rax*8+0x8],rdx
   140009e28:	90                   	nop
   140009e29:	48 83 c4 20          	add    rsp,0x20
   140009e2d:	5d                   	pop    rbp
   140009e2e:	c3                   	ret

0000000140009e2f <_ZN5rvm6410operations5rtype12rv_amoswap_dEv>:
   140009e2f:	55                   	push   rbp
   140009e30:	48 89 e5             	mov    rbp,rsp
   140009e33:	48 83 ec 40          	sub    rsp,0x40
   140009e37:	c6 45 ff 00          	mov    BYTE PTR [rbp-0x1],0x0
   140009e3b:	c6 45 fe 00          	mov    BYTE PTR [rbp-0x2],0x0
   140009e3f:	c6 45 fd 00          	mov    BYTE PTR [rbp-0x3],0x0
   140009e43:	48 c7 45 f0 00 00 00 	mov    QWORD PTR [rbp-0x10],0x0
   140009e4a:	00 
   140009e4b:	48 c7 45 e8 00 00 00 	mov    QWORD PTR [rbp-0x18],0x0
   140009e52:	00 
   140009e53:	48 c7 45 e0 00 00 00 	mov    QWORD PTR [rbp-0x20],0x0
   140009e5a:	00 
   140009e5b:	48 8b 05 a6 61 00 00 	mov    rax,QWORD PTR [rip+0x61a6]        # 140010008 <vmcs>
   140009e62:	48 8b 40 18          	mov    rax,QWORD PTR [rax+0x18]
   140009e66:	88 45 ff             	mov    BYTE PTR [rbp-0x1],al
   140009e69:	48 8b 05 98 61 00 00 	mov    rax,QWORD PTR [rip+0x6198]        # 140010008 <vmcs>
   140009e70:	48 8b 40 20          	mov    rax,QWORD PTR [rax+0x20]
   140009e74:	88 45 fe             	mov    BYTE PTR [rbp-0x2],al
   140009e77:	48 8b 05 8a 61 00 00 	mov    rax,QWORD PTR [rip+0x618a]        # 140010008 <vmcs>
   140009e7e:	48 8b 40 28          	mov    rax,QWORD PTR [rax+0x28]
   140009e82:	88 45 fd             	mov    BYTE PTR [rbp-0x3],al
   140009e85:	48 8b 05 7c 61 00 00 	mov    rax,QWORD PTR [rip+0x617c]        # 140010008 <vmcs>
   140009e8c:	0f b6 55 fe          	movzx  edx,BYTE PTR [rbp-0x2]
   140009e90:	48 63 d2             	movsxd rdx,edx
   140009e93:	48 83 c2 22          	add    rdx,0x22
   140009e97:	48 8b 44 d0 08       	mov    rax,QWORD PTR [rax+rdx*8+0x8]
   140009e9c:	48 89 45 f0          	mov    QWORD PTR [rbp-0x10],rax
   140009ea0:	48 8b 05 61 61 00 00 	mov    rax,QWORD PTR [rip+0x6161]        # 140010008 <vmcs>
   140009ea7:	0f b6 55 fd          	movzx  edx,BYTE PTR [rbp-0x3]
   140009eab:	48 63 d2             	movsxd rdx,edx
   140009eae:	48 83 c2 22          	add    rdx,0x22
   140009eb2:	48 8b 44 d0 08       	mov    rax,QWORD PTR [rax+rdx*8+0x8]
   140009eb7:	48 89 45 e0          	mov    QWORD PTR [rbp-0x20],rax
   140009ebb:	48 8b 05 3e 61 00 00 	mov    rax,QWORD PTR [rip+0x613e]        # 140010000 <__data_start__>
   140009ec2:	4c 8b 40 30          	mov    r8,QWORD PTR [rax+0x30]
   140009ec6:	48 8b 05 43 61 00 00 	mov    rax,QWORD PTR [rip+0x6143]        # 140010010 <vmcs_mutex>
   140009ecd:	ba ff ff ff ff       	mov    edx,0xffffffff
   140009ed2:	48 89 c1             	mov    rcx,rax
   140009ed5:	41 ff d0             	call   r8
   140009ed8:	48 8b 45 f0          	mov    rax,QWORD PTR [rbp-0x10]
   140009edc:	48 8b 00             	mov    rax,QWORD PTR [rax]
   140009edf:	48 89 45 e8          	mov    QWORD PTR [rbp-0x18],rax
   140009ee3:	48 8b 45 f0          	mov    rax,QWORD PTR [rbp-0x10]
   140009ee7:	48 8b 55 e0          	mov    rdx,QWORD PTR [rbp-0x20]
   140009eeb:	48 89 10             	mov    QWORD PTR [rax],rdx
   140009eee:	48 8b 05 13 61 00 00 	mov    rax,QWORD PTR [rip+0x6113]        # 140010008 <vmcs>
   140009ef5:	0f b6 4d ff          	movzx  ecx,BYTE PTR [rbp-0x1]
   140009ef9:	48 8b 55 e8          	mov    rdx,QWORD PTR [rbp-0x18]
   140009efd:	48 63 c9             	movsxd rcx,ecx
   140009f00:	48 83 c1 22          	add    rcx,0x22
   140009f04:	48 89 54 c8 08       	mov    QWORD PTR [rax+rcx*8+0x8],rdx
   140009f09:	48 8b 05 f0 60 00 00 	mov    rax,QWORD PTR [rip+0x60f0]        # 140010000 <__data_start__>
   140009f10:	48 8b 50 40          	mov    rdx,QWORD PTR [rax+0x40]
   140009f14:	48 8b 05 f5 60 00 00 	mov    rax,QWORD PTR [rip+0x60f5]        # 140010010 <vmcs_mutex>
   140009f1b:	48 89 c1             	mov    rcx,rax
   140009f1e:	ff d2                	call   rdx
   140009f20:	90                   	nop
   140009f21:	48 83 c4 40          	add    rsp,0x40
   140009f25:	5d                   	pop    rbp
   140009f26:	c3                   	ret

0000000140009f27 <_ZN5rvm6410operations5rtype11rv_amoadd_dEv>:
   140009f27:	55                   	push   rbp
   140009f28:	48 89 e5             	mov    rbp,rsp
   140009f2b:	48 83 ec 40          	sub    rsp,0x40
   140009f2f:	c6 45 ff 00          	mov    BYTE PTR [rbp-0x1],0x0
   140009f33:	c6 45 fe 00          	mov    BYTE PTR [rbp-0x2],0x0
   140009f37:	c6 45 fd 00          	mov    BYTE PTR [rbp-0x3],0x0
   140009f3b:	48 c7 45 f0 00 00 00 	mov    QWORD PTR [rbp-0x10],0x0
   140009f42:	00 
   140009f43:	48 c7 45 e8 00 00 00 	mov    QWORD PTR [rbp-0x18],0x0
   140009f4a:	00 
   140009f4b:	48 c7 45 e0 00 00 00 	mov    QWORD PTR [rbp-0x20],0x0
   140009f52:	00 
   140009f53:	48 8b 05 ae 60 00 00 	mov    rax,QWORD PTR [rip+0x60ae]        # 140010008 <vmcs>
   140009f5a:	48 8b 40 18          	mov    rax,QWORD PTR [rax+0x18]
   140009f5e:	88 45 ff             	mov    BYTE PTR [rbp-0x1],al
   140009f61:	48 8b 05 a0 60 00 00 	mov    rax,QWORD PTR [rip+0x60a0]        # 140010008 <vmcs>
   140009f68:	48 8b 40 20          	mov    rax,QWORD PTR [rax+0x20]
   140009f6c:	88 45 fe             	mov    BYTE PTR [rbp-0x2],al
   140009f6f:	48 8b 05 92 60 00 00 	mov    rax,QWORD PTR [rip+0x6092]        # 140010008 <vmcs>
   140009f76:	48 8b 40 28          	mov    rax,QWORD PTR [rax+0x28]
   140009f7a:	88 45 fd             	mov    BYTE PTR [rbp-0x3],al
   140009f7d:	48 8b 05 84 60 00 00 	mov    rax,QWORD PTR [rip+0x6084]        # 140010008 <vmcs>
   140009f84:	0f b6 55 fe          	movzx  edx,BYTE PTR [rbp-0x2]
   140009f88:	48 63 d2             	movsxd rdx,edx
   140009f8b:	48 83 c2 22          	add    rdx,0x22
   140009f8f:	48 8b 44 d0 08       	mov    rax,QWORD PTR [rax+rdx*8+0x8]
   140009f94:	48 89 45 f0          	mov    QWORD PTR [rbp-0x10],rax
   140009f98:	48 8b 05 69 60 00 00 	mov    rax,QWORD PTR [rip+0x6069]        # 140010008 <vmcs>
   140009f9f:	0f b6 55 fd          	movzx  edx,BYTE PTR [rbp-0x3]
   140009fa3:	48 63 d2             	movsxd rdx,edx
   140009fa6:	48 83 c2 22          	add    rdx,0x22
   140009faa:	48 8b 44 d0 08       	mov    rax,QWORD PTR [rax+rdx*8+0x8]
   140009faf:	48 89 45 e0          	mov    QWORD PTR [rbp-0x20],rax
   140009fb3:	48 8b 05 46 60 00 00 	mov    rax,QWORD PTR [rip+0x6046]        # 140010000 <__data_start__>
   140009fba:	4c 8b 40 30          	mov    r8,QWORD PTR [rax+0x30]
   140009fbe:	48 8b 05 4b 60 00 00 	mov    rax,QWORD PTR [rip+0x604b]        # 140010010 <vmcs_mutex>
   140009fc5:	ba ff ff ff ff       	mov    edx,0xffffffff
   140009fca:	48 89 c1             	mov    rcx,rax
   140009fcd:	41 ff d0             	call   r8
   140009fd0:	48 8b 45 f0          	mov    rax,QWORD PTR [rbp-0x10]
   140009fd4:	48 8b 00             	mov    rax,QWORD PTR [rax]
   140009fd7:	48 89 45 e8          	mov    QWORD PTR [rbp-0x18],rax
   140009fdb:	48 8b 45 f0          	mov    rax,QWORD PTR [rbp-0x10]
   140009fdf:	48 8b 4d e8          	mov    rcx,QWORD PTR [rbp-0x18]
   140009fe3:	48 8b 55 e0          	mov    rdx,QWORD PTR [rbp-0x20]
   140009fe7:	48 01 ca             	add    rdx,rcx
   140009fea:	48 89 10             	mov    QWORD PTR [rax],rdx
   140009fed:	48 8b 05 14 60 00 00 	mov    rax,QWORD PTR [rip+0x6014]        # 140010008 <vmcs>
   140009ff4:	0f b6 4d ff          	movzx  ecx,BYTE PTR [rbp-0x1]
   140009ff8:	48 8b 55 e8          	mov    rdx,QWORD PTR [rbp-0x18]
   140009ffc:	48 63 c9             	movsxd rcx,ecx
   140009fff:	48 83 c1 22          	add    rcx,0x22
   14000a003:	48 89 54 c8 08       	mov    QWORD PTR [rax+rcx*8+0x8],rdx
   14000a008:	48 8b 05 f1 5f 00 00 	mov    rax,QWORD PTR [rip+0x5ff1]        # 140010000 <__data_start__>
   14000a00f:	48 8b 50 40          	mov    rdx,QWORD PTR [rax+0x40]
   14000a013:	48 8b 05 f6 5f 00 00 	mov    rax,QWORD PTR [rip+0x5ff6]        # 140010010 <vmcs_mutex>
   14000a01a:	48 89 c1             	mov    rcx,rax
   14000a01d:	ff d2                	call   rdx
   14000a01f:	90                   	nop
   14000a020:	48 83 c4 40          	add    rsp,0x40
   14000a024:	5d                   	pop    rbp
   14000a025:	c3                   	ret

000000014000a026 <_ZN5rvm6410operations5rtype11rv_amoxor_dEv>:
   14000a026:	55                   	push   rbp
   14000a027:	48 89 e5             	mov    rbp,rsp
   14000a02a:	48 83 ec 40          	sub    rsp,0x40
   14000a02e:	c6 45 ff 00          	mov    BYTE PTR [rbp-0x1],0x0
   14000a032:	c6 45 fe 00          	mov    BYTE PTR [rbp-0x2],0x0
   14000a036:	c6 45 fd 00          	mov    BYTE PTR [rbp-0x3],0x0
   14000a03a:	48 c7 45 f0 00 00 00 	mov    QWORD PTR [rbp-0x10],0x0
   14000a041:	00 
   14000a042:	48 c7 45 e8 00 00 00 	mov    QWORD PTR [rbp-0x18],0x0
   14000a049:	00 
   14000a04a:	48 c7 45 e0 00 00 00 	mov    QWORD PTR [rbp-0x20],0x0
   14000a051:	00 
   14000a052:	48 8b 05 af 5f 00 00 	mov    rax,QWORD PTR [rip+0x5faf]        # 140010008 <vmcs>
   14000a059:	48 8b 40 18          	mov    rax,QWORD PTR [rax+0x18]
   14000a05d:	88 45 ff             	mov    BYTE PTR [rbp-0x1],al
   14000a060:	48 8b 05 a1 5f 00 00 	mov    rax,QWORD PTR [rip+0x5fa1]        # 140010008 <vmcs>
   14000a067:	48 8b 40 20          	mov    rax,QWORD PTR [rax+0x20]
   14000a06b:	88 45 fe             	mov    BYTE PTR [rbp-0x2],al
   14000a06e:	48 8b 05 93 5f 00 00 	mov    rax,QWORD PTR [rip+0x5f93]        # 140010008 <vmcs>
   14000a075:	48 8b 40 28          	mov    rax,QWORD PTR [rax+0x28]
   14000a079:	88 45 fd             	mov    BYTE PTR [rbp-0x3],al
   14000a07c:	48 8b 05 85 5f 00 00 	mov    rax,QWORD PTR [rip+0x5f85]        # 140010008 <vmcs>
   14000a083:	0f b6 55 fe          	movzx  edx,BYTE PTR [rbp-0x2]
   14000a087:	48 63 d2             	movsxd rdx,edx
   14000a08a:	48 83 c2 22          	add    rdx,0x22
   14000a08e:	48 8b 44 d0 08       	mov    rax,QWORD PTR [rax+rdx*8+0x8]
   14000a093:	48 89 45 f0          	mov    QWORD PTR [rbp-0x10],rax
   14000a097:	48 8b 05 6a 5f 00 00 	mov    rax,QWORD PTR [rip+0x5f6a]        # 140010008 <vmcs>
   14000a09e:	0f b6 55 fd          	movzx  edx,BYTE PTR [rbp-0x3]
   14000a0a2:	48 63 d2             	movsxd rdx,edx
   14000a0a5:	48 83 c2 22          	add    rdx,0x22
   14000a0a9:	48 8b 44 d0 08       	mov    rax,QWORD PTR [rax+rdx*8+0x8]
   14000a0ae:	48 89 45 e0          	mov    QWORD PTR [rbp-0x20],rax
   14000a0b2:	48 8b 05 47 5f 00 00 	mov    rax,QWORD PTR [rip+0x5f47]        # 140010000 <__data_start__>
   14000a0b9:	4c 8b 40 30          	mov    r8,QWORD PTR [rax+0x30]
   14000a0bd:	48 8b 05 4c 5f 00 00 	mov    rax,QWORD PTR [rip+0x5f4c]        # 140010010 <vmcs_mutex>
   14000a0c4:	ba ff ff ff ff       	mov    edx,0xffffffff
   14000a0c9:	48 89 c1             	mov    rcx,rax
   14000a0cc:	41 ff d0             	call   r8
   14000a0cf:	48 8b 45 f0          	mov    rax,QWORD PTR [rbp-0x10]
   14000a0d3:	48 8b 00             	mov    rax,QWORD PTR [rax]
   14000a0d6:	48 89 45 e8          	mov    QWORD PTR [rbp-0x18],rax
   14000a0da:	48 8b 45 f0          	mov    rax,QWORD PTR [rbp-0x10]
   14000a0de:	48 8b 55 e8          	mov    rdx,QWORD PTR [rbp-0x18]
   14000a0e2:	48 33 55 e0          	xor    rdx,QWORD PTR [rbp-0x20]
   14000a0e6:	48 89 10             	mov    QWORD PTR [rax],rdx
   14000a0e9:	48 8b 05 18 5f 00 00 	mov    rax,QWORD PTR [rip+0x5f18]        # 140010008 <vmcs>
   14000a0f0:	0f b6 4d ff          	movzx  ecx,BYTE PTR [rbp-0x1]
   14000a0f4:	48 8b 55 e8          	mov    rdx,QWORD PTR [rbp-0x18]
   14000a0f8:	48 63 c9             	movsxd rcx,ecx
   14000a0fb:	48 83 c1 22          	add    rcx,0x22
   14000a0ff:	48 89 54 c8 08       	mov    QWORD PTR [rax+rcx*8+0x8],rdx
   14000a104:	48 8b 05 f5 5e 00 00 	mov    rax,QWORD PTR [rip+0x5ef5]        # 140010000 <__data_start__>
   14000a10b:	48 8b 50 40          	mov    rdx,QWORD PTR [rax+0x40]
   14000a10f:	48 8b 05 fa 5e 00 00 	mov    rax,QWORD PTR [rip+0x5efa]        # 140010010 <vmcs_mutex>
   14000a116:	48 89 c1             	mov    rcx,rax
   14000a119:	ff d2                	call   rdx
   14000a11b:	90                   	nop
   14000a11c:	48 83 c4 40          	add    rsp,0x40
   14000a120:	5d                   	pop    rbp
   14000a121:	c3                   	ret

000000014000a122 <_ZN5rvm6410operations5rtype11rv_amoand_dEv>:
   14000a122:	55                   	push   rbp
   14000a123:	48 89 e5             	mov    rbp,rsp
   14000a126:	48 83 ec 40          	sub    rsp,0x40
   14000a12a:	c6 45 ff 00          	mov    BYTE PTR [rbp-0x1],0x0
   14000a12e:	c6 45 fe 00          	mov    BYTE PTR [rbp-0x2],0x0
   14000a132:	c6 45 fd 00          	mov    BYTE PTR [rbp-0x3],0x0
   14000a136:	48 c7 45 f0 00 00 00 	mov    QWORD PTR [rbp-0x10],0x0
   14000a13d:	00 
   14000a13e:	48 c7 45 e8 00 00 00 	mov    QWORD PTR [rbp-0x18],0x0
   14000a145:	00 
   14000a146:	48 c7 45 e0 00 00 00 	mov    QWORD PTR [rbp-0x20],0x0
   14000a14d:	00 
   14000a14e:	48 8b 05 b3 5e 00 00 	mov    rax,QWORD PTR [rip+0x5eb3]        # 140010008 <vmcs>
   14000a155:	48 8b 40 18          	mov    rax,QWORD PTR [rax+0x18]
   14000a159:	88 45 ff             	mov    BYTE PTR [rbp-0x1],al
   14000a15c:	48 8b 05 a5 5e 00 00 	mov    rax,QWORD PTR [rip+0x5ea5]        # 140010008 <vmcs>
   14000a163:	48 8b 40 20          	mov    rax,QWORD PTR [rax+0x20]
   14000a167:	88 45 fe             	mov    BYTE PTR [rbp-0x2],al
   14000a16a:	48 8b 05 97 5e 00 00 	mov    rax,QWORD PTR [rip+0x5e97]        # 140010008 <vmcs>
   14000a171:	48 8b 40 28          	mov    rax,QWORD PTR [rax+0x28]
   14000a175:	88 45 fd             	mov    BYTE PTR [rbp-0x3],al
   14000a178:	48 8b 05 89 5e 00 00 	mov    rax,QWORD PTR [rip+0x5e89]        # 140010008 <vmcs>
   14000a17f:	0f b6 55 fe          	movzx  edx,BYTE PTR [rbp-0x2]
   14000a183:	48 63 d2             	movsxd rdx,edx
   14000a186:	48 83 c2 22          	add    rdx,0x22
   14000a18a:	48 8b 44 d0 08       	mov    rax,QWORD PTR [rax+rdx*8+0x8]
   14000a18f:	48 89 45 f0          	mov    QWORD PTR [rbp-0x10],rax
   14000a193:	48 8b 05 6e 5e 00 00 	mov    rax,QWORD PTR [rip+0x5e6e]        # 140010008 <vmcs>
   14000a19a:	0f b6 55 fd          	movzx  edx,BYTE PTR [rbp-0x3]
   14000a19e:	48 63 d2             	movsxd rdx,edx
   14000a1a1:	48 83 c2 22          	add    rdx,0x22
   14000a1a5:	48 8b 44 d0 08       	mov    rax,QWORD PTR [rax+rdx*8+0x8]
   14000a1aa:	48 89 45 e0          	mov    QWORD PTR [rbp-0x20],rax
   14000a1ae:	48 8b 05 4b 5e 00 00 	mov    rax,QWORD PTR [rip+0x5e4b]        # 140010000 <__data_start__>
   14000a1b5:	4c 8b 40 30          	mov    r8,QWORD PTR [rax+0x30]
   14000a1b9:	48 8b 05 50 5e 00 00 	mov    rax,QWORD PTR [rip+0x5e50]        # 140010010 <vmcs_mutex>
   14000a1c0:	ba ff ff ff ff       	mov    edx,0xffffffff
   14000a1c5:	48 89 c1             	mov    rcx,rax
   14000a1c8:	41 ff d0             	call   r8
   14000a1cb:	48 8b 45 f0          	mov    rax,QWORD PTR [rbp-0x10]
   14000a1cf:	48 8b 00             	mov    rax,QWORD PTR [rax]
   14000a1d2:	48 89 45 e8          	mov    QWORD PTR [rbp-0x18],rax
   14000a1d6:	48 8b 45 f0          	mov    rax,QWORD PTR [rbp-0x10]
   14000a1da:	48 8b 55 e8          	mov    rdx,QWORD PTR [rbp-0x18]
   14000a1de:	48 23 55 e0          	and    rdx,QWORD PTR [rbp-0x20]
   14000a1e2:	48 89 10             	mov    QWORD PTR [rax],rdx
   14000a1e5:	48 8b 05 1c 5e 00 00 	mov    rax,QWORD PTR [rip+0x5e1c]        # 140010008 <vmcs>
   14000a1ec:	0f b6 4d ff          	movzx  ecx,BYTE PTR [rbp-0x1]
   14000a1f0:	48 8b 55 e8          	mov    rdx,QWORD PTR [rbp-0x18]
   14000a1f4:	48 63 c9             	movsxd rcx,ecx
   14000a1f7:	48 83 c1 22          	add    rcx,0x22
   14000a1fb:	48 89 54 c8 08       	mov    QWORD PTR [rax+rcx*8+0x8],rdx
   14000a200:	48 8b 05 f9 5d 00 00 	mov    rax,QWORD PTR [rip+0x5df9]        # 140010000 <__data_start__>
   14000a207:	48 8b 50 40          	mov    rdx,QWORD PTR [rax+0x40]
   14000a20b:	48 8b 05 fe 5d 00 00 	mov    rax,QWORD PTR [rip+0x5dfe]        # 140010010 <vmcs_mutex>
   14000a212:	48 89 c1             	mov    rcx,rax
   14000a215:	ff d2                	call   rdx
   14000a217:	90                   	nop
   14000a218:	48 83 c4 40          	add    rsp,0x40
   14000a21c:	5d                   	pop    rbp
   14000a21d:	c3                   	ret

000000014000a21e <_ZN5rvm6410operations5rtype10rv_amoor_dEv>:
   14000a21e:	55                   	push   rbp
   14000a21f:	48 89 e5             	mov    rbp,rsp
   14000a222:	48 83 ec 40          	sub    rsp,0x40
   14000a226:	c6 45 ff 00          	mov    BYTE PTR [rbp-0x1],0x0
   14000a22a:	c6 45 fe 00          	mov    BYTE PTR [rbp-0x2],0x0
   14000a22e:	c6 45 fd 00          	mov    BYTE PTR [rbp-0x3],0x0
   14000a232:	48 c7 45 f0 00 00 00 	mov    QWORD PTR [rbp-0x10],0x0
   14000a239:	00 
   14000a23a:	48 c7 45 e8 00 00 00 	mov    QWORD PTR [rbp-0x18],0x0
   14000a241:	00 
   14000a242:	48 c7 45 e0 00 00 00 	mov    QWORD PTR [rbp-0x20],0x0
   14000a249:	00 
   14000a24a:	48 8b 05 b7 5d 00 00 	mov    rax,QWORD PTR [rip+0x5db7]        # 140010008 <vmcs>
   14000a251:	48 8b 40 18          	mov    rax,QWORD PTR [rax+0x18]
   14000a255:	88 45 ff             	mov    BYTE PTR [rbp-0x1],al
   14000a258:	48 8b 05 a9 5d 00 00 	mov    rax,QWORD PTR [rip+0x5da9]        # 140010008 <vmcs>
   14000a25f:	48 8b 40 20          	mov    rax,QWORD PTR [rax+0x20]
   14000a263:	88 45 fe             	mov    BYTE PTR [rbp-0x2],al
   14000a266:	48 8b 05 9b 5d 00 00 	mov    rax,QWORD PTR [rip+0x5d9b]        # 140010008 <vmcs>
   14000a26d:	48 8b 40 28          	mov    rax,QWORD PTR [rax+0x28]
   14000a271:	88 45 fd             	mov    BYTE PTR [rbp-0x3],al
   14000a274:	48 8b 05 8d 5d 00 00 	mov    rax,QWORD PTR [rip+0x5d8d]        # 140010008 <vmcs>
   14000a27b:	0f b6 55 fe          	movzx  edx,BYTE PTR [rbp-0x2]
   14000a27f:	48 63 d2             	movsxd rdx,edx
   14000a282:	48 83 c2 22          	add    rdx,0x22
   14000a286:	48 8b 44 d0 08       	mov    rax,QWORD PTR [rax+rdx*8+0x8]
   14000a28b:	48 89 45 f0          	mov    QWORD PTR [rbp-0x10],rax
   14000a28f:	48 8b 05 72 5d 00 00 	mov    rax,QWORD PTR [rip+0x5d72]        # 140010008 <vmcs>
   14000a296:	0f b6 55 fd          	movzx  edx,BYTE PTR [rbp-0x3]
   14000a29a:	48 63 d2             	movsxd rdx,edx
   14000a29d:	48 83 c2 22          	add    rdx,0x22
   14000a2a1:	48 8b 44 d0 08       	mov    rax,QWORD PTR [rax+rdx*8+0x8]
   14000a2a6:	48 89 45 e0          	mov    QWORD PTR [rbp-0x20],rax
   14000a2aa:	48 8b 05 4f 5d 00 00 	mov    rax,QWORD PTR [rip+0x5d4f]        # 140010000 <__data_start__>
   14000a2b1:	4c 8b 40 30          	mov    r8,QWORD PTR [rax+0x30]
   14000a2b5:	48 8b 05 54 5d 00 00 	mov    rax,QWORD PTR [rip+0x5d54]        # 140010010 <vmcs_mutex>
   14000a2bc:	ba ff ff ff ff       	mov    edx,0xffffffff
   14000a2c1:	48 89 c1             	mov    rcx,rax
   14000a2c4:	41 ff d0             	call   r8
   14000a2c7:	48 8b 45 f0          	mov    rax,QWORD PTR [rbp-0x10]
   14000a2cb:	48 8b 00             	mov    rax,QWORD PTR [rax]
   14000a2ce:	48 89 45 e8          	mov    QWORD PTR [rbp-0x18],rax
   14000a2d2:	48 8b 45 f0          	mov    rax,QWORD PTR [rbp-0x10]
   14000a2d6:	48 8b 55 e8          	mov    rdx,QWORD PTR [rbp-0x18]
   14000a2da:	48 0b 55 e0          	or     rdx,QWORD PTR [rbp-0x20]
   14000a2de:	48 89 10             	mov    QWORD PTR [rax],rdx
   14000a2e1:	48 8b 05 20 5d 00 00 	mov    rax,QWORD PTR [rip+0x5d20]        # 140010008 <vmcs>
   14000a2e8:	0f b6 4d ff          	movzx  ecx,BYTE PTR [rbp-0x1]
   14000a2ec:	48 8b 55 e8          	mov    rdx,QWORD PTR [rbp-0x18]
   14000a2f0:	48 63 c9             	movsxd rcx,ecx
   14000a2f3:	48 83 c1 22          	add    rcx,0x22
   14000a2f7:	48 89 54 c8 08       	mov    QWORD PTR [rax+rcx*8+0x8],rdx
   14000a2fc:	48 8b 05 fd 5c 00 00 	mov    rax,QWORD PTR [rip+0x5cfd]        # 140010000 <__data_start__>
   14000a303:	48 8b 50 40          	mov    rdx,QWORD PTR [rax+0x40]
   14000a307:	48 8b 05 02 5d 00 00 	mov    rax,QWORD PTR [rip+0x5d02]        # 140010010 <vmcs_mutex>
   14000a30e:	48 89 c1             	mov    rcx,rax
   14000a311:	ff d2                	call   rdx
   14000a313:	90                   	nop
   14000a314:	48 83 c4 40          	add    rsp,0x40
   14000a318:	5d                   	pop    rbp
   14000a319:	c3                   	ret

000000014000a31a <_ZN5rvm6410operations5rtype11rv_amomin_dEv>:
   14000a31a:	55                   	push   rbp
   14000a31b:	48 89 e5             	mov    rbp,rsp
   14000a31e:	48 83 ec 40          	sub    rsp,0x40
   14000a322:	c6 45 ff 00          	mov    BYTE PTR [rbp-0x1],0x0
   14000a326:	c6 45 fe 00          	mov    BYTE PTR [rbp-0x2],0x0
   14000a32a:	c6 45 fd 00          	mov    BYTE PTR [rbp-0x3],0x0
   14000a32e:	48 c7 45 f0 00 00 00 	mov    QWORD PTR [rbp-0x10],0x0
   14000a335:	00 
   14000a336:	48 c7 45 e8 00 00 00 	mov    QWORD PTR [rbp-0x18],0x0
   14000a33d:	00 
   14000a33e:	48 c7 45 e0 00 00 00 	mov    QWORD PTR [rbp-0x20],0x0
   14000a345:	00 
   14000a346:	48 8b 05 bb 5c 00 00 	mov    rax,QWORD PTR [rip+0x5cbb]        # 140010008 <vmcs>
   14000a34d:	48 8b 40 18          	mov    rax,QWORD PTR [rax+0x18]
   14000a351:	88 45 ff             	mov    BYTE PTR [rbp-0x1],al
   14000a354:	48 8b 05 ad 5c 00 00 	mov    rax,QWORD PTR [rip+0x5cad]        # 140010008 <vmcs>
   14000a35b:	48 8b 40 20          	mov    rax,QWORD PTR [rax+0x20]
   14000a35f:	88 45 fe             	mov    BYTE PTR [rbp-0x2],al
   14000a362:	48 8b 05 9f 5c 00 00 	mov    rax,QWORD PTR [rip+0x5c9f]        # 140010008 <vmcs>
   14000a369:	48 8b 40 28          	mov    rax,QWORD PTR [rax+0x28]
   14000a36d:	88 45 fd             	mov    BYTE PTR [rbp-0x3],al
   14000a370:	48 8b 05 91 5c 00 00 	mov    rax,QWORD PTR [rip+0x5c91]        # 140010008 <vmcs>
   14000a377:	0f b6 55 fe          	movzx  edx,BYTE PTR [rbp-0x2]
   14000a37b:	48 63 d2             	movsxd rdx,edx
   14000a37e:	48 83 c2 22          	add    rdx,0x22
   14000a382:	48 8b 44 d0 08       	mov    rax,QWORD PTR [rax+rdx*8+0x8]
   14000a387:	48 89 45 f0          	mov    QWORD PTR [rbp-0x10],rax
   14000a38b:	48 8b 05 76 5c 00 00 	mov    rax,QWORD PTR [rip+0x5c76]        # 140010008 <vmcs>
   14000a392:	0f b6 55 fd          	movzx  edx,BYTE PTR [rbp-0x3]
   14000a396:	48 63 d2             	movsxd rdx,edx
   14000a399:	48 83 c2 22          	add    rdx,0x22
   14000a39d:	48 8b 44 d0 08       	mov    rax,QWORD PTR [rax+rdx*8+0x8]
   14000a3a2:	48 89 45 e0          	mov    QWORD PTR [rbp-0x20],rax
   14000a3a6:	48 8b 05 53 5c 00 00 	mov    rax,QWORD PTR [rip+0x5c53]        # 140010000 <__data_start__>
   14000a3ad:	4c 8b 40 30          	mov    r8,QWORD PTR [rax+0x30]
   14000a3b1:	48 8b 05 58 5c 00 00 	mov    rax,QWORD PTR [rip+0x5c58]        # 140010010 <vmcs_mutex>
   14000a3b8:	ba ff ff ff ff       	mov    edx,0xffffffff
   14000a3bd:	48 89 c1             	mov    rcx,rax
   14000a3c0:	41 ff d0             	call   r8
   14000a3c3:	48 8b 45 f0          	mov    rax,QWORD PTR [rbp-0x10]
   14000a3c7:	48 8b 00             	mov    rax,QWORD PTR [rax]
   14000a3ca:	48 89 45 e8          	mov    QWORD PTR [rbp-0x18],rax
   14000a3ce:	48 8b 45 e8          	mov    rax,QWORD PTR [rbp-0x18]
   14000a3d2:	48 3b 45 e0          	cmp    rax,QWORD PTR [rbp-0x20]
   14000a3d6:	7d 06                	jge    14000a3de <_ZN5rvm6410operations5rtype11rv_amomin_dEv+0xc4>
   14000a3d8:	48 8b 45 e8          	mov    rax,QWORD PTR [rbp-0x18]
   14000a3dc:	eb 04                	jmp    14000a3e2 <_ZN5rvm6410operations5rtype11rv_amomin_dEv+0xc8>
   14000a3de:	48 8b 45 e0          	mov    rax,QWORD PTR [rbp-0x20]
   14000a3e2:	48 8b 55 f0          	mov    rdx,QWORD PTR [rbp-0x10]
   14000a3e6:	48 89 02             	mov    QWORD PTR [rdx],rax
   14000a3e9:	48 8b 05 18 5c 00 00 	mov    rax,QWORD PTR [rip+0x5c18]        # 140010008 <vmcs>
   14000a3f0:	0f b6 4d ff          	movzx  ecx,BYTE PTR [rbp-0x1]
   14000a3f4:	48 8b 55 e8          	mov    rdx,QWORD PTR [rbp-0x18]
   14000a3f8:	48 63 c9             	movsxd rcx,ecx
   14000a3fb:	48 83 c1 22          	add    rcx,0x22
   14000a3ff:	48 89 54 c8 08       	mov    QWORD PTR [rax+rcx*8+0x8],rdx
   14000a404:	48 8b 05 f5 5b 00 00 	mov    rax,QWORD PTR [rip+0x5bf5]        # 140010000 <__data_start__>
   14000a40b:	48 8b 50 40          	mov    rdx,QWORD PTR [rax+0x40]
   14000a40f:	48 8b 05 fa 5b 00 00 	mov    rax,QWORD PTR [rip+0x5bfa]        # 140010010 <vmcs_mutex>
   14000a416:	48 89 c1             	mov    rcx,rax
   14000a419:	ff d2                	call   rdx
   14000a41b:	90                   	nop
   14000a41c:	48 83 c4 40          	add    rsp,0x40
   14000a420:	5d                   	pop    rbp
   14000a421:	c3                   	ret

000000014000a422 <_ZN5rvm6410operations5rtype11rv_amomax_dEv>:
   14000a422:	55                   	push   rbp
   14000a423:	48 89 e5             	mov    rbp,rsp
   14000a426:	48 83 ec 40          	sub    rsp,0x40
   14000a42a:	c6 45 ff 00          	mov    BYTE PTR [rbp-0x1],0x0
   14000a42e:	c6 45 fe 00          	mov    BYTE PTR [rbp-0x2],0x0
   14000a432:	c6 45 fd 00          	mov    BYTE PTR [rbp-0x3],0x0
   14000a436:	48 c7 45 f0 00 00 00 	mov    QWORD PTR [rbp-0x10],0x0
   14000a43d:	00 
   14000a43e:	48 c7 45 e8 00 00 00 	mov    QWORD PTR [rbp-0x18],0x0
   14000a445:	00 
   14000a446:	48 c7 45 e0 00 00 00 	mov    QWORD PTR [rbp-0x20],0x0
   14000a44d:	00 
   14000a44e:	48 8b 05 b3 5b 00 00 	mov    rax,QWORD PTR [rip+0x5bb3]        # 140010008 <vmcs>
   14000a455:	48 8b 40 18          	mov    rax,QWORD PTR [rax+0x18]
   14000a459:	88 45 ff             	mov    BYTE PTR [rbp-0x1],al
   14000a45c:	48 8b 05 a5 5b 00 00 	mov    rax,QWORD PTR [rip+0x5ba5]        # 140010008 <vmcs>
   14000a463:	48 8b 40 20          	mov    rax,QWORD PTR [rax+0x20]
   14000a467:	88 45 fe             	mov    BYTE PTR [rbp-0x2],al
   14000a46a:	48 8b 05 97 5b 00 00 	mov    rax,QWORD PTR [rip+0x5b97]        # 140010008 <vmcs>
   14000a471:	48 8b 40 28          	mov    rax,QWORD PTR [rax+0x28]
   14000a475:	88 45 fd             	mov    BYTE PTR [rbp-0x3],al
   14000a478:	48 8b 05 89 5b 00 00 	mov    rax,QWORD PTR [rip+0x5b89]        # 140010008 <vmcs>
   14000a47f:	0f b6 55 fe          	movzx  edx,BYTE PTR [rbp-0x2]
   14000a483:	48 63 d2             	movsxd rdx,edx
   14000a486:	48 83 c2 22          	add    rdx,0x22
   14000a48a:	48 8b 44 d0 08       	mov    rax,QWORD PTR [rax+rdx*8+0x8]
   14000a48f:	48 89 45 f0          	mov    QWORD PTR [rbp-0x10],rax
   14000a493:	48 8b 05 6e 5b 00 00 	mov    rax,QWORD PTR [rip+0x5b6e]        # 140010008 <vmcs>
   14000a49a:	0f b6 55 fd          	movzx  edx,BYTE PTR [rbp-0x3]
   14000a49e:	48 63 d2             	movsxd rdx,edx
   14000a4a1:	48 83 c2 22          	add    rdx,0x22
   14000a4a5:	48 8b 44 d0 08       	mov    rax,QWORD PTR [rax+rdx*8+0x8]
   14000a4aa:	48 89 45 e0          	mov    QWORD PTR [rbp-0x20],rax
   14000a4ae:	48 8b 05 4b 5b 00 00 	mov    rax,QWORD PTR [rip+0x5b4b]        # 140010000 <__data_start__>
   14000a4b5:	4c 8b 40 30          	mov    r8,QWORD PTR [rax+0x30]
   14000a4b9:	48 8b 05 50 5b 00 00 	mov    rax,QWORD PTR [rip+0x5b50]        # 140010010 <vmcs_mutex>
   14000a4c0:	ba ff ff ff ff       	mov    edx,0xffffffff
   14000a4c5:	48 89 c1             	mov    rcx,rax
   14000a4c8:	41 ff d0             	call   r8
   14000a4cb:	48 8b 45 f0          	mov    rax,QWORD PTR [rbp-0x10]
   14000a4cf:	48 8b 00             	mov    rax,QWORD PTR [rax]
   14000a4d2:	48 89 45 e8          	mov    QWORD PTR [rbp-0x18],rax
   14000a4d6:	48 8b 45 e8          	mov    rax,QWORD PTR [rbp-0x18]
   14000a4da:	48 3b 45 e0          	cmp    rax,QWORD PTR [rbp-0x20]
   14000a4de:	7d 06                	jge    14000a4e6 <_ZN5rvm6410operations5rtype11rv_amomax_dEv+0xc4>
   14000a4e0:	48 8b 45 e0          	mov    rax,QWORD PTR [rbp-0x20]
   14000a4e4:	eb 04                	jmp    14000a4ea <_ZN5rvm6410operations5rtype11rv_amomax_dEv+0xc8>
   14000a4e6:	48 8b 45 e8          	mov    rax,QWORD PTR [rbp-0x18]
   14000a4ea:	48 8b 55 f0          	mov    rdx,QWORD PTR [rbp-0x10]
   14000a4ee:	48 89 02             	mov    QWORD PTR [rdx],rax
   14000a4f1:	48 8b 05 10 5b 00 00 	mov    rax,QWORD PTR [rip+0x5b10]        # 140010008 <vmcs>
   14000a4f8:	0f b6 4d ff          	movzx  ecx,BYTE PTR [rbp-0x1]
   14000a4fc:	48 8b 55 e8          	mov    rdx,QWORD PTR [rbp-0x18]
   14000a500:	48 63 c9             	movsxd rcx,ecx
   14000a503:	48 83 c1 22          	add    rcx,0x22
   14000a507:	48 89 54 c8 08       	mov    QWORD PTR [rax+rcx*8+0x8],rdx
   14000a50c:	48 8b 05 ed 5a 00 00 	mov    rax,QWORD PTR [rip+0x5aed]        # 140010000 <__data_start__>
   14000a513:	48 8b 50 40          	mov    rdx,QWORD PTR [rax+0x40]
   14000a517:	48 8b 05 f2 5a 00 00 	mov    rax,QWORD PTR [rip+0x5af2]        # 140010010 <vmcs_mutex>
   14000a51e:	48 89 c1             	mov    rcx,rax
   14000a521:	ff d2                	call   rdx
   14000a523:	90                   	nop
   14000a524:	48 83 c4 40          	add    rsp,0x40
   14000a528:	5d                   	pop    rbp
   14000a529:	c3                   	ret

000000014000a52a <_ZN5rvm6410operations5rtype12rv_amominu_dEv>:
   14000a52a:	55                   	push   rbp
   14000a52b:	48 89 e5             	mov    rbp,rsp
   14000a52e:	48 83 ec 40          	sub    rsp,0x40
   14000a532:	c6 45 ff 00          	mov    BYTE PTR [rbp-0x1],0x0
   14000a536:	c6 45 fe 00          	mov    BYTE PTR [rbp-0x2],0x0
   14000a53a:	c6 45 fd 00          	mov    BYTE PTR [rbp-0x3],0x0
   14000a53e:	48 c7 45 f0 00 00 00 	mov    QWORD PTR [rbp-0x10],0x0
   14000a545:	00 
   14000a546:	48 c7 45 e8 00 00 00 	mov    QWORD PTR [rbp-0x18],0x0
   14000a54d:	00 
   14000a54e:	48 c7 45 e0 00 00 00 	mov    QWORD PTR [rbp-0x20],0x0
   14000a555:	00 
   14000a556:	48 8b 05 ab 5a 00 00 	mov    rax,QWORD PTR [rip+0x5aab]        # 140010008 <vmcs>
   14000a55d:	48 8b 40 18          	mov    rax,QWORD PTR [rax+0x18]
   14000a561:	88 45 ff             	mov    BYTE PTR [rbp-0x1],al
   14000a564:	48 8b 05 9d 5a 00 00 	mov    rax,QWORD PTR [rip+0x5a9d]        # 140010008 <vmcs>
   14000a56b:	48 8b 40 20          	mov    rax,QWORD PTR [rax+0x20]
   14000a56f:	88 45 fe             	mov    BYTE PTR [rbp-0x2],al
   14000a572:	48 8b 05 8f 5a 00 00 	mov    rax,QWORD PTR [rip+0x5a8f]        # 140010008 <vmcs>
   14000a579:	48 8b 40 28          	mov    rax,QWORD PTR [rax+0x28]
   14000a57d:	88 45 fd             	mov    BYTE PTR [rbp-0x3],al
   14000a580:	48 8b 05 81 5a 00 00 	mov    rax,QWORD PTR [rip+0x5a81]        # 140010008 <vmcs>
   14000a587:	48 8b 55 f0          	mov    rdx,QWORD PTR [rbp-0x10]
   14000a58b:	48 83 c2 22          	add    rdx,0x22
   14000a58f:	48 8b 44 d0 08       	mov    rax,QWORD PTR [rax+rdx*8+0x8]
   14000a594:	88 45 fe             	mov    BYTE PTR [rbp-0x2],al
   14000a597:	48 8b 05 6a 5a 00 00 	mov    rax,QWORD PTR [rip+0x5a6a]        # 140010008 <vmcs>
   14000a59e:	48 8b 55 e0          	mov    rdx,QWORD PTR [rbp-0x20]
   14000a5a2:	48 83 c2 22          	add    rdx,0x22
   14000a5a6:	48 8b 44 d0 08       	mov    rax,QWORD PTR [rax+rdx*8+0x8]
   14000a5ab:	88 45 fd             	mov    BYTE PTR [rbp-0x3],al
   14000a5ae:	48 8b 05 4b 5a 00 00 	mov    rax,QWORD PTR [rip+0x5a4b]        # 140010000 <__data_start__>
   14000a5b5:	4c 8b 40 30          	mov    r8,QWORD PTR [rax+0x30]
   14000a5b9:	48 8b 05 50 5a 00 00 	mov    rax,QWORD PTR [rip+0x5a50]        # 140010010 <vmcs_mutex>
   14000a5c0:	ba ff ff ff ff       	mov    edx,0xffffffff
   14000a5c5:	48 89 c1             	mov    rcx,rax
   14000a5c8:	41 ff d0             	call   r8
   14000a5cb:	48 8b 45 f0          	mov    rax,QWORD PTR [rbp-0x10]
   14000a5cf:	48 8b 00             	mov    rax,QWORD PTR [rax]
   14000a5d2:	48 89 45 e8          	mov    QWORD PTR [rbp-0x18],rax
   14000a5d6:	48 8b 45 e8          	mov    rax,QWORD PTR [rbp-0x18]
   14000a5da:	48 3b 45 e0          	cmp    rax,QWORD PTR [rbp-0x20]
   14000a5de:	73 06                	jae    14000a5e6 <_ZN5rvm6410operations5rtype12rv_amominu_dEv+0xbc>
   14000a5e0:	48 8b 45 e8          	mov    rax,QWORD PTR [rbp-0x18]
   14000a5e4:	eb 04                	jmp    14000a5ea <_ZN5rvm6410operations5rtype12rv_amominu_dEv+0xc0>
   14000a5e6:	48 8b 45 e0          	mov    rax,QWORD PTR [rbp-0x20]
   14000a5ea:	48 8b 55 f0          	mov    rdx,QWORD PTR [rbp-0x10]
   14000a5ee:	48 89 02             	mov    QWORD PTR [rdx],rax
   14000a5f1:	48 8b 05 10 5a 00 00 	mov    rax,QWORD PTR [rip+0x5a10]        # 140010008 <vmcs>
   14000a5f8:	0f b6 55 ff          	movzx  edx,BYTE PTR [rbp-0x1]
   14000a5fc:	48 63 d2             	movsxd rdx,edx
   14000a5ff:	48 8d 4a 22          	lea    rcx,[rdx+0x22]
   14000a603:	48 8b 55 e8          	mov    rdx,QWORD PTR [rbp-0x18]
   14000a607:	48 89 54 c8 08       	mov    QWORD PTR [rax+rcx*8+0x8],rdx
   14000a60c:	48 8b 05 ed 59 00 00 	mov    rax,QWORD PTR [rip+0x59ed]        # 140010000 <__data_start__>
   14000a613:	48 8b 50 40          	mov    rdx,QWORD PTR [rax+0x40]
   14000a617:	48 8b 05 f2 59 00 00 	mov    rax,QWORD PTR [rip+0x59f2]        # 140010010 <vmcs_mutex>
   14000a61e:	48 89 c1             	mov    rcx,rax
   14000a621:	ff d2                	call   rdx
   14000a623:	90                   	nop
   14000a624:	48 83 c4 40          	add    rsp,0x40
   14000a628:	5d                   	pop    rbp
   14000a629:	c3                   	ret

000000014000a62a <_ZN5rvm6410operations5rtype12rv_amomaxu_dEv>:
   14000a62a:	55                   	push   rbp
   14000a62b:	48 89 e5             	mov    rbp,rsp
   14000a62e:	48 83 ec 40          	sub    rsp,0x40
   14000a632:	c6 45 ff 00          	mov    BYTE PTR [rbp-0x1],0x0
   14000a636:	c6 45 fe 00          	mov    BYTE PTR [rbp-0x2],0x0
   14000a63a:	c6 45 fd 00          	mov    BYTE PTR [rbp-0x3],0x0
   14000a63e:	48 c7 45 f0 00 00 00 	mov    QWORD PTR [rbp-0x10],0x0
   14000a645:	00 
   14000a646:	48 c7 45 e8 00 00 00 	mov    QWORD PTR [rbp-0x18],0x0
   14000a64d:	00 
   14000a64e:	48 c7 45 e0 00 00 00 	mov    QWORD PTR [rbp-0x20],0x0
   14000a655:	00 
   14000a656:	48 8b 05 ab 59 00 00 	mov    rax,QWORD PTR [rip+0x59ab]        # 140010008 <vmcs>
   14000a65d:	48 8b 40 18          	mov    rax,QWORD PTR [rax+0x18]
   14000a661:	88 45 ff             	mov    BYTE PTR [rbp-0x1],al
   14000a664:	48 8b 05 9d 59 00 00 	mov    rax,QWORD PTR [rip+0x599d]        # 140010008 <vmcs>
   14000a66b:	48 8b 40 20          	mov    rax,QWORD PTR [rax+0x20]
   14000a66f:	88 45 fe             	mov    BYTE PTR [rbp-0x2],al
   14000a672:	48 8b 05 8f 59 00 00 	mov    rax,QWORD PTR [rip+0x598f]        # 140010008 <vmcs>
   14000a679:	48 8b 40 28          	mov    rax,QWORD PTR [rax+0x28]
   14000a67d:	88 45 fd             	mov    BYTE PTR [rbp-0x3],al
   14000a680:	48 8b 05 81 59 00 00 	mov    rax,QWORD PTR [rip+0x5981]        # 140010008 <vmcs>
   14000a687:	0f b6 55 fe          	movzx  edx,BYTE PTR [rbp-0x2]
   14000a68b:	48 63 d2             	movsxd rdx,edx
   14000a68e:	48 83 c2 22          	add    rdx,0x22
   14000a692:	48 8b 44 d0 08       	mov    rax,QWORD PTR [rax+rdx*8+0x8]
   14000a697:	48 89 45 f0          	mov    QWORD PTR [rbp-0x10],rax
   14000a69b:	48 8b 05 66 59 00 00 	mov    rax,QWORD PTR [rip+0x5966]        # 140010008 <vmcs>
   14000a6a2:	0f b6 55 fd          	movzx  edx,BYTE PTR [rbp-0x3]
   14000a6a6:	48 63 d2             	movsxd rdx,edx
   14000a6a9:	48 83 c2 22          	add    rdx,0x22
   14000a6ad:	48 8b 44 d0 08       	mov    rax,QWORD PTR [rax+rdx*8+0x8]
   14000a6b2:	48 89 45 e0          	mov    QWORD PTR [rbp-0x20],rax
   14000a6b6:	48 8b 05 43 59 00 00 	mov    rax,QWORD PTR [rip+0x5943]        # 140010000 <__data_start__>
   14000a6bd:	4c 8b 40 30          	mov    r8,QWORD PTR [rax+0x30]
   14000a6c1:	48 8b 05 48 59 00 00 	mov    rax,QWORD PTR [rip+0x5948]        # 140010010 <vmcs_mutex>
   14000a6c8:	ba ff ff ff ff       	mov    edx,0xffffffff
   14000a6cd:	48 89 c1             	mov    rcx,rax
   14000a6d0:	41 ff d0             	call   r8
   14000a6d3:	48 8b 45 f0          	mov    rax,QWORD PTR [rbp-0x10]
   14000a6d7:	48 8b 00             	mov    rax,QWORD PTR [rax]
   14000a6da:	48 89 45 e8          	mov    QWORD PTR [rbp-0x18],rax
   14000a6de:	48 8b 45 e8          	mov    rax,QWORD PTR [rbp-0x18]
   14000a6e2:	48 3b 45 e0          	cmp    rax,QWORD PTR [rbp-0x20]
   14000a6e6:	73 06                	jae    14000a6ee <_ZN5rvm6410operations5rtype12rv_amomaxu_dEv+0xc4>
   14000a6e8:	48 8b 45 e0          	mov    rax,QWORD PTR [rbp-0x20]
   14000a6ec:	eb 04                	jmp    14000a6f2 <_ZN5rvm6410operations5rtype12rv_amomaxu_dEv+0xc8>
   14000a6ee:	48 8b 45 e8          	mov    rax,QWORD PTR [rbp-0x18]
   14000a6f2:	48 8b 55 f0          	mov    rdx,QWORD PTR [rbp-0x10]
   14000a6f6:	48 89 02             	mov    QWORD PTR [rdx],rax
   14000a6f9:	48 8b 05 08 59 00 00 	mov    rax,QWORD PTR [rip+0x5908]        # 140010008 <vmcs>
   14000a700:	0f b6 55 ff          	movzx  edx,BYTE PTR [rbp-0x1]
   14000a704:	48 63 d2             	movsxd rdx,edx
   14000a707:	48 8d 4a 22          	lea    rcx,[rdx+0x22]
   14000a70b:	48 8b 55 e8          	mov    rdx,QWORD PTR [rbp-0x18]
   14000a70f:	48 89 54 c8 08       	mov    QWORD PTR [rax+rcx*8+0x8],rdx
   14000a714:	48 8b 05 e5 58 00 00 	mov    rax,QWORD PTR [rip+0x58e5]        # 140010000 <__data_start__>
   14000a71b:	48 8b 50 40          	mov    rdx,QWORD PTR [rax+0x40]
   14000a71f:	48 8b 05 ea 58 00 00 	mov    rax,QWORD PTR [rip+0x58ea]        # 140010010 <vmcs_mutex>
   14000a726:	48 89 c1             	mov    rcx,rax
   14000a729:	ff d2                	call   rdx
   14000a72b:	90                   	nop
   14000a72c:	48 83 c4 40          	add    rsp,0x40
   14000a730:	5d                   	pop    rbp
   14000a731:	c3                   	ret

000000014000a732 <_ZN5rvm6410operations5rtype12rv_amoswap_wEv>:
   14000a732:	55                   	push   rbp
   14000a733:	48 89 e5             	mov    rbp,rsp
   14000a736:	48 83 ec 40          	sub    rsp,0x40
   14000a73a:	c6 45 ff 00          	mov    BYTE PTR [rbp-0x1],0x0
   14000a73e:	c6 45 fe 00          	mov    BYTE PTR [rbp-0x2],0x0
   14000a742:	c6 45 fd 00          	mov    BYTE PTR [rbp-0x3],0x0
   14000a746:	48 c7 45 f0 00 00 00 	mov    QWORD PTR [rbp-0x10],0x0
   14000a74d:	00 
   14000a74e:	c7 45 ec 00 00 00 00 	mov    DWORD PTR [rbp-0x14],0x0
   14000a755:	c7 45 e8 00 00 00 00 	mov    DWORD PTR [rbp-0x18],0x0
   14000a75c:	48 8b 05 a5 58 00 00 	mov    rax,QWORD PTR [rip+0x58a5]        # 140010008 <vmcs>
   14000a763:	48 8b 40 18          	mov    rax,QWORD PTR [rax+0x18]
   14000a767:	88 45 ff             	mov    BYTE PTR [rbp-0x1],al
   14000a76a:	48 8b 05 97 58 00 00 	mov    rax,QWORD PTR [rip+0x5897]        # 140010008 <vmcs>
   14000a771:	48 8b 40 20          	mov    rax,QWORD PTR [rax+0x20]
   14000a775:	88 45 fe             	mov    BYTE PTR [rbp-0x2],al
   14000a778:	48 8b 05 89 58 00 00 	mov    rax,QWORD PTR [rip+0x5889]        # 140010008 <vmcs>
   14000a77f:	48 8b 40 28          	mov    rax,QWORD PTR [rax+0x28]
   14000a783:	88 45 fd             	mov    BYTE PTR [rbp-0x3],al
   14000a786:	48 8b 05 7b 58 00 00 	mov    rax,QWORD PTR [rip+0x587b]        # 140010008 <vmcs>
   14000a78d:	0f b6 55 fe          	movzx  edx,BYTE PTR [rbp-0x2]
   14000a791:	48 63 d2             	movsxd rdx,edx
   14000a794:	48 83 c2 22          	add    rdx,0x22
   14000a798:	48 8b 44 d0 08       	mov    rax,QWORD PTR [rax+rdx*8+0x8]
   14000a79d:	48 89 45 f0          	mov    QWORD PTR [rbp-0x10],rax
   14000a7a1:	48 8b 05 60 58 00 00 	mov    rax,QWORD PTR [rip+0x5860]        # 140010008 <vmcs>
   14000a7a8:	0f b6 55 fd          	movzx  edx,BYTE PTR [rbp-0x3]
   14000a7ac:	48 63 d2             	movsxd rdx,edx
   14000a7af:	48 83 c2 22          	add    rdx,0x22
   14000a7b3:	48 8b 44 d0 08       	mov    rax,QWORD PTR [rax+rdx*8+0x8]
   14000a7b8:	89 45 e8             	mov    DWORD PTR [rbp-0x18],eax
   14000a7bb:	48 8b 05 3e 58 00 00 	mov    rax,QWORD PTR [rip+0x583e]        # 140010000 <__data_start__>
   14000a7c2:	4c 8b 40 30          	mov    r8,QWORD PTR [rax+0x30]
   14000a7c6:	48 8b 05 43 58 00 00 	mov    rax,QWORD PTR [rip+0x5843]        # 140010010 <vmcs_mutex>
   14000a7cd:	ba ff ff ff ff       	mov    edx,0xffffffff
   14000a7d2:	48 89 c1             	mov    rcx,rax
   14000a7d5:	41 ff d0             	call   r8
   14000a7d8:	48 8b 45 f0          	mov    rax,QWORD PTR [rbp-0x10]
   14000a7dc:	8b 00                	mov    eax,DWORD PTR [rax]
   14000a7de:	89 45 ec             	mov    DWORD PTR [rbp-0x14],eax
   14000a7e1:	48 8b 45 f0          	mov    rax,QWORD PTR [rbp-0x10]
   14000a7e5:	8b 55 e8             	mov    edx,DWORD PTR [rbp-0x18]
   14000a7e8:	89 10                	mov    DWORD PTR [rax],edx
   14000a7ea:	48 8b 05 17 58 00 00 	mov    rax,QWORD PTR [rip+0x5817]        # 140010008 <vmcs>
   14000a7f1:	0f b6 4d ff          	movzx  ecx,BYTE PTR [rbp-0x1]
   14000a7f5:	8b 55 ec             	mov    edx,DWORD PTR [rbp-0x14]
   14000a7f8:	48 63 d2             	movsxd rdx,edx
   14000a7fb:	48 63 c9             	movsxd rcx,ecx
   14000a7fe:	48 83 c1 22          	add    rcx,0x22
   14000a802:	48 89 54 c8 08       	mov    QWORD PTR [rax+rcx*8+0x8],rdx
   14000a807:	48 8b 05 f2 57 00 00 	mov    rax,QWORD PTR [rip+0x57f2]        # 140010000 <__data_start__>
   14000a80e:	48 8b 50 40          	mov    rdx,QWORD PTR [rax+0x40]
   14000a812:	48 8b 05 f7 57 00 00 	mov    rax,QWORD PTR [rip+0x57f7]        # 140010010 <vmcs_mutex>
   14000a819:	48 89 c1             	mov    rcx,rax
   14000a81c:	ff d2                	call   rdx
   14000a81e:	90                   	nop
   14000a81f:	48 83 c4 40          	add    rsp,0x40
   14000a823:	5d                   	pop    rbp
   14000a824:	c3                   	ret

000000014000a825 <_ZN5rvm6410operations5rtype11rv_amoadd_wEv>:
   14000a825:	55                   	push   rbp
   14000a826:	48 89 e5             	mov    rbp,rsp
   14000a829:	48 83 ec 40          	sub    rsp,0x40
   14000a82d:	c6 45 ff 00          	mov    BYTE PTR [rbp-0x1],0x0
   14000a831:	c6 45 fe 00          	mov    BYTE PTR [rbp-0x2],0x0
   14000a835:	c6 45 fd 00          	mov    BYTE PTR [rbp-0x3],0x0
   14000a839:	48 c7 45 f0 00 00 00 	mov    QWORD PTR [rbp-0x10],0x0
   14000a840:	00 
   14000a841:	c7 45 ec 00 00 00 00 	mov    DWORD PTR [rbp-0x14],0x0
   14000a848:	c7 45 e8 00 00 00 00 	mov    DWORD PTR [rbp-0x18],0x0
   14000a84f:	48 8b 05 b2 57 00 00 	mov    rax,QWORD PTR [rip+0x57b2]        # 140010008 <vmcs>
   14000a856:	48 8b 40 18          	mov    rax,QWORD PTR [rax+0x18]
   14000a85a:	88 45 ff             	mov    BYTE PTR [rbp-0x1],al
   14000a85d:	48 8b 05 a4 57 00 00 	mov    rax,QWORD PTR [rip+0x57a4]        # 140010008 <vmcs>
   14000a864:	48 8b 40 20          	mov    rax,QWORD PTR [rax+0x20]
   14000a868:	88 45 fe             	mov    BYTE PTR [rbp-0x2],al
   14000a86b:	48 8b 05 96 57 00 00 	mov    rax,QWORD PTR [rip+0x5796]        # 140010008 <vmcs>
   14000a872:	48 8b 40 28          	mov    rax,QWORD PTR [rax+0x28]
   14000a876:	88 45 fd             	mov    BYTE PTR [rbp-0x3],al
   14000a879:	48 8b 05 88 57 00 00 	mov    rax,QWORD PTR [rip+0x5788]        # 140010008 <vmcs>
   14000a880:	0f b6 55 fe          	movzx  edx,BYTE PTR [rbp-0x2]
   14000a884:	48 63 d2             	movsxd rdx,edx
   14000a887:	48 83 c2 22          	add    rdx,0x22
   14000a88b:	48 8b 44 d0 08       	mov    rax,QWORD PTR [rax+rdx*8+0x8]
   14000a890:	48 89 45 f0          	mov    QWORD PTR [rbp-0x10],rax
   14000a894:	48 8b 05 6d 57 00 00 	mov    rax,QWORD PTR [rip+0x576d]        # 140010008 <vmcs>
   14000a89b:	0f b6 55 fd          	movzx  edx,BYTE PTR [rbp-0x3]
   14000a89f:	48 63 d2             	movsxd rdx,edx
   14000a8a2:	48 83 c2 22          	add    rdx,0x22
   14000a8a6:	48 8b 44 d0 08       	mov    rax,QWORD PTR [rax+rdx*8+0x8]
   14000a8ab:	89 45 e8             	mov    DWORD PTR [rbp-0x18],eax
   14000a8ae:	48 8b 05 4b 57 00 00 	mov    rax,QWORD PTR [rip+0x574b]        # 140010000 <__data_start__>
   14000a8b5:	4c 8b 40 30          	mov    r8,QWORD PTR [rax+0x30]
   14000a8b9:	48 8b 05 50 57 00 00 	mov    rax,QWORD PTR [rip+0x5750]        # 140010010 <vmcs_mutex>
   14000a8c0:	ba ff ff ff ff       	mov    edx,0xffffffff
   14000a8c5:	48 89 c1             	mov    rcx,rax
   14000a8c8:	41 ff d0             	call   r8
   14000a8cb:	48 8b 45 f0          	mov    rax,QWORD PTR [rbp-0x10]
   14000a8cf:	8b 00                	mov    eax,DWORD PTR [rax]
   14000a8d1:	89 45 ec             	mov    DWORD PTR [rbp-0x14],eax
   14000a8d4:	48 8b 45 f0          	mov    rax,QWORD PTR [rbp-0x10]
   14000a8d8:	8b 4d ec             	mov    ecx,DWORD PTR [rbp-0x14]
   14000a8db:	8b 55 e8             	mov    edx,DWORD PTR [rbp-0x18]
   14000a8de:	01 ca                	add    edx,ecx
   14000a8e0:	89 10                	mov    DWORD PTR [rax],edx
   14000a8e2:	48 8b 05 1f 57 00 00 	mov    rax,QWORD PTR [rip+0x571f]        # 140010008 <vmcs>
   14000a8e9:	0f b6 4d ff          	movzx  ecx,BYTE PTR [rbp-0x1]
   14000a8ed:	8b 55 ec             	mov    edx,DWORD PTR [rbp-0x14]
   14000a8f0:	48 63 d2             	movsxd rdx,edx
   14000a8f3:	48 63 c9             	movsxd rcx,ecx
   14000a8f6:	48 83 c1 22          	add    rcx,0x22
   14000a8fa:	48 89 54 c8 08       	mov    QWORD PTR [rax+rcx*8+0x8],rdx
   14000a8ff:	48 8b 05 fa 56 00 00 	mov    rax,QWORD PTR [rip+0x56fa]        # 140010000 <__data_start__>
   14000a906:	48 8b 50 40          	mov    rdx,QWORD PTR [rax+0x40]
   14000a90a:	48 8b 05 ff 56 00 00 	mov    rax,QWORD PTR [rip+0x56ff]        # 140010010 <vmcs_mutex>
   14000a911:	48 89 c1             	mov    rcx,rax
   14000a914:	ff d2                	call   rdx
   14000a916:	90                   	nop
   14000a917:	48 83 c4 40          	add    rsp,0x40
   14000a91b:	5d                   	pop    rbp
   14000a91c:	c3                   	ret

000000014000a91d <_ZN5rvm6410operations5rtype11rv_amoxor_wEv>:
   14000a91d:	55                   	push   rbp
   14000a91e:	48 89 e5             	mov    rbp,rsp
   14000a921:	48 83 ec 40          	sub    rsp,0x40
   14000a925:	c6 45 ff 00          	mov    BYTE PTR [rbp-0x1],0x0
   14000a929:	c6 45 fe 00          	mov    BYTE PTR [rbp-0x2],0x0
   14000a92d:	c6 45 fd 00          	mov    BYTE PTR [rbp-0x3],0x0
   14000a931:	48 c7 45 f0 00 00 00 	mov    QWORD PTR [rbp-0x10],0x0
   14000a938:	00 
   14000a939:	c7 45 ec 00 00 00 00 	mov    DWORD PTR [rbp-0x14],0x0
   14000a940:	c7 45 e8 00 00 00 00 	mov    DWORD PTR [rbp-0x18],0x0
   14000a947:	48 8b 05 ba 56 00 00 	mov    rax,QWORD PTR [rip+0x56ba]        # 140010008 <vmcs>
   14000a94e:	48 8b 40 18          	mov    rax,QWORD PTR [rax+0x18]
   14000a952:	88 45 ff             	mov    BYTE PTR [rbp-0x1],al
   14000a955:	48 8b 05 ac 56 00 00 	mov    rax,QWORD PTR [rip+0x56ac]        # 140010008 <vmcs>
   14000a95c:	48 8b 40 20          	mov    rax,QWORD PTR [rax+0x20]
   14000a960:	88 45 fe             	mov    BYTE PTR [rbp-0x2],al
   14000a963:	48 8b 05 9e 56 00 00 	mov    rax,QWORD PTR [rip+0x569e]        # 140010008 <vmcs>
   14000a96a:	48 8b 40 28          	mov    rax,QWORD PTR [rax+0x28]
   14000a96e:	88 45 fd             	mov    BYTE PTR [rbp-0x3],al
   14000a971:	48 8b 05 90 56 00 00 	mov    rax,QWORD PTR [rip+0x5690]        # 140010008 <vmcs>
   14000a978:	0f b6 55 fe          	movzx  edx,BYTE PTR [rbp-0x2]
   14000a97c:	48 63 d2             	movsxd rdx,edx
   14000a97f:	48 83 c2 22          	add    rdx,0x22
   14000a983:	48 8b 44 d0 08       	mov    rax,QWORD PTR [rax+rdx*8+0x8]
   14000a988:	48 89 45 f0          	mov    QWORD PTR [rbp-0x10],rax
   14000a98c:	48 8b 05 75 56 00 00 	mov    rax,QWORD PTR [rip+0x5675]        # 140010008 <vmcs>
   14000a993:	0f b6 55 fd          	movzx  edx,BYTE PTR [rbp-0x3]
   14000a997:	48 63 d2             	movsxd rdx,edx
   14000a99a:	48 83 c2 22          	add    rdx,0x22
   14000a99e:	48 8b 44 d0 08       	mov    rax,QWORD PTR [rax+rdx*8+0x8]
   14000a9a3:	89 45 e8             	mov    DWORD PTR [rbp-0x18],eax
   14000a9a6:	48 8b 05 53 56 00 00 	mov    rax,QWORD PTR [rip+0x5653]        # 140010000 <__data_start__>
   14000a9ad:	4c 8b 40 30          	mov    r8,QWORD PTR [rax+0x30]
   14000a9b1:	48 8b 05 58 56 00 00 	mov    rax,QWORD PTR [rip+0x5658]        # 140010010 <vmcs_mutex>
   14000a9b8:	ba ff ff ff ff       	mov    edx,0xffffffff
   14000a9bd:	48 89 c1             	mov    rcx,rax
   14000a9c0:	41 ff d0             	call   r8
   14000a9c3:	48 8b 45 f0          	mov    rax,QWORD PTR [rbp-0x10]
   14000a9c7:	8b 00                	mov    eax,DWORD PTR [rax]
   14000a9c9:	89 45 ec             	mov    DWORD PTR [rbp-0x14],eax
   14000a9cc:	48 8b 45 f0          	mov    rax,QWORD PTR [rbp-0x10]
   14000a9d0:	8b 55 ec             	mov    edx,DWORD PTR [rbp-0x14]
   14000a9d3:	33 55 e8             	xor    edx,DWORD PTR [rbp-0x18]
   14000a9d6:	89 10                	mov    DWORD PTR [rax],edx
   14000a9d8:	48 8b 05 29 56 00 00 	mov    rax,QWORD PTR [rip+0x5629]        # 140010008 <vmcs>
   14000a9df:	0f b6 4d ff          	movzx  ecx,BYTE PTR [rbp-0x1]
   14000a9e3:	8b 55 ec             	mov    edx,DWORD PTR [rbp-0x14]
   14000a9e6:	48 63 d2             	movsxd rdx,edx
   14000a9e9:	48 63 c9             	movsxd rcx,ecx
   14000a9ec:	48 83 c1 22          	add    rcx,0x22
   14000a9f0:	48 89 54 c8 08       	mov    QWORD PTR [rax+rcx*8+0x8],rdx
   14000a9f5:	48 8b 05 04 56 00 00 	mov    rax,QWORD PTR [rip+0x5604]        # 140010000 <__data_start__>
   14000a9fc:	48 8b 50 40          	mov    rdx,QWORD PTR [rax+0x40]
   14000aa00:	48 8b 05 09 56 00 00 	mov    rax,QWORD PTR [rip+0x5609]        # 140010010 <vmcs_mutex>
   14000aa07:	48 89 c1             	mov    rcx,rax
   14000aa0a:	ff d2                	call   rdx
   14000aa0c:	90                   	nop
   14000aa0d:	48 83 c4 40          	add    rsp,0x40
   14000aa11:	5d                   	pop    rbp
   14000aa12:	c3                   	ret

000000014000aa13 <_ZN5rvm6410operations5rtype11rv_amoand_wEv>:
   14000aa13:	55                   	push   rbp
   14000aa14:	48 89 e5             	mov    rbp,rsp
   14000aa17:	48 83 ec 40          	sub    rsp,0x40
   14000aa1b:	c6 45 ff 00          	mov    BYTE PTR [rbp-0x1],0x0
   14000aa1f:	c6 45 fe 00          	mov    BYTE PTR [rbp-0x2],0x0
   14000aa23:	c6 45 fd 00          	mov    BYTE PTR [rbp-0x3],0x0
   14000aa27:	48 c7 45 f0 00 00 00 	mov    QWORD PTR [rbp-0x10],0x0
   14000aa2e:	00 
   14000aa2f:	c7 45 ec 00 00 00 00 	mov    DWORD PTR [rbp-0x14],0x0
   14000aa36:	c7 45 e8 00 00 00 00 	mov    DWORD PTR [rbp-0x18],0x0
   14000aa3d:	48 8b 05 c4 55 00 00 	mov    rax,QWORD PTR [rip+0x55c4]        # 140010008 <vmcs>
   14000aa44:	48 8b 40 18          	mov    rax,QWORD PTR [rax+0x18]
   14000aa48:	88 45 ff             	mov    BYTE PTR [rbp-0x1],al
   14000aa4b:	48 8b 05 b6 55 00 00 	mov    rax,QWORD PTR [rip+0x55b6]        # 140010008 <vmcs>
   14000aa52:	48 8b 40 20          	mov    rax,QWORD PTR [rax+0x20]
   14000aa56:	88 45 fe             	mov    BYTE PTR [rbp-0x2],al
   14000aa59:	48 8b 05 a8 55 00 00 	mov    rax,QWORD PTR [rip+0x55a8]        # 140010008 <vmcs>
   14000aa60:	48 8b 40 28          	mov    rax,QWORD PTR [rax+0x28]
   14000aa64:	88 45 fd             	mov    BYTE PTR [rbp-0x3],al
   14000aa67:	48 8b 05 9a 55 00 00 	mov    rax,QWORD PTR [rip+0x559a]        # 140010008 <vmcs>
   14000aa6e:	0f b6 55 fe          	movzx  edx,BYTE PTR [rbp-0x2]
   14000aa72:	48 63 d2             	movsxd rdx,edx
   14000aa75:	48 83 c2 22          	add    rdx,0x22
   14000aa79:	48 8b 44 d0 08       	mov    rax,QWORD PTR [rax+rdx*8+0x8]
   14000aa7e:	48 89 45 f0          	mov    QWORD PTR [rbp-0x10],rax
   14000aa82:	48 8b 05 7f 55 00 00 	mov    rax,QWORD PTR [rip+0x557f]        # 140010008 <vmcs>
   14000aa89:	0f b6 55 fd          	movzx  edx,BYTE PTR [rbp-0x3]
   14000aa8d:	48 63 d2             	movsxd rdx,edx
   14000aa90:	48 83 c2 22          	add    rdx,0x22
   14000aa94:	48 8b 44 d0 08       	mov    rax,QWORD PTR [rax+rdx*8+0x8]
   14000aa99:	89 45 e8             	mov    DWORD PTR [rbp-0x18],eax
   14000aa9c:	48 8b 05 5d 55 00 00 	mov    rax,QWORD PTR [rip+0x555d]        # 140010000 <__data_start__>
   14000aaa3:	4c 8b 40 30          	mov    r8,QWORD PTR [rax+0x30]
   14000aaa7:	48 8b 05 62 55 00 00 	mov    rax,QWORD PTR [rip+0x5562]        # 140010010 <vmcs_mutex>
   14000aaae:	ba ff ff ff ff       	mov    edx,0xffffffff
   14000aab3:	48 89 c1             	mov    rcx,rax
   14000aab6:	41 ff d0             	call   r8
   14000aab9:	48 8b 45 f0          	mov    rax,QWORD PTR [rbp-0x10]
   14000aabd:	8b 00                	mov    eax,DWORD PTR [rax]
   14000aabf:	89 45 ec             	mov    DWORD PTR [rbp-0x14],eax
   14000aac2:	48 8b 45 f0          	mov    rax,QWORD PTR [rbp-0x10]
   14000aac6:	8b 55 ec             	mov    edx,DWORD PTR [rbp-0x14]
   14000aac9:	23 55 e8             	and    edx,DWORD PTR [rbp-0x18]
   14000aacc:	89 10                	mov    DWORD PTR [rax],edx
   14000aace:	48 8b 05 33 55 00 00 	mov    rax,QWORD PTR [rip+0x5533]        # 140010008 <vmcs>
   14000aad5:	0f b6 4d ff          	movzx  ecx,BYTE PTR [rbp-0x1]
   14000aad9:	8b 55 ec             	mov    edx,DWORD PTR [rbp-0x14]
   14000aadc:	48 63 d2             	movsxd rdx,edx
   14000aadf:	48 63 c9             	movsxd rcx,ecx
   14000aae2:	48 83 c1 22          	add    rcx,0x22
   14000aae6:	48 89 54 c8 08       	mov    QWORD PTR [rax+rcx*8+0x8],rdx
   14000aaeb:	48 8b 05 0e 55 00 00 	mov    rax,QWORD PTR [rip+0x550e]        # 140010000 <__data_start__>
   14000aaf2:	48 8b 50 40          	mov    rdx,QWORD PTR [rax+0x40]
   14000aaf6:	48 8b 05 13 55 00 00 	mov    rax,QWORD PTR [rip+0x5513]        # 140010010 <vmcs_mutex>
   14000aafd:	48 89 c1             	mov    rcx,rax
   14000ab00:	ff d2                	call   rdx
   14000ab02:	90                   	nop
   14000ab03:	48 83 c4 40          	add    rsp,0x40
   14000ab07:	5d                   	pop    rbp
   14000ab08:	c3                   	ret

000000014000ab09 <_ZN5rvm6410operations5rtype10rv_amoor_wEv>:
   14000ab09:	55                   	push   rbp
   14000ab0a:	48 89 e5             	mov    rbp,rsp
   14000ab0d:	48 83 ec 40          	sub    rsp,0x40
   14000ab11:	c6 45 ff 00          	mov    BYTE PTR [rbp-0x1],0x0
   14000ab15:	c6 45 fe 00          	mov    BYTE PTR [rbp-0x2],0x0
   14000ab19:	c6 45 fd 00          	mov    BYTE PTR [rbp-0x3],0x0
   14000ab1d:	48 c7 45 f0 00 00 00 	mov    QWORD PTR [rbp-0x10],0x0
   14000ab24:	00 
   14000ab25:	c7 45 ec 00 00 00 00 	mov    DWORD PTR [rbp-0x14],0x0
   14000ab2c:	c7 45 e8 00 00 00 00 	mov    DWORD PTR [rbp-0x18],0x0
   14000ab33:	48 8b 05 ce 54 00 00 	mov    rax,QWORD PTR [rip+0x54ce]        # 140010008 <vmcs>
   14000ab3a:	48 8b 40 18          	mov    rax,QWORD PTR [rax+0x18]
   14000ab3e:	88 45 ff             	mov    BYTE PTR [rbp-0x1],al
   14000ab41:	48 8b 05 c0 54 00 00 	mov    rax,QWORD PTR [rip+0x54c0]        # 140010008 <vmcs>
   14000ab48:	48 8b 40 20          	mov    rax,QWORD PTR [rax+0x20]
   14000ab4c:	88 45 fe             	mov    BYTE PTR [rbp-0x2],al
   14000ab4f:	48 8b 05 b2 54 00 00 	mov    rax,QWORD PTR [rip+0x54b2]        # 140010008 <vmcs>
   14000ab56:	48 8b 40 28          	mov    rax,QWORD PTR [rax+0x28]
   14000ab5a:	88 45 fd             	mov    BYTE PTR [rbp-0x3],al
   14000ab5d:	48 8b 05 a4 54 00 00 	mov    rax,QWORD PTR [rip+0x54a4]        # 140010008 <vmcs>
   14000ab64:	0f b6 55 fe          	movzx  edx,BYTE PTR [rbp-0x2]
   14000ab68:	48 63 d2             	movsxd rdx,edx
   14000ab6b:	48 83 c2 22          	add    rdx,0x22
   14000ab6f:	48 8b 44 d0 08       	mov    rax,QWORD PTR [rax+rdx*8+0x8]
   14000ab74:	48 89 45 f0          	mov    QWORD PTR [rbp-0x10],rax
   14000ab78:	48 8b 05 89 54 00 00 	mov    rax,QWORD PTR [rip+0x5489]        # 140010008 <vmcs>
   14000ab7f:	0f b6 55 fd          	movzx  edx,BYTE PTR [rbp-0x3]
   14000ab83:	48 63 d2             	movsxd rdx,edx
   14000ab86:	48 83 c2 22          	add    rdx,0x22
   14000ab8a:	48 8b 44 d0 08       	mov    rax,QWORD PTR [rax+rdx*8+0x8]
   14000ab8f:	89 45 e8             	mov    DWORD PTR [rbp-0x18],eax
   14000ab92:	48 8b 05 67 54 00 00 	mov    rax,QWORD PTR [rip+0x5467]        # 140010000 <__data_start__>
   14000ab99:	4c 8b 40 30          	mov    r8,QWORD PTR [rax+0x30]
   14000ab9d:	48 8b 05 6c 54 00 00 	mov    rax,QWORD PTR [rip+0x546c]        # 140010010 <vmcs_mutex>
   14000aba4:	ba ff ff ff ff       	mov    edx,0xffffffff
   14000aba9:	48 89 c1             	mov    rcx,rax
   14000abac:	41 ff d0             	call   r8
   14000abaf:	48 8b 45 f0          	mov    rax,QWORD PTR [rbp-0x10]
   14000abb3:	8b 00                	mov    eax,DWORD PTR [rax]
   14000abb5:	89 45 ec             	mov    DWORD PTR [rbp-0x14],eax
   14000abb8:	48 8b 45 f0          	mov    rax,QWORD PTR [rbp-0x10]
   14000abbc:	8b 55 ec             	mov    edx,DWORD PTR [rbp-0x14]
   14000abbf:	0b 55 e8             	or     edx,DWORD PTR [rbp-0x18]
   14000abc2:	89 10                	mov    DWORD PTR [rax],edx
   14000abc4:	48 8b 05 3d 54 00 00 	mov    rax,QWORD PTR [rip+0x543d]        # 140010008 <vmcs>
   14000abcb:	0f b6 4d ff          	movzx  ecx,BYTE PTR [rbp-0x1]
   14000abcf:	8b 55 ec             	mov    edx,DWORD PTR [rbp-0x14]
   14000abd2:	48 63 d2             	movsxd rdx,edx
   14000abd5:	48 63 c9             	movsxd rcx,ecx
   14000abd8:	48 83 c1 22          	add    rcx,0x22
   14000abdc:	48 89 54 c8 08       	mov    QWORD PTR [rax+rcx*8+0x8],rdx
   14000abe1:	48 8b 05 18 54 00 00 	mov    rax,QWORD PTR [rip+0x5418]        # 140010000 <__data_start__>
   14000abe8:	48 8b 50 40          	mov    rdx,QWORD PTR [rax+0x40]
   14000abec:	48 8b 05 1d 54 00 00 	mov    rax,QWORD PTR [rip+0x541d]        # 140010010 <vmcs_mutex>
   14000abf3:	48 89 c1             	mov    rcx,rax
   14000abf6:	ff d2                	call   rdx
   14000abf8:	90                   	nop
   14000abf9:	48 83 c4 40          	add    rsp,0x40
   14000abfd:	5d                   	pop    rbp
   14000abfe:	c3                   	ret

000000014000abff <_ZN5rvm6410operations5rtype11rv_amomin_wEv>:
   14000abff:	55                   	push   rbp
   14000ac00:	48 89 e5             	mov    rbp,rsp
   14000ac03:	48 83 ec 40          	sub    rsp,0x40
   14000ac07:	c6 45 ff 00          	mov    BYTE PTR [rbp-0x1],0x0
   14000ac0b:	c6 45 fe 00          	mov    BYTE PTR [rbp-0x2],0x0
   14000ac0f:	c6 45 fd 00          	mov    BYTE PTR [rbp-0x3],0x0
   14000ac13:	48 c7 45 f0 00 00 00 	mov    QWORD PTR [rbp-0x10],0x0
   14000ac1a:	00 
   14000ac1b:	c7 45 ec 00 00 00 00 	mov    DWORD PTR [rbp-0x14],0x0
   14000ac22:	c7 45 e8 00 00 00 00 	mov    DWORD PTR [rbp-0x18],0x0
   14000ac29:	48 8b 05 d8 53 00 00 	mov    rax,QWORD PTR [rip+0x53d8]        # 140010008 <vmcs>
   14000ac30:	48 8b 40 18          	mov    rax,QWORD PTR [rax+0x18]
   14000ac34:	88 45 ff             	mov    BYTE PTR [rbp-0x1],al
   14000ac37:	48 8b 05 ca 53 00 00 	mov    rax,QWORD PTR [rip+0x53ca]        # 140010008 <vmcs>
   14000ac3e:	48 8b 40 20          	mov    rax,QWORD PTR [rax+0x20]
   14000ac42:	88 45 fe             	mov    BYTE PTR [rbp-0x2],al
   14000ac45:	48 8b 05 bc 53 00 00 	mov    rax,QWORD PTR [rip+0x53bc]        # 140010008 <vmcs>
   14000ac4c:	48 8b 40 28          	mov    rax,QWORD PTR [rax+0x28]
   14000ac50:	88 45 fd             	mov    BYTE PTR [rbp-0x3],al
   14000ac53:	48 8b 05 ae 53 00 00 	mov    rax,QWORD PTR [rip+0x53ae]        # 140010008 <vmcs>
   14000ac5a:	0f b6 55 fe          	movzx  edx,BYTE PTR [rbp-0x2]
   14000ac5e:	48 63 d2             	movsxd rdx,edx
   14000ac61:	48 83 c2 22          	add    rdx,0x22
   14000ac65:	48 8b 44 d0 08       	mov    rax,QWORD PTR [rax+rdx*8+0x8]
   14000ac6a:	48 89 45 f0          	mov    QWORD PTR [rbp-0x10],rax
   14000ac6e:	48 8b 05 93 53 00 00 	mov    rax,QWORD PTR [rip+0x5393]        # 140010008 <vmcs>
   14000ac75:	0f b6 55 fd          	movzx  edx,BYTE PTR [rbp-0x3]
   14000ac79:	48 63 d2             	movsxd rdx,edx
   14000ac7c:	48 83 c2 22          	add    rdx,0x22
   14000ac80:	48 8b 44 d0 08       	mov    rax,QWORD PTR [rax+rdx*8+0x8]
   14000ac85:	89 45 e8             	mov    DWORD PTR [rbp-0x18],eax
   14000ac88:	48 8b 05 71 53 00 00 	mov    rax,QWORD PTR [rip+0x5371]        # 140010000 <__data_start__>
   14000ac8f:	4c 8b 40 30          	mov    r8,QWORD PTR [rax+0x30]
   14000ac93:	48 8b 05 76 53 00 00 	mov    rax,QWORD PTR [rip+0x5376]        # 140010010 <vmcs_mutex>
   14000ac9a:	ba ff ff ff ff       	mov    edx,0xffffffff
   14000ac9f:	48 89 c1             	mov    rcx,rax
   14000aca2:	41 ff d0             	call   r8
   14000aca5:	48 8b 45 f0          	mov    rax,QWORD PTR [rbp-0x10]
   14000aca9:	8b 00                	mov    eax,DWORD PTR [rax]
   14000acab:	89 45 ec             	mov    DWORD PTR [rbp-0x14],eax
   14000acae:	8b 45 ec             	mov    eax,DWORD PTR [rbp-0x14]
   14000acb1:	3b 45 e8             	cmp    eax,DWORD PTR [rbp-0x18]
   14000acb4:	7d 05                	jge    14000acbb <_ZN5rvm6410operations5rtype11rv_amomin_wEv+0xbc>
   14000acb6:	8b 45 ec             	mov    eax,DWORD PTR [rbp-0x14]
   14000acb9:	eb 03                	jmp    14000acbe <_ZN5rvm6410operations5rtype11rv_amomin_wEv+0xbf>
   14000acbb:	8b 45 e8             	mov    eax,DWORD PTR [rbp-0x18]
   14000acbe:	48 8b 55 f0          	mov    rdx,QWORD PTR [rbp-0x10]
   14000acc2:	89 02                	mov    DWORD PTR [rdx],eax
   14000acc4:	48 8b 05 3d 53 00 00 	mov    rax,QWORD PTR [rip+0x533d]        # 140010008 <vmcs>
   14000accb:	0f b6 4d ff          	movzx  ecx,BYTE PTR [rbp-0x1]
   14000accf:	8b 55 ec             	mov    edx,DWORD PTR [rbp-0x14]
   14000acd2:	48 63 d2             	movsxd rdx,edx
   14000acd5:	48 63 c9             	movsxd rcx,ecx
   14000acd8:	48 83 c1 22          	add    rcx,0x22
   14000acdc:	48 89 54 c8 08       	mov    QWORD PTR [rax+rcx*8+0x8],rdx
   14000ace1:	48 8b 05 18 53 00 00 	mov    rax,QWORD PTR [rip+0x5318]        # 140010000 <__data_start__>
   14000ace8:	48 8b 50 40          	mov    rdx,QWORD PTR [rax+0x40]
   14000acec:	48 8b 05 1d 53 00 00 	mov    rax,QWORD PTR [rip+0x531d]        # 140010010 <vmcs_mutex>
   14000acf3:	48 89 c1             	mov    rcx,rax
   14000acf6:	ff d2                	call   rdx
   14000acf8:	90                   	nop
   14000acf9:	48 83 c4 40          	add    rsp,0x40
   14000acfd:	5d                   	pop    rbp
   14000acfe:	c3                   	ret

000000014000acff <_ZN5rvm6410operations5rtype11rv_amomax_wEv>:
   14000acff:	55                   	push   rbp
   14000ad00:	48 89 e5             	mov    rbp,rsp
   14000ad03:	48 83 ec 40          	sub    rsp,0x40
   14000ad07:	c6 45 ff 00          	mov    BYTE PTR [rbp-0x1],0x0
   14000ad0b:	c6 45 fe 00          	mov    BYTE PTR [rbp-0x2],0x0
   14000ad0f:	c6 45 fd 00          	mov    BYTE PTR [rbp-0x3],0x0
   14000ad13:	48 c7 45 f0 00 00 00 	mov    QWORD PTR [rbp-0x10],0x0
   14000ad1a:	00 
   14000ad1b:	c7 45 ec 00 00 00 00 	mov    DWORD PTR [rbp-0x14],0x0
   14000ad22:	c7 45 e8 00 00 00 00 	mov    DWORD PTR [rbp-0x18],0x0
   14000ad29:	48 8b 05 d8 52 00 00 	mov    rax,QWORD PTR [rip+0x52d8]        # 140010008 <vmcs>
   14000ad30:	48 8b 40 18          	mov    rax,QWORD PTR [rax+0x18]
   14000ad34:	88 45 ff             	mov    BYTE PTR [rbp-0x1],al
   14000ad37:	48 8b 05 ca 52 00 00 	mov    rax,QWORD PTR [rip+0x52ca]        # 140010008 <vmcs>
   14000ad3e:	48 8b 40 20          	mov    rax,QWORD PTR [rax+0x20]
   14000ad42:	88 45 fe             	mov    BYTE PTR [rbp-0x2],al
   14000ad45:	48 8b 05 bc 52 00 00 	mov    rax,QWORD PTR [rip+0x52bc]        # 140010008 <vmcs>
   14000ad4c:	48 8b 40 28          	mov    rax,QWORD PTR [rax+0x28]
   14000ad50:	88 45 fd             	mov    BYTE PTR [rbp-0x3],al
   14000ad53:	48 8b 05 ae 52 00 00 	mov    rax,QWORD PTR [rip+0x52ae]        # 140010008 <vmcs>
   14000ad5a:	0f b6 55 fe          	movzx  edx,BYTE PTR [rbp-0x2]
   14000ad5e:	48 63 d2             	movsxd rdx,edx
   14000ad61:	48 83 c2 22          	add    rdx,0x22
   14000ad65:	48 8b 44 d0 08       	mov    rax,QWORD PTR [rax+rdx*8+0x8]
   14000ad6a:	48 89 45 f0          	mov    QWORD PTR [rbp-0x10],rax
   14000ad6e:	48 8b 05 93 52 00 00 	mov    rax,QWORD PTR [rip+0x5293]        # 140010008 <vmcs>
   14000ad75:	0f b6 55 fd          	movzx  edx,BYTE PTR [rbp-0x3]
   14000ad79:	48 63 d2             	movsxd rdx,edx
   14000ad7c:	48 83 c2 22          	add    rdx,0x22
   14000ad80:	48 8b 44 d0 08       	mov    rax,QWORD PTR [rax+rdx*8+0x8]
   14000ad85:	89 45 e8             	mov    DWORD PTR [rbp-0x18],eax
   14000ad88:	48 8b 05 71 52 00 00 	mov    rax,QWORD PTR [rip+0x5271]        # 140010000 <__data_start__>
   14000ad8f:	4c 8b 40 30          	mov    r8,QWORD PTR [rax+0x30]
   14000ad93:	48 8b 05 76 52 00 00 	mov    rax,QWORD PTR [rip+0x5276]        # 140010010 <vmcs_mutex>
   14000ad9a:	ba ff ff ff ff       	mov    edx,0xffffffff
   14000ad9f:	48 89 c1             	mov    rcx,rax
   14000ada2:	41 ff d0             	call   r8
   14000ada5:	48 8b 45 f0          	mov    rax,QWORD PTR [rbp-0x10]
   14000ada9:	8b 00                	mov    eax,DWORD PTR [rax]
   14000adab:	89 45 ec             	mov    DWORD PTR [rbp-0x14],eax
   14000adae:	8b 45 ec             	mov    eax,DWORD PTR [rbp-0x14]
   14000adb1:	3b 45 e8             	cmp    eax,DWORD PTR [rbp-0x18]
   14000adb4:	7d 05                	jge    14000adbb <_ZN5rvm6410operations5rtype11rv_amomax_wEv+0xbc>
   14000adb6:	8b 45 e8             	mov    eax,DWORD PTR [rbp-0x18]
   14000adb9:	eb 03                	jmp    14000adbe <_ZN5rvm6410operations5rtype11rv_amomax_wEv+0xbf>
   14000adbb:	8b 45 ec             	mov    eax,DWORD PTR [rbp-0x14]
   14000adbe:	48 8b 55 f0          	mov    rdx,QWORD PTR [rbp-0x10]
   14000adc2:	89 02                	mov    DWORD PTR [rdx],eax
   14000adc4:	48 8b 05 3d 52 00 00 	mov    rax,QWORD PTR [rip+0x523d]        # 140010008 <vmcs>
   14000adcb:	0f b6 4d ff          	movzx  ecx,BYTE PTR [rbp-0x1]
   14000adcf:	8b 55 ec             	mov    edx,DWORD PTR [rbp-0x14]
   14000add2:	48 63 d2             	movsxd rdx,edx
   14000add5:	48 63 c9             	movsxd rcx,ecx
   14000add8:	48 83 c1 22          	add    rcx,0x22
   14000addc:	48 89 54 c8 08       	mov    QWORD PTR [rax+rcx*8+0x8],rdx
   14000ade1:	48 8b 05 18 52 00 00 	mov    rax,QWORD PTR [rip+0x5218]        # 140010000 <__data_start__>
   14000ade8:	48 8b 50 40          	mov    rdx,QWORD PTR [rax+0x40]
   14000adec:	48 8b 05 1d 52 00 00 	mov    rax,QWORD PTR [rip+0x521d]        # 140010010 <vmcs_mutex>
   14000adf3:	48 89 c1             	mov    rcx,rax
   14000adf6:	ff d2                	call   rdx
   14000adf8:	90                   	nop
   14000adf9:	48 83 c4 40          	add    rsp,0x40
   14000adfd:	5d                   	pop    rbp
   14000adfe:	c3                   	ret

000000014000adff <_ZN5rvm6410operations5rtype12rv_amominu_wEv>:
   14000adff:	55                   	push   rbp
   14000ae00:	48 89 e5             	mov    rbp,rsp
   14000ae03:	48 83 ec 40          	sub    rsp,0x40
   14000ae07:	c6 45 ff 00          	mov    BYTE PTR [rbp-0x1],0x0
   14000ae0b:	c6 45 fe 00          	mov    BYTE PTR [rbp-0x2],0x0
   14000ae0f:	c6 45 fd 00          	mov    BYTE PTR [rbp-0x3],0x0
   14000ae13:	48 c7 45 f0 00 00 00 	mov    QWORD PTR [rbp-0x10],0x0
   14000ae1a:	00 
   14000ae1b:	c7 45 ec 00 00 00 00 	mov    DWORD PTR [rbp-0x14],0x0
   14000ae22:	c7 45 e8 00 00 00 00 	mov    DWORD PTR [rbp-0x18],0x0
   14000ae29:	48 8b 05 d8 51 00 00 	mov    rax,QWORD PTR [rip+0x51d8]        # 140010008 <vmcs>
   14000ae30:	48 8b 40 18          	mov    rax,QWORD PTR [rax+0x18]
   14000ae34:	88 45 ff             	mov    BYTE PTR [rbp-0x1],al
   14000ae37:	48 8b 05 ca 51 00 00 	mov    rax,QWORD PTR [rip+0x51ca]        # 140010008 <vmcs>
   14000ae3e:	48 8b 40 20          	mov    rax,QWORD PTR [rax+0x20]
   14000ae42:	88 45 fe             	mov    BYTE PTR [rbp-0x2],al
   14000ae45:	48 8b 05 bc 51 00 00 	mov    rax,QWORD PTR [rip+0x51bc]        # 140010008 <vmcs>
   14000ae4c:	48 8b 40 28          	mov    rax,QWORD PTR [rax+0x28]
   14000ae50:	88 45 fd             	mov    BYTE PTR [rbp-0x3],al
   14000ae53:	48 8b 05 ae 51 00 00 	mov    rax,QWORD PTR [rip+0x51ae]        # 140010008 <vmcs>
   14000ae5a:	0f b6 55 fe          	movzx  edx,BYTE PTR [rbp-0x2]
   14000ae5e:	48 63 d2             	movsxd rdx,edx
   14000ae61:	48 83 c2 22          	add    rdx,0x22
   14000ae65:	48 8b 44 d0 08       	mov    rax,QWORD PTR [rax+rdx*8+0x8]
   14000ae6a:	48 89 45 f0          	mov    QWORD PTR [rbp-0x10],rax
   14000ae6e:	48 8b 05 93 51 00 00 	mov    rax,QWORD PTR [rip+0x5193]        # 140010008 <vmcs>
   14000ae75:	0f b6 55 fd          	movzx  edx,BYTE PTR [rbp-0x3]
   14000ae79:	48 63 d2             	movsxd rdx,edx
   14000ae7c:	48 83 c2 22          	add    rdx,0x22
   14000ae80:	48 8b 44 d0 08       	mov    rax,QWORD PTR [rax+rdx*8+0x8]
   14000ae85:	89 45 e8             	mov    DWORD PTR [rbp-0x18],eax
   14000ae88:	48 8b 05 71 51 00 00 	mov    rax,QWORD PTR [rip+0x5171]        # 140010000 <__data_start__>
   14000ae8f:	4c 8b 40 30          	mov    r8,QWORD PTR [rax+0x30]
   14000ae93:	48 8b 05 76 51 00 00 	mov    rax,QWORD PTR [rip+0x5176]        # 140010010 <vmcs_mutex>
   14000ae9a:	ba ff ff ff ff       	mov    edx,0xffffffff
   14000ae9f:	48 89 c1             	mov    rcx,rax
   14000aea2:	41 ff d0             	call   r8
   14000aea5:	48 8b 45 f0          	mov    rax,QWORD PTR [rbp-0x10]
   14000aea9:	8b 00                	mov    eax,DWORD PTR [rax]
   14000aeab:	89 45 ec             	mov    DWORD PTR [rbp-0x14],eax
   14000aeae:	8b 45 ec             	mov    eax,DWORD PTR [rbp-0x14]
   14000aeb1:	3b 45 e8             	cmp    eax,DWORD PTR [rbp-0x18]
   14000aeb4:	73 05                	jae    14000aebb <_ZN5rvm6410operations5rtype12rv_amominu_wEv+0xbc>
   14000aeb6:	8b 45 ec             	mov    eax,DWORD PTR [rbp-0x14]
   14000aeb9:	eb 03                	jmp    14000aebe <_ZN5rvm6410operations5rtype12rv_amominu_wEv+0xbf>
   14000aebb:	8b 45 e8             	mov    eax,DWORD PTR [rbp-0x18]
   14000aebe:	48 8b 55 f0          	mov    rdx,QWORD PTR [rbp-0x10]
   14000aec2:	89 02                	mov    DWORD PTR [rdx],eax
   14000aec4:	48 8b 05 3d 51 00 00 	mov    rax,QWORD PTR [rip+0x513d]        # 140010008 <vmcs>
   14000aecb:	0f b6 4d ff          	movzx  ecx,BYTE PTR [rbp-0x1]
   14000aecf:	8b 55 ec             	mov    edx,DWORD PTR [rbp-0x14]
   14000aed2:	48 63 c9             	movsxd rcx,ecx
   14000aed5:	48 83 c1 22          	add    rcx,0x22
   14000aed9:	48 89 54 c8 08       	mov    QWORD PTR [rax+rcx*8+0x8],rdx
   14000aede:	48 8b 05 1b 51 00 00 	mov    rax,QWORD PTR [rip+0x511b]        # 140010000 <__data_start__>
   14000aee5:	48 8b 50 40          	mov    rdx,QWORD PTR [rax+0x40]
   14000aee9:	48 8b 05 20 51 00 00 	mov    rax,QWORD PTR [rip+0x5120]        # 140010010 <vmcs_mutex>
   14000aef0:	48 89 c1             	mov    rcx,rax
   14000aef3:	ff d2                	call   rdx
   14000aef5:	90                   	nop
   14000aef6:	48 83 c4 40          	add    rsp,0x40
   14000aefa:	5d                   	pop    rbp
   14000aefb:	c3                   	ret

000000014000aefc <_ZN5rvm6410operations5rtype12rv_amomaxu_wEv>:
   14000aefc:	55                   	push   rbp
   14000aefd:	48 89 e5             	mov    rbp,rsp
   14000af00:	48 83 ec 40          	sub    rsp,0x40
   14000af04:	c6 45 ff 00          	mov    BYTE PTR [rbp-0x1],0x0
   14000af08:	c6 45 fe 00          	mov    BYTE PTR [rbp-0x2],0x0
   14000af0c:	c6 45 fd 00          	mov    BYTE PTR [rbp-0x3],0x0
   14000af10:	48 c7 45 f0 00 00 00 	mov    QWORD PTR [rbp-0x10],0x0
   14000af17:	00 
   14000af18:	c7 45 ec 00 00 00 00 	mov    DWORD PTR [rbp-0x14],0x0
   14000af1f:	c7 45 e8 00 00 00 00 	mov    DWORD PTR [rbp-0x18],0x0
   14000af26:	48 8b 05 db 50 00 00 	mov    rax,QWORD PTR [rip+0x50db]        # 140010008 <vmcs>
   14000af2d:	48 8b 40 18          	mov    rax,QWORD PTR [rax+0x18]
   14000af31:	88 45 ff             	mov    BYTE PTR [rbp-0x1],al
   14000af34:	48 8b 05 cd 50 00 00 	mov    rax,QWORD PTR [rip+0x50cd]        # 140010008 <vmcs>
   14000af3b:	48 8b 40 20          	mov    rax,QWORD PTR [rax+0x20]
   14000af3f:	88 45 fe             	mov    BYTE PTR [rbp-0x2],al
   14000af42:	48 8b 05 bf 50 00 00 	mov    rax,QWORD PTR [rip+0x50bf]        # 140010008 <vmcs>
   14000af49:	48 8b 40 28          	mov    rax,QWORD PTR [rax+0x28]
   14000af4d:	88 45 fd             	mov    BYTE PTR [rbp-0x3],al
   14000af50:	48 8b 05 b1 50 00 00 	mov    rax,QWORD PTR [rip+0x50b1]        # 140010008 <vmcs>
   14000af57:	0f b6 55 fe          	movzx  edx,BYTE PTR [rbp-0x2]
   14000af5b:	48 63 d2             	movsxd rdx,edx
   14000af5e:	48 83 c2 22          	add    rdx,0x22
   14000af62:	48 8b 44 d0 08       	mov    rax,QWORD PTR [rax+rdx*8+0x8]
   14000af67:	48 89 45 f0          	mov    QWORD PTR [rbp-0x10],rax
   14000af6b:	48 8b 05 96 50 00 00 	mov    rax,QWORD PTR [rip+0x5096]        # 140010008 <vmcs>
   14000af72:	0f b6 55 fd          	movzx  edx,BYTE PTR [rbp-0x3]
   14000af76:	48 63 d2             	movsxd rdx,edx
   14000af79:	48 83 c2 22          	add    rdx,0x22
   14000af7d:	48 8b 44 d0 08       	mov    rax,QWORD PTR [rax+rdx*8+0x8]
   14000af82:	89 45 e8             	mov    DWORD PTR [rbp-0x18],eax
   14000af85:	48 8b 05 74 50 00 00 	mov    rax,QWORD PTR [rip+0x5074]        # 140010000 <__data_start__>
   14000af8c:	4c 8b 40 30          	mov    r8,QWORD PTR [rax+0x30]
   14000af90:	48 8b 05 79 50 00 00 	mov    rax,QWORD PTR [rip+0x5079]        # 140010010 <vmcs_mutex>
   14000af97:	ba ff ff ff ff       	mov    edx,0xffffffff
   14000af9c:	48 89 c1             	mov    rcx,rax
   14000af9f:	41 ff d0             	call   r8
   14000afa2:	48 8b 45 f0          	mov    rax,QWORD PTR [rbp-0x10]
   14000afa6:	8b 00                	mov    eax,DWORD PTR [rax]
   14000afa8:	89 45 ec             	mov    DWORD PTR [rbp-0x14],eax
   14000afab:	8b 45 ec             	mov    eax,DWORD PTR [rbp-0x14]
   14000afae:	3b 45 e8             	cmp    eax,DWORD PTR [rbp-0x18]
   14000afb1:	73 05                	jae    14000afb8 <_ZN5rvm6410operations5rtype12rv_amomaxu_wEv+0xbc>
   14000afb3:	8b 45 e8             	mov    eax,DWORD PTR [rbp-0x18]
   14000afb6:	eb 03                	jmp    14000afbb <_ZN5rvm6410operations5rtype12rv_amomaxu_wEv+0xbf>
   14000afb8:	8b 45 ec             	mov    eax,DWORD PTR [rbp-0x14]
   14000afbb:	48 8b 55 f0          	mov    rdx,QWORD PTR [rbp-0x10]
   14000afbf:	89 02                	mov    DWORD PTR [rdx],eax
   14000afc1:	48 8b 05 40 50 00 00 	mov    rax,QWORD PTR [rip+0x5040]        # 140010008 <vmcs>
   14000afc8:	0f b6 4d ff          	movzx  ecx,BYTE PTR [rbp-0x1]
   14000afcc:	8b 55 ec             	mov    edx,DWORD PTR [rbp-0x14]
   14000afcf:	48 63 c9             	movsxd rcx,ecx
   14000afd2:	48 83 c1 22          	add    rcx,0x22
   14000afd6:	48 89 54 c8 08       	mov    QWORD PTR [rax+rcx*8+0x8],rdx
   14000afdb:	48 8b 05 1e 50 00 00 	mov    rax,QWORD PTR [rip+0x501e]        # 140010000 <__data_start__>
   14000afe2:	48 8b 50 40          	mov    rdx,QWORD PTR [rax+0x40]
   14000afe6:	48 8b 05 23 50 00 00 	mov    rax,QWORD PTR [rip+0x5023]        # 140010010 <vmcs_mutex>
   14000afed:	48 89 c1             	mov    rcx,rax
   14000aff0:	ff d2                	call   rdx
   14000aff2:	90                   	nop
   14000aff3:	48 83 c4 40          	add    rsp,0x40
   14000aff7:	5d                   	pop    rbp
   14000aff8:	c3                   	ret

000000014000aff9 <_ZN5rvm6410operations5utype6rv_luiEv>:
   14000aff9:	55                   	push   rbp
   14000affa:	48 89 e5             	mov    rbp,rsp
   14000affd:	48 83 ec 10          	sub    rsp,0x10
   14000b001:	c6 45 ff 00          	mov    BYTE PTR [rbp-0x1],0x0
   14000b005:	c7 45 f8 00 00 00 00 	mov    DWORD PTR [rbp-0x8],0x0
   14000b00c:	48 8b 05 f5 4f 00 00 	mov    rax,QWORD PTR [rip+0x4ff5]        # 140010008 <vmcs>
   14000b013:	48 8b 40 18          	mov    rax,QWORD PTR [rax+0x18]
   14000b017:	88 45 ff             	mov    BYTE PTR [rbp-0x1],al
   14000b01a:	48 8b 05 e7 4f 00 00 	mov    rax,QWORD PTR [rip+0x4fe7]        # 140010008 <vmcs>
   14000b021:	48 8b 40 38          	mov    rax,QWORD PTR [rax+0x38]
   14000b025:	89 45 f8             	mov    DWORD PTR [rbp-0x8],eax
   14000b028:	48 8b 05 d9 4f 00 00 	mov    rax,QWORD PTR [rip+0x4fd9]        # 140010008 <vmcs>
   14000b02f:	0f b6 4d ff          	movzx  ecx,BYTE PTR [rbp-0x1]
   14000b033:	8b 55 f8             	mov    edx,DWORD PTR [rbp-0x8]
   14000b036:	48 63 d2             	movsxd rdx,edx
   14000b039:	48 63 c9             	movsxd rcx,ecx
   14000b03c:	48 83 c1 22          	add    rcx,0x22
   14000b040:	48 89 54 c8 08       	mov    QWORD PTR [rax+rcx*8+0x8],rdx
   14000b045:	90                   	nop
   14000b046:	48 83 c4 10          	add    rsp,0x10
   14000b04a:	5d                   	pop    rbp
   14000b04b:	c3                   	ret

000000014000b04c <_ZN5rvm6410operations5utype8rv_auipcEv>:
   14000b04c:	55                   	push   rbp
   14000b04d:	48 89 e5             	mov    rbp,rsp
   14000b050:	48 83 ec 10          	sub    rsp,0x10
   14000b054:	c6 45 ff 00          	mov    BYTE PTR [rbp-0x1],0x0
   14000b058:	c7 45 f8 00 00 00 00 	mov    DWORD PTR [rbp-0x8],0x0
   14000b05f:	48 8b 05 a2 4f 00 00 	mov    rax,QWORD PTR [rip+0x4fa2]        # 140010008 <vmcs>
   14000b066:	48 8b 40 18          	mov    rax,QWORD PTR [rax+0x18]
   14000b06a:	88 45 ff             	mov    BYTE PTR [rbp-0x1],al
   14000b06d:	48 8b 05 94 4f 00 00 	mov    rax,QWORD PTR [rip+0x4f94]        # 140010008 <vmcs>
   14000b074:	48 8b 40 38          	mov    rax,QWORD PTR [rax+0x38]
   14000b078:	89 45 f8             	mov    DWORD PTR [rbp-0x8],eax
   14000b07b:	48 8b 05 86 4f 00 00 	mov    rax,QWORD PTR [rip+0x4f86]        # 140010008 <vmcs>
   14000b082:	48 8b 00             	mov    rax,QWORD PTR [rax]
   14000b085:	48 89 c2             	mov    rdx,rax
   14000b088:	8b 45 f8             	mov    eax,DWORD PTR [rbp-0x8]
   14000b08b:	48 98                	cdqe
   14000b08d:	48 8d 0c 02          	lea    rcx,[rdx+rax*1]
   14000b091:	48 8b 05 70 4f 00 00 	mov    rax,QWORD PTR [rip+0x4f70]        # 140010008 <vmcs>
   14000b098:	0f b6 55 ff          	movzx  edx,BYTE PTR [rbp-0x1]
   14000b09c:	48 63 d2             	movsxd rdx,edx
   14000b09f:	48 83 c2 22          	add    rdx,0x22
   14000b0a3:	48 89 4c d0 08       	mov    QWORD PTR [rax+rdx*8+0x8],rcx
   14000b0a8:	90                   	nop
   14000b0a9:	48 83 c4 10          	add    rsp,0x10
   14000b0ad:	5d                   	pop    rbp
   14000b0ae:	c3                   	ret

000000014000b0af <_ZN5rvm6410operations5jtype6rv_jalEv>:
   14000b0af:	55                   	push   rbp
   14000b0b0:	48 89 e5             	mov    rbp,rsp
   14000b0b3:	48 83 ec 10          	sub    rsp,0x10
   14000b0b7:	c6 45 ff 00          	mov    BYTE PTR [rbp-0x1],0x0
   14000b0bb:	48 c7 45 f0 00 00 00 	mov    QWORD PTR [rbp-0x10],0x0
   14000b0c2:	00 
   14000b0c3:	48 8b 05 3e 4f 00 00 	mov    rax,QWORD PTR [rip+0x4f3e]        # 140010008 <vmcs>
   14000b0ca:	48 8b 40 18          	mov    rax,QWORD PTR [rax+0x18]
   14000b0ce:	88 45 ff             	mov    BYTE PTR [rbp-0x1],al
   14000b0d1:	48 8b 05 30 4f 00 00 	mov    rax,QWORD PTR [rip+0x4f30]        # 140010008 <vmcs>
   14000b0d8:	48 8b 40 38          	mov    rax,QWORD PTR [rax+0x38]
   14000b0dc:	48 89 45 f0          	mov    QWORD PTR [rbp-0x10],rax
   14000b0e0:	48 8b 05 21 4f 00 00 	mov    rax,QWORD PTR [rip+0x4f21]        # 140010008 <vmcs>
   14000b0e7:	48 8b 08             	mov    rcx,QWORD PTR [rax]
   14000b0ea:	48 8b 05 17 4f 00 00 	mov    rax,QWORD PTR [rip+0x4f17]        # 140010008 <vmcs>
   14000b0f1:	0f b6 55 ff          	movzx  edx,BYTE PTR [rbp-0x1]
   14000b0f5:	48 83 c1 04          	add    rcx,0x4
   14000b0f9:	48 63 d2             	movsxd rdx,edx
   14000b0fc:	48 83 c2 22          	add    rdx,0x22
   14000b100:	48 89 4c d0 08       	mov    QWORD PTR [rax+rdx*8+0x8],rcx
   14000b105:	48 8b 05 fc 4e 00 00 	mov    rax,QWORD PTR [rip+0x4efc]        # 140010008 <vmcs>
   14000b10c:	48 8b 08             	mov    rcx,QWORD PTR [rax]
   14000b10f:	48 8b 55 f0          	mov    rdx,QWORD PTR [rbp-0x10]
   14000b113:	48 8b 05 ee 4e 00 00 	mov    rax,QWORD PTR [rip+0x4eee]        # 140010008 <vmcs>
   14000b11a:	48 01 ca             	add    rdx,rcx
   14000b11d:	48 89 10             	mov    QWORD PTR [rax],rdx
   14000b120:	90                   	nop
   14000b121:	48 83 c4 10          	add    rsp,0x10
   14000b125:	5d                   	pop    rbp
   14000b126:	c3                   	ret

000000014000b127 <_ZN5rvm6410operations5btype6rv_beqEv>:
   14000b127:	55                   	push   rbp
   14000b128:	48 89 e5             	mov    rbp,rsp
   14000b12b:	48 83 ec 20          	sub    rsp,0x20
   14000b12f:	c6 45 ff 00          	mov    BYTE PTR [rbp-0x1],0x0
   14000b133:	c6 45 fe 00          	mov    BYTE PTR [rbp-0x2],0x0
   14000b137:	c7 45 f8 00 00 00 00 	mov    DWORD PTR [rbp-0x8],0x0
   14000b13e:	c7 45 f4 00 00 00 00 	mov    DWORD PTR [rbp-0xc],0x0
   14000b145:	48 c7 45 e8 00 00 00 	mov    QWORD PTR [rbp-0x18],0x0
   14000b14c:	00 
   14000b14d:	48 8b 05 b4 4e 00 00 	mov    rax,QWORD PTR [rip+0x4eb4]        # 140010008 <vmcs>
   14000b154:	48 8b 40 20          	mov    rax,QWORD PTR [rax+0x20]
   14000b158:	88 45 ff             	mov    BYTE PTR [rbp-0x1],al
   14000b15b:	48 8b 05 a6 4e 00 00 	mov    rax,QWORD PTR [rip+0x4ea6]        # 140010008 <vmcs>
   14000b162:	48 8b 40 28          	mov    rax,QWORD PTR [rax+0x28]
   14000b166:	88 45 fe             	mov    BYTE PTR [rbp-0x2],al
   14000b169:	48 8b 05 98 4e 00 00 	mov    rax,QWORD PTR [rip+0x4e98]        # 140010008 <vmcs>
   14000b170:	48 8b 40 38          	mov    rax,QWORD PTR [rax+0x38]
   14000b174:	48 89 45 e8          	mov    QWORD PTR [rbp-0x18],rax
   14000b178:	48 8b 05 89 4e 00 00 	mov    rax,QWORD PTR [rip+0x4e89]        # 140010008 <vmcs>
   14000b17f:	0f b6 55 ff          	movzx  edx,BYTE PTR [rbp-0x1]
   14000b183:	48 63 d2             	movsxd rdx,edx
   14000b186:	48 83 c2 22          	add    rdx,0x22
   14000b18a:	48 8b 44 d0 08       	mov    rax,QWORD PTR [rax+rdx*8+0x8]
   14000b18f:	89 45 f8             	mov    DWORD PTR [rbp-0x8],eax
   14000b192:	48 8b 05 6f 4e 00 00 	mov    rax,QWORD PTR [rip+0x4e6f]        # 140010008 <vmcs>
   14000b199:	0f b6 55 fe          	movzx  edx,BYTE PTR [rbp-0x2]
   14000b19d:	48 63 d2             	movsxd rdx,edx
   14000b1a0:	48 83 c2 22          	add    rdx,0x22
   14000b1a4:	48 8b 44 d0 08       	mov    rax,QWORD PTR [rax+rdx*8+0x8]
   14000b1a9:	89 45 f4             	mov    DWORD PTR [rbp-0xc],eax
   14000b1ac:	8b 45 f8             	mov    eax,DWORD PTR [rbp-0x8]
   14000b1af:	3b 45 f4             	cmp    eax,DWORD PTR [rbp-0xc]
   14000b1b2:	75 1b                	jne    14000b1cf <_ZN5rvm6410operations5btype6rv_beqEv+0xa8>
   14000b1b4:	48 8b 05 4d 4e 00 00 	mov    rax,QWORD PTR [rip+0x4e4d]        # 140010008 <vmcs>
   14000b1bb:	48 8b 08             	mov    rcx,QWORD PTR [rax]
   14000b1be:	48 8b 55 e8          	mov    rdx,QWORD PTR [rbp-0x18]
   14000b1c2:	48 8b 05 3f 4e 00 00 	mov    rax,QWORD PTR [rip+0x4e3f]        # 140010008 <vmcs>
   14000b1c9:	48 01 ca             	add    rdx,rcx
   14000b1cc:	48 89 10             	mov    QWORD PTR [rax],rdx
   14000b1cf:	90                   	nop
   14000b1d0:	48 83 c4 20          	add    rsp,0x20
   14000b1d4:	5d                   	pop    rbp
   14000b1d5:	c3                   	ret

000000014000b1d6 <_ZN5rvm6410operations5btype6rv_bneEv>:
   14000b1d6:	55                   	push   rbp
   14000b1d7:	48 89 e5             	mov    rbp,rsp
   14000b1da:	48 83 ec 20          	sub    rsp,0x20
   14000b1de:	c6 45 ff 00          	mov    BYTE PTR [rbp-0x1],0x0
   14000b1e2:	c6 45 fe 00          	mov    BYTE PTR [rbp-0x2],0x0
   14000b1e6:	c7 45 f8 00 00 00 00 	mov    DWORD PTR [rbp-0x8],0x0
   14000b1ed:	c7 45 f4 00 00 00 00 	mov    DWORD PTR [rbp-0xc],0x0
   14000b1f4:	48 c7 45 e8 00 00 00 	mov    QWORD PTR [rbp-0x18],0x0
   14000b1fb:	00 
   14000b1fc:	48 8b 05 05 4e 00 00 	mov    rax,QWORD PTR [rip+0x4e05]        # 140010008 <vmcs>
   14000b203:	48 8b 40 20          	mov    rax,QWORD PTR [rax+0x20]
   14000b207:	88 45 ff             	mov    BYTE PTR [rbp-0x1],al
   14000b20a:	48 8b 05 f7 4d 00 00 	mov    rax,QWORD PTR [rip+0x4df7]        # 140010008 <vmcs>
   14000b211:	48 8b 40 28          	mov    rax,QWORD PTR [rax+0x28]
   14000b215:	88 45 fe             	mov    BYTE PTR [rbp-0x2],al
   14000b218:	48 8b 05 e9 4d 00 00 	mov    rax,QWORD PTR [rip+0x4de9]        # 140010008 <vmcs>
   14000b21f:	48 8b 40 38          	mov    rax,QWORD PTR [rax+0x38]
   14000b223:	48 89 45 e8          	mov    QWORD PTR [rbp-0x18],rax
   14000b227:	48 8b 05 da 4d 00 00 	mov    rax,QWORD PTR [rip+0x4dda]        # 140010008 <vmcs>
   14000b22e:	0f b6 55 ff          	movzx  edx,BYTE PTR [rbp-0x1]
   14000b232:	48 63 d2             	movsxd rdx,edx
   14000b235:	48 83 c2 22          	add    rdx,0x22
   14000b239:	48 8b 44 d0 08       	mov    rax,QWORD PTR [rax+rdx*8+0x8]
   14000b23e:	89 45 f8             	mov    DWORD PTR [rbp-0x8],eax
   14000b241:	48 8b 05 c0 4d 00 00 	mov    rax,QWORD PTR [rip+0x4dc0]        # 140010008 <vmcs>
   14000b248:	0f b6 55 fe          	movzx  edx,BYTE PTR [rbp-0x2]
   14000b24c:	48 63 d2             	movsxd rdx,edx
   14000b24f:	48 83 c2 22          	add    rdx,0x22
   14000b253:	48 8b 44 d0 08       	mov    rax,QWORD PTR [rax+rdx*8+0x8]
   14000b258:	89 45 f4             	mov    DWORD PTR [rbp-0xc],eax
   14000b25b:	8b 45 f8             	mov    eax,DWORD PTR [rbp-0x8]
   14000b25e:	3b 45 f4             	cmp    eax,DWORD PTR [rbp-0xc]
   14000b261:	74 1b                	je     14000b27e <_ZN5rvm6410operations5btype6rv_bneEv+0xa8>
   14000b263:	48 8b 05 9e 4d 00 00 	mov    rax,QWORD PTR [rip+0x4d9e]        # 140010008 <vmcs>
   14000b26a:	48 8b 08             	mov    rcx,QWORD PTR [rax]
   14000b26d:	48 8b 55 e8          	mov    rdx,QWORD PTR [rbp-0x18]
   14000b271:	48 8b 05 90 4d 00 00 	mov    rax,QWORD PTR [rip+0x4d90]        # 140010008 <vmcs>
   14000b278:	48 01 ca             	add    rdx,rcx
   14000b27b:	48 89 10             	mov    QWORD PTR [rax],rdx
   14000b27e:	90                   	nop
   14000b27f:	48 83 c4 20          	add    rsp,0x20
   14000b283:	5d                   	pop    rbp
   14000b284:	c3                   	ret

000000014000b285 <_ZN5rvm6410operations5btype6rv_bltEv>:
   14000b285:	55                   	push   rbp
   14000b286:	48 89 e5             	mov    rbp,rsp
   14000b289:	48 83 ec 20          	sub    rsp,0x20
   14000b28d:	c6 45 ff 00          	mov    BYTE PTR [rbp-0x1],0x0
   14000b291:	c6 45 fe 00          	mov    BYTE PTR [rbp-0x2],0x0
   14000b295:	c7 45 f8 00 00 00 00 	mov    DWORD PTR [rbp-0x8],0x0
   14000b29c:	c7 45 f4 00 00 00 00 	mov    DWORD PTR [rbp-0xc],0x0
   14000b2a3:	48 c7 45 e8 00 00 00 	mov    QWORD PTR [rbp-0x18],0x0
   14000b2aa:	00 
   14000b2ab:	48 8b 05 56 4d 00 00 	mov    rax,QWORD PTR [rip+0x4d56]        # 140010008 <vmcs>
   14000b2b2:	48 8b 40 20          	mov    rax,QWORD PTR [rax+0x20]
   14000b2b6:	88 45 ff             	mov    BYTE PTR [rbp-0x1],al
   14000b2b9:	48 8b 05 48 4d 00 00 	mov    rax,QWORD PTR [rip+0x4d48]        # 140010008 <vmcs>
   14000b2c0:	48 8b 40 28          	mov    rax,QWORD PTR [rax+0x28]
   14000b2c4:	88 45 fe             	mov    BYTE PTR [rbp-0x2],al
   14000b2c7:	48 8b 05 3a 4d 00 00 	mov    rax,QWORD PTR [rip+0x4d3a]        # 140010008 <vmcs>
   14000b2ce:	48 8b 40 38          	mov    rax,QWORD PTR [rax+0x38]
   14000b2d2:	48 89 45 e8          	mov    QWORD PTR [rbp-0x18],rax
   14000b2d6:	48 8b 05 2b 4d 00 00 	mov    rax,QWORD PTR [rip+0x4d2b]        # 140010008 <vmcs>
   14000b2dd:	0f b6 55 ff          	movzx  edx,BYTE PTR [rbp-0x1]
   14000b2e1:	48 63 d2             	movsxd rdx,edx
   14000b2e4:	48 83 c2 22          	add    rdx,0x22
   14000b2e8:	48 8b 44 d0 08       	mov    rax,QWORD PTR [rax+rdx*8+0x8]
   14000b2ed:	89 45 f8             	mov    DWORD PTR [rbp-0x8],eax
   14000b2f0:	48 8b 05 11 4d 00 00 	mov    rax,QWORD PTR [rip+0x4d11]        # 140010008 <vmcs>
   14000b2f7:	0f b6 55 fe          	movzx  edx,BYTE PTR [rbp-0x2]
   14000b2fb:	48 63 d2             	movsxd rdx,edx
   14000b2fe:	48 83 c2 22          	add    rdx,0x22
   14000b302:	48 8b 44 d0 08       	mov    rax,QWORD PTR [rax+rdx*8+0x8]
   14000b307:	89 45 f4             	mov    DWORD PTR [rbp-0xc],eax
   14000b30a:	8b 45 f8             	mov    eax,DWORD PTR [rbp-0x8]
   14000b30d:	3b 45 f4             	cmp    eax,DWORD PTR [rbp-0xc]
   14000b310:	7d 1b                	jge    14000b32d <_ZN5rvm6410operations5btype6rv_bltEv+0xa8>
   14000b312:	48 8b 05 ef 4c 00 00 	mov    rax,QWORD PTR [rip+0x4cef]        # 140010008 <vmcs>
   14000b319:	48 8b 08             	mov    rcx,QWORD PTR [rax]
   14000b31c:	48 8b 55 e8          	mov    rdx,QWORD PTR [rbp-0x18]
   14000b320:	48 8b 05 e1 4c 00 00 	mov    rax,QWORD PTR [rip+0x4ce1]        # 140010008 <vmcs>
   14000b327:	48 01 ca             	add    rdx,rcx
   14000b32a:	48 89 10             	mov    QWORD PTR [rax],rdx
   14000b32d:	90                   	nop
   14000b32e:	48 83 c4 20          	add    rsp,0x20
   14000b332:	5d                   	pop    rbp
   14000b333:	c3                   	ret

000000014000b334 <_ZN5rvm6410operations5btype6rv_bgeEv>:
   14000b334:	55                   	push   rbp
   14000b335:	48 89 e5             	mov    rbp,rsp
   14000b338:	48 83 ec 20          	sub    rsp,0x20
   14000b33c:	c6 45 ff 00          	mov    BYTE PTR [rbp-0x1],0x0
   14000b340:	c6 45 fe 00          	mov    BYTE PTR [rbp-0x2],0x0
   14000b344:	c7 45 f8 00 00 00 00 	mov    DWORD PTR [rbp-0x8],0x0
   14000b34b:	c7 45 f4 00 00 00 00 	mov    DWORD PTR [rbp-0xc],0x0
   14000b352:	48 c7 45 e8 00 00 00 	mov    QWORD PTR [rbp-0x18],0x0
   14000b359:	00 
   14000b35a:	48 8b 05 a7 4c 00 00 	mov    rax,QWORD PTR [rip+0x4ca7]        # 140010008 <vmcs>
   14000b361:	48 8b 40 20          	mov    rax,QWORD PTR [rax+0x20]
   14000b365:	88 45 ff             	mov    BYTE PTR [rbp-0x1],al
   14000b368:	48 8b 05 99 4c 00 00 	mov    rax,QWORD PTR [rip+0x4c99]        # 140010008 <vmcs>
   14000b36f:	48 8b 40 28          	mov    rax,QWORD PTR [rax+0x28]
   14000b373:	88 45 fe             	mov    BYTE PTR [rbp-0x2],al
   14000b376:	48 8b 05 8b 4c 00 00 	mov    rax,QWORD PTR [rip+0x4c8b]        # 140010008 <vmcs>
   14000b37d:	48 8b 40 38          	mov    rax,QWORD PTR [rax+0x38]
   14000b381:	48 89 45 e8          	mov    QWORD PTR [rbp-0x18],rax
   14000b385:	48 8b 05 7c 4c 00 00 	mov    rax,QWORD PTR [rip+0x4c7c]        # 140010008 <vmcs>
   14000b38c:	0f b6 55 ff          	movzx  edx,BYTE PTR [rbp-0x1]
   14000b390:	48 63 d2             	movsxd rdx,edx
   14000b393:	48 83 c2 22          	add    rdx,0x22
   14000b397:	48 8b 44 d0 08       	mov    rax,QWORD PTR [rax+rdx*8+0x8]
   14000b39c:	89 45 f8             	mov    DWORD PTR [rbp-0x8],eax
   14000b39f:	48 8b 05 62 4c 00 00 	mov    rax,QWORD PTR [rip+0x4c62]        # 140010008 <vmcs>
   14000b3a6:	0f b6 55 fe          	movzx  edx,BYTE PTR [rbp-0x2]
   14000b3aa:	48 63 d2             	movsxd rdx,edx
   14000b3ad:	48 83 c2 22          	add    rdx,0x22
   14000b3b1:	48 8b 44 d0 08       	mov    rax,QWORD PTR [rax+rdx*8+0x8]
   14000b3b6:	89 45 f4             	mov    DWORD PTR [rbp-0xc],eax
   14000b3b9:	8b 45 f8             	mov    eax,DWORD PTR [rbp-0x8]
   14000b3bc:	3b 45 f4             	cmp    eax,DWORD PTR [rbp-0xc]
   14000b3bf:	7c 1b                	jl     14000b3dc <_ZN5rvm6410operations5btype6rv_bgeEv+0xa8>
   14000b3c1:	48 8b 05 40 4c 00 00 	mov    rax,QWORD PTR [rip+0x4c40]        # 140010008 <vmcs>
   14000b3c8:	48 8b 08             	mov    rcx,QWORD PTR [rax]
   14000b3cb:	48 8b 55 e8          	mov    rdx,QWORD PTR [rbp-0x18]
   14000b3cf:	48 8b 05 32 4c 00 00 	mov    rax,QWORD PTR [rip+0x4c32]        # 140010008 <vmcs>
   14000b3d6:	48 01 ca             	add    rdx,rcx
   14000b3d9:	48 89 10             	mov    QWORD PTR [rax],rdx
   14000b3dc:	90                   	nop
   14000b3dd:	48 83 c4 20          	add    rsp,0x20
   14000b3e1:	5d                   	pop    rbp
   14000b3e2:	c3                   	ret

000000014000b3e3 <_ZN5rvm6410operations5btype7rv_bltuEv>:
   14000b3e3:	55                   	push   rbp
   14000b3e4:	48 89 e5             	mov    rbp,rsp
   14000b3e7:	48 83 ec 20          	sub    rsp,0x20
   14000b3eb:	c6 45 ff 00          	mov    BYTE PTR [rbp-0x1],0x0
   14000b3ef:	c6 45 fe 00          	mov    BYTE PTR [rbp-0x2],0x0
   14000b3f3:	c7 45 f8 00 00 00 00 	mov    DWORD PTR [rbp-0x8],0x0
   14000b3fa:	c7 45 f4 00 00 00 00 	mov    DWORD PTR [rbp-0xc],0x0
   14000b401:	48 c7 45 e8 00 00 00 	mov    QWORD PTR [rbp-0x18],0x0
   14000b408:	00 
   14000b409:	48 8b 05 f8 4b 00 00 	mov    rax,QWORD PTR [rip+0x4bf8]        # 140010008 <vmcs>
   14000b410:	48 8b 40 20          	mov    rax,QWORD PTR [rax+0x20]
   14000b414:	88 45 ff             	mov    BYTE PTR [rbp-0x1],al
   14000b417:	48 8b 05 ea 4b 00 00 	mov    rax,QWORD PTR [rip+0x4bea]        # 140010008 <vmcs>
   14000b41e:	48 8b 40 28          	mov    rax,QWORD PTR [rax+0x28]
   14000b422:	88 45 fe             	mov    BYTE PTR [rbp-0x2],al
   14000b425:	48 8b 05 dc 4b 00 00 	mov    rax,QWORD PTR [rip+0x4bdc]        # 140010008 <vmcs>
   14000b42c:	48 8b 40 38          	mov    rax,QWORD PTR [rax+0x38]
   14000b430:	48 89 45 e8          	mov    QWORD PTR [rbp-0x18],rax
   14000b434:	48 8b 05 cd 4b 00 00 	mov    rax,QWORD PTR [rip+0x4bcd]        # 140010008 <vmcs>
   14000b43b:	0f b6 55 ff          	movzx  edx,BYTE PTR [rbp-0x1]
   14000b43f:	48 63 d2             	movsxd rdx,edx
   14000b442:	48 83 c2 22          	add    rdx,0x22
   14000b446:	48 8b 44 d0 08       	mov    rax,QWORD PTR [rax+rdx*8+0x8]
   14000b44b:	89 45 f8             	mov    DWORD PTR [rbp-0x8],eax
   14000b44e:	48 8b 05 b3 4b 00 00 	mov    rax,QWORD PTR [rip+0x4bb3]        # 140010008 <vmcs>
   14000b455:	0f b6 55 fe          	movzx  edx,BYTE PTR [rbp-0x2]
   14000b459:	48 63 d2             	movsxd rdx,edx
   14000b45c:	48 83 c2 22          	add    rdx,0x22
   14000b460:	48 8b 44 d0 08       	mov    rax,QWORD PTR [rax+rdx*8+0x8]
   14000b465:	89 45 f4             	mov    DWORD PTR [rbp-0xc],eax
   14000b468:	8b 45 f8             	mov    eax,DWORD PTR [rbp-0x8]
   14000b46b:	3b 45 f4             	cmp    eax,DWORD PTR [rbp-0xc]
   14000b46e:	73 1b                	jae    14000b48b <_ZN5rvm6410operations5btype7rv_bltuEv+0xa8>
   14000b470:	48 8b 05 91 4b 00 00 	mov    rax,QWORD PTR [rip+0x4b91]        # 140010008 <vmcs>
   14000b477:	48 8b 08             	mov    rcx,QWORD PTR [rax]
   14000b47a:	48 8b 55 e8          	mov    rdx,QWORD PTR [rbp-0x18]
   14000b47e:	48 8b 05 83 4b 00 00 	mov    rax,QWORD PTR [rip+0x4b83]        # 140010008 <vmcs>
   14000b485:	48 01 ca             	add    rdx,rcx
   14000b488:	48 89 10             	mov    QWORD PTR [rax],rdx
   14000b48b:	90                   	nop
   14000b48c:	48 83 c4 20          	add    rsp,0x20
   14000b490:	5d                   	pop    rbp
   14000b491:	c3                   	ret

000000014000b492 <_ZN5rvm6410operations5btype7rv_bgeuEv>:
   14000b492:	55                   	push   rbp
   14000b493:	48 89 e5             	mov    rbp,rsp
   14000b496:	48 83 ec 20          	sub    rsp,0x20
   14000b49a:	c6 45 ff 00          	mov    BYTE PTR [rbp-0x1],0x0
   14000b49e:	c6 45 fe 00          	mov    BYTE PTR [rbp-0x2],0x0
   14000b4a2:	c7 45 f8 00 00 00 00 	mov    DWORD PTR [rbp-0x8],0x0
   14000b4a9:	c7 45 f4 00 00 00 00 	mov    DWORD PTR [rbp-0xc],0x0
   14000b4b0:	48 c7 45 e8 00 00 00 	mov    QWORD PTR [rbp-0x18],0x0
   14000b4b7:	00 
   14000b4b8:	48 8b 05 49 4b 00 00 	mov    rax,QWORD PTR [rip+0x4b49]        # 140010008 <vmcs>
   14000b4bf:	48 8b 40 20          	mov    rax,QWORD PTR [rax+0x20]
   14000b4c3:	88 45 ff             	mov    BYTE PTR [rbp-0x1],al
   14000b4c6:	48 8b 05 3b 4b 00 00 	mov    rax,QWORD PTR [rip+0x4b3b]        # 140010008 <vmcs>
   14000b4cd:	48 8b 40 28          	mov    rax,QWORD PTR [rax+0x28]
   14000b4d1:	88 45 fe             	mov    BYTE PTR [rbp-0x2],al
   14000b4d4:	48 8b 05 2d 4b 00 00 	mov    rax,QWORD PTR [rip+0x4b2d]        # 140010008 <vmcs>
   14000b4db:	48 8b 40 38          	mov    rax,QWORD PTR [rax+0x38]
   14000b4df:	48 89 45 e8          	mov    QWORD PTR [rbp-0x18],rax
   14000b4e3:	48 8b 05 1e 4b 00 00 	mov    rax,QWORD PTR [rip+0x4b1e]        # 140010008 <vmcs>
   14000b4ea:	0f b6 55 ff          	movzx  edx,BYTE PTR [rbp-0x1]
   14000b4ee:	48 63 d2             	movsxd rdx,edx
   14000b4f1:	48 83 c2 22          	add    rdx,0x22
   14000b4f5:	48 8b 44 d0 08       	mov    rax,QWORD PTR [rax+rdx*8+0x8]
   14000b4fa:	89 45 f8             	mov    DWORD PTR [rbp-0x8],eax
   14000b4fd:	48 8b 05 04 4b 00 00 	mov    rax,QWORD PTR [rip+0x4b04]        # 140010008 <vmcs>
   14000b504:	0f b6 55 fe          	movzx  edx,BYTE PTR [rbp-0x2]
   14000b508:	48 63 d2             	movsxd rdx,edx
   14000b50b:	48 83 c2 22          	add    rdx,0x22
   14000b50f:	48 8b 44 d0 08       	mov    rax,QWORD PTR [rax+rdx*8+0x8]
   14000b514:	89 45 f4             	mov    DWORD PTR [rbp-0xc],eax
   14000b517:	8b 45 f8             	mov    eax,DWORD PTR [rbp-0x8]
   14000b51a:	3b 45 f4             	cmp    eax,DWORD PTR [rbp-0xc]
   14000b51d:	72 1b                	jb     14000b53a <_ZN5rvm6410operations5btype7rv_bgeuEv+0xa8>
   14000b51f:	48 8b 05 e2 4a 00 00 	mov    rax,QWORD PTR [rip+0x4ae2]        # 140010008 <vmcs>
   14000b526:	48 8b 08             	mov    rcx,QWORD PTR [rax]
   14000b529:	48 8b 55 e8          	mov    rdx,QWORD PTR [rbp-0x18]
   14000b52d:	48 8b 05 d4 4a 00 00 	mov    rax,QWORD PTR [rip+0x4ad4]        # 140010008 <vmcs>
   14000b534:	48 01 ca             	add    rdx,rcx
   14000b537:	48 89 10             	mov    QWORD PTR [rax],rdx
   14000b53a:	90                   	nop
   14000b53b:	48 83 c4 20          	add    rsp,0x20
   14000b53f:	5d                   	pop    rbp
   14000b540:	c3                   	ret

000000014000b541 <_ZN5rvm6410operations5stype5rv_sbEv>:
   14000b541:	55                   	push   rbp
   14000b542:	48 89 e5             	mov    rbp,rsp
   14000b545:	48 83 ec 20          	sub    rsp,0x20
   14000b549:	c6 45 ff 00          	mov    BYTE PTR [rbp-0x1],0x0
   14000b54d:	c6 45 fe 00          	mov    BYTE PTR [rbp-0x2],0x0
   14000b551:	c7 45 f8 00 00 00 00 	mov    DWORD PTR [rbp-0x8],0x0
   14000b558:	48 c7 45 f0 00 00 00 	mov    QWORD PTR [rbp-0x10],0x0
   14000b55f:	00 
   14000b560:	c6 45 ef 00          	mov    BYTE PTR [rbp-0x11],0x0
   14000b564:	48 8b 05 9d 4a 00 00 	mov    rax,QWORD PTR [rip+0x4a9d]        # 140010008 <vmcs>
   14000b56b:	48 8b 40 20          	mov    rax,QWORD PTR [rax+0x20]
   14000b56f:	88 45 ff             	mov    BYTE PTR [rbp-0x1],al
   14000b572:	48 8b 05 8f 4a 00 00 	mov    rax,QWORD PTR [rip+0x4a8f]        # 140010008 <vmcs>
   14000b579:	48 8b 40 28          	mov    rax,QWORD PTR [rax+0x28]
   14000b57d:	88 45 fe             	mov    BYTE PTR [rbp-0x2],al
   14000b580:	48 8b 05 81 4a 00 00 	mov    rax,QWORD PTR [rip+0x4a81]        # 140010008 <vmcs>
   14000b587:	48 8b 40 38          	mov    rax,QWORD PTR [rax+0x38]
   14000b58b:	0f b6 c0             	movzx  eax,al
   14000b58e:	89 45 f8             	mov    DWORD PTR [rbp-0x8],eax
   14000b591:	48 8b 05 70 4a 00 00 	mov    rax,QWORD PTR [rip+0x4a70]        # 140010008 <vmcs>
   14000b598:	0f b6 55 ff          	movzx  edx,BYTE PTR [rbp-0x1]
   14000b59c:	48 63 d2             	movsxd rdx,edx
   14000b59f:	48 83 c2 22          	add    rdx,0x22
   14000b5a3:	48 8b 44 d0 08       	mov    rax,QWORD PTR [rax+rdx*8+0x8]
   14000b5a8:	48 89 45 f0          	mov    QWORD PTR [rbp-0x10],rax
   14000b5ac:	48 8b 05 55 4a 00 00 	mov    rax,QWORD PTR [rip+0x4a55]        # 140010008 <vmcs>
   14000b5b3:	0f b6 55 fe          	movzx  edx,BYTE PTR [rbp-0x2]
   14000b5b7:	48 63 d2             	movsxd rdx,edx
   14000b5ba:	48 83 c2 22          	add    rdx,0x22
   14000b5be:	48 8b 44 d0 08       	mov    rax,QWORD PTR [rax+rdx*8+0x8]
   14000b5c3:	88 45 ef             	mov    BYTE PTR [rbp-0x11],al
   14000b5c6:	8b 45 f8             	mov    eax,DWORD PTR [rbp-0x8]
   14000b5c9:	48 98                	cdqe
   14000b5cb:	48 01 45 f0          	add    QWORD PTR [rbp-0x10],rax
   14000b5cf:	48 8b 45 f0          	mov    rax,QWORD PTR [rbp-0x10]
   14000b5d3:	0f b6 55 ef          	movzx  edx,BYTE PTR [rbp-0x11]
   14000b5d7:	88 10                	mov    BYTE PTR [rax],dl
   14000b5d9:	90                   	nop
   14000b5da:	48 83 c4 20          	add    rsp,0x20
   14000b5de:	5d                   	pop    rbp
   14000b5df:	c3                   	ret

000000014000b5e0 <_ZN5rvm6410operations5stype5rv_shEv>:
   14000b5e0:	55                   	push   rbp
   14000b5e1:	48 89 e5             	mov    rbp,rsp
   14000b5e4:	48 83 ec 20          	sub    rsp,0x20
   14000b5e8:	c6 45 ff 00          	mov    BYTE PTR [rbp-0x1],0x0
   14000b5ec:	c6 45 fe 00          	mov    BYTE PTR [rbp-0x2],0x0
   14000b5f0:	c7 45 f8 00 00 00 00 	mov    DWORD PTR [rbp-0x8],0x0
   14000b5f7:	48 c7 45 f0 00 00 00 	mov    QWORD PTR [rbp-0x10],0x0
   14000b5fe:	00 
   14000b5ff:	66 c7 45 ee 00 00    	mov    WORD PTR [rbp-0x12],0x0
   14000b605:	48 8b 05 fc 49 00 00 	mov    rax,QWORD PTR [rip+0x49fc]        # 140010008 <vmcs>
   14000b60c:	48 8b 40 20          	mov    rax,QWORD PTR [rax+0x20]
   14000b610:	88 45 ff             	mov    BYTE PTR [rbp-0x1],al
   14000b613:	48 8b 05 ee 49 00 00 	mov    rax,QWORD PTR [rip+0x49ee]        # 140010008 <vmcs>
   14000b61a:	48 8b 40 28          	mov    rax,QWORD PTR [rax+0x28]
   14000b61e:	88 45 fe             	mov    BYTE PTR [rbp-0x2],al
   14000b621:	48 8b 05 e0 49 00 00 	mov    rax,QWORD PTR [rip+0x49e0]        # 140010008 <vmcs>
   14000b628:	48 8b 40 38          	mov    rax,QWORD PTR [rax+0x38]
   14000b62c:	0f b6 c0             	movzx  eax,al
   14000b62f:	89 45 f8             	mov    DWORD PTR [rbp-0x8],eax
   14000b632:	48 8b 05 cf 49 00 00 	mov    rax,QWORD PTR [rip+0x49cf]        # 140010008 <vmcs>
   14000b639:	0f b6 55 ff          	movzx  edx,BYTE PTR [rbp-0x1]
   14000b63d:	48 63 d2             	movsxd rdx,edx
   14000b640:	48 83 c2 22          	add    rdx,0x22
   14000b644:	48 8b 44 d0 08       	mov    rax,QWORD PTR [rax+rdx*8+0x8]
   14000b649:	48 89 45 f0          	mov    QWORD PTR [rbp-0x10],rax
   14000b64d:	48 8b 05 b4 49 00 00 	mov    rax,QWORD PTR [rip+0x49b4]        # 140010008 <vmcs>
   14000b654:	0f b6 55 fe          	movzx  edx,BYTE PTR [rbp-0x2]
   14000b658:	48 63 d2             	movsxd rdx,edx
   14000b65b:	48 83 c2 22          	add    rdx,0x22
   14000b65f:	48 8b 44 d0 08       	mov    rax,QWORD PTR [rax+rdx*8+0x8]
   14000b664:	66 89 45 ee          	mov    WORD PTR [rbp-0x12],ax
   14000b668:	8b 45 f8             	mov    eax,DWORD PTR [rbp-0x8]
   14000b66b:	48 98                	cdqe
   14000b66d:	48 01 45 f0          	add    QWORD PTR [rbp-0x10],rax
   14000b671:	48 8b 45 f0          	mov    rax,QWORD PTR [rbp-0x10]
   14000b675:	0f b7 55 ee          	movzx  edx,WORD PTR [rbp-0x12]
   14000b679:	66 89 10             	mov    WORD PTR [rax],dx
   14000b67c:	90                   	nop
   14000b67d:	48 83 c4 20          	add    rsp,0x20
   14000b681:	5d                   	pop    rbp
   14000b682:	c3                   	ret

000000014000b683 <_ZN5rvm6410operations5stype5rv_swEv>:
   14000b683:	55                   	push   rbp
   14000b684:	48 89 e5             	mov    rbp,rsp
   14000b687:	48 83 ec 20          	sub    rsp,0x20
   14000b68b:	c6 45 ff 00          	mov    BYTE PTR [rbp-0x1],0x0
   14000b68f:	c6 45 fe 00          	mov    BYTE PTR [rbp-0x2],0x0
   14000b693:	c7 45 f8 00 00 00 00 	mov    DWORD PTR [rbp-0x8],0x0
   14000b69a:	48 c7 45 f0 00 00 00 	mov    QWORD PTR [rbp-0x10],0x0
   14000b6a1:	00 
   14000b6a2:	c7 45 ec 00 00 00 00 	mov    DWORD PTR [rbp-0x14],0x0
   14000b6a9:	48 8b 05 58 49 00 00 	mov    rax,QWORD PTR [rip+0x4958]        # 140010008 <vmcs>
   14000b6b0:	48 8b 40 20          	mov    rax,QWORD PTR [rax+0x20]
   14000b6b4:	88 45 ff             	mov    BYTE PTR [rbp-0x1],al
   14000b6b7:	48 8b 05 4a 49 00 00 	mov    rax,QWORD PTR [rip+0x494a]        # 140010008 <vmcs>
   14000b6be:	48 8b 40 28          	mov    rax,QWORD PTR [rax+0x28]
   14000b6c2:	88 45 fe             	mov    BYTE PTR [rbp-0x2],al
   14000b6c5:	48 8b 05 3c 49 00 00 	mov    rax,QWORD PTR [rip+0x493c]        # 140010008 <vmcs>
   14000b6cc:	48 8b 40 38          	mov    rax,QWORD PTR [rax+0x38]
   14000b6d0:	0f b6 c0             	movzx  eax,al
   14000b6d3:	89 45 f8             	mov    DWORD PTR [rbp-0x8],eax
   14000b6d6:	48 8b 05 2b 49 00 00 	mov    rax,QWORD PTR [rip+0x492b]        # 140010008 <vmcs>
   14000b6dd:	0f b6 55 ff          	movzx  edx,BYTE PTR [rbp-0x1]
   14000b6e1:	48 63 d2             	movsxd rdx,edx
   14000b6e4:	48 83 c2 22          	add    rdx,0x22
   14000b6e8:	48 8b 44 d0 08       	mov    rax,QWORD PTR [rax+rdx*8+0x8]
   14000b6ed:	48 89 45 f0          	mov    QWORD PTR [rbp-0x10],rax
   14000b6f1:	48 8b 05 10 49 00 00 	mov    rax,QWORD PTR [rip+0x4910]        # 140010008 <vmcs>
   14000b6f8:	0f b6 55 fe          	movzx  edx,BYTE PTR [rbp-0x2]
   14000b6fc:	48 63 d2             	movsxd rdx,edx
   14000b6ff:	48 83 c2 22          	add    rdx,0x22
   14000b703:	48 8b 44 d0 08       	mov    rax,QWORD PTR [rax+rdx*8+0x8]
   14000b708:	89 45 ec             	mov    DWORD PTR [rbp-0x14],eax
   14000b70b:	8b 45 f8             	mov    eax,DWORD PTR [rbp-0x8]
   14000b70e:	48 98                	cdqe
   14000b710:	48 01 45 f0          	add    QWORD PTR [rbp-0x10],rax
   14000b714:	48 8b 45 f0          	mov    rax,QWORD PTR [rbp-0x10]
   14000b718:	8b 55 ec             	mov    edx,DWORD PTR [rbp-0x14]
   14000b71b:	89 10                	mov    DWORD PTR [rax],edx
   14000b71d:	90                   	nop
   14000b71e:	48 83 c4 20          	add    rsp,0x20
   14000b722:	5d                   	pop    rbp
   14000b723:	c3                   	ret

000000014000b724 <_ZN5rvm6410operations5stype5rv_sdEv>:
   14000b724:	55                   	push   rbp
   14000b725:	48 89 e5             	mov    rbp,rsp
   14000b728:	48 83 ec 20          	sub    rsp,0x20
   14000b72c:	c6 45 ff 00          	mov    BYTE PTR [rbp-0x1],0x0
   14000b730:	c6 45 fe 00          	mov    BYTE PTR [rbp-0x2],0x0
   14000b734:	c7 45 f8 00 00 00 00 	mov    DWORD PTR [rbp-0x8],0x0
   14000b73b:	48 c7 45 f0 00 00 00 	mov    QWORD PTR [rbp-0x10],0x0
   14000b742:	00 
   14000b743:	48 c7 45 e8 00 00 00 	mov    QWORD PTR [rbp-0x18],0x0
   14000b74a:	00 
   14000b74b:	48 8b 05 b6 48 00 00 	mov    rax,QWORD PTR [rip+0x48b6]        # 140010008 <vmcs>
   14000b752:	48 8b 40 20          	mov    rax,QWORD PTR [rax+0x20]
   14000b756:	88 45 ff             	mov    BYTE PTR [rbp-0x1],al
   14000b759:	48 8b 05 a8 48 00 00 	mov    rax,QWORD PTR [rip+0x48a8]        # 140010008 <vmcs>
   14000b760:	48 8b 40 28          	mov    rax,QWORD PTR [rax+0x28]
   14000b764:	88 45 fe             	mov    BYTE PTR [rbp-0x2],al
   14000b767:	48 8b 05 9a 48 00 00 	mov    rax,QWORD PTR [rip+0x489a]        # 140010008 <vmcs>
   14000b76e:	48 8b 40 38          	mov    rax,QWORD PTR [rax+0x38]
   14000b772:	0f b6 c0             	movzx  eax,al
   14000b775:	89 45 f8             	mov    DWORD PTR [rbp-0x8],eax
   14000b778:	48 8b 05 89 48 00 00 	mov    rax,QWORD PTR [rip+0x4889]        # 140010008 <vmcs>
   14000b77f:	0f b6 55 ff          	movzx  edx,BYTE PTR [rbp-0x1]
   14000b783:	48 63 d2             	movsxd rdx,edx
   14000b786:	48 83 c2 22          	add    rdx,0x22
   14000b78a:	48 8b 44 d0 08       	mov    rax,QWORD PTR [rax+rdx*8+0x8]
   14000b78f:	48 89 45 f0          	mov    QWORD PTR [rbp-0x10],rax
   14000b793:	48 8b 05 6e 48 00 00 	mov    rax,QWORD PTR [rip+0x486e]        # 140010008 <vmcs>
   14000b79a:	0f b6 55 fe          	movzx  edx,BYTE PTR [rbp-0x2]
   14000b79e:	48 63 d2             	movsxd rdx,edx
   14000b7a1:	48 83 c2 22          	add    rdx,0x22
   14000b7a5:	48 8b 44 d0 08       	mov    rax,QWORD PTR [rax+rdx*8+0x8]
   14000b7aa:	48 89 45 e8          	mov    QWORD PTR [rbp-0x18],rax
   14000b7ae:	8b 45 f8             	mov    eax,DWORD PTR [rbp-0x8]
   14000b7b1:	48 98                	cdqe
   14000b7b3:	48 01 45 f0          	add    QWORD PTR [rbp-0x10],rax
   14000b7b7:	48 8b 45 f0          	mov    rax,QWORD PTR [rbp-0x10]
   14000b7bb:	48 8b 55 e8          	mov    rdx,QWORD PTR [rbp-0x18]
   14000b7bf:	48 89 10             	mov    QWORD PTR [rax],rdx
   14000b7c2:	90                   	nop
   14000b7c3:	48 83 c4 20          	add    rsp,0x20
   14000b7c7:	5d                   	pop    rbp
   14000b7c8:	c3                   	ret

000000014000b7c9 <_ZN5rvm6410operations5stype6rv_fswEv>:
   14000b7c9:	55                   	push   rbp
   14000b7ca:	48 89 e5             	mov    rbp,rsp
   14000b7cd:	48 83 ec 20          	sub    rsp,0x20
   14000b7d1:	c6 45 ff 00          	mov    BYTE PTR [rbp-0x1],0x0
   14000b7d5:	c6 45 fe 00          	mov    BYTE PTR [rbp-0x2],0x0
   14000b7d9:	c7 45 f8 00 00 00 00 	mov    DWORD PTR [rbp-0x8],0x0
   14000b7e0:	48 c7 45 f0 00 00 00 	mov    QWORD PTR [rbp-0x10],0x0
   14000b7e7:	00 
   14000b7e8:	66 0f ef c0          	pxor   xmm0,xmm0
   14000b7ec:	f3 0f 11 45 ec       	movss  DWORD PTR [rbp-0x14],xmm0
   14000b7f1:	48 8b 05 10 48 00 00 	mov    rax,QWORD PTR [rip+0x4810]        # 140010008 <vmcs>
   14000b7f8:	48 8b 40 20          	mov    rax,QWORD PTR [rax+0x20]
   14000b7fc:	88 45 ff             	mov    BYTE PTR [rbp-0x1],al
   14000b7ff:	48 8b 05 02 48 00 00 	mov    rax,QWORD PTR [rip+0x4802]        # 140010008 <vmcs>
   14000b806:	48 8b 40 28          	mov    rax,QWORD PTR [rax+0x28]
   14000b80a:	88 45 fe             	mov    BYTE PTR [rbp-0x2],al
   14000b80d:	48 8b 05 f4 47 00 00 	mov    rax,QWORD PTR [rip+0x47f4]        # 140010008 <vmcs>
   14000b814:	48 8b 40 38          	mov    rax,QWORD PTR [rax+0x38]
   14000b818:	89 45 f8             	mov    DWORD PTR [rbp-0x8],eax
   14000b81b:	48 8b 05 e6 47 00 00 	mov    rax,QWORD PTR [rip+0x47e6]        # 140010008 <vmcs>
   14000b822:	0f b6 55 ff          	movzx  edx,BYTE PTR [rbp-0x1]
   14000b826:	48 63 d2             	movsxd rdx,edx
   14000b829:	48 83 c2 22          	add    rdx,0x22
   14000b82d:	48 8b 44 d0 08       	mov    rax,QWORD PTR [rax+rdx*8+0x8]
   14000b832:	48 89 45 f0          	mov    QWORD PTR [rbp-0x10],rax
   14000b836:	48 8b 05 cb 47 00 00 	mov    rax,QWORD PTR [rip+0x47cb]        # 140010008 <vmcs>
   14000b83d:	0f b6 55 fe          	movzx  edx,BYTE PTR [rbp-0x2]
   14000b841:	48 63 d2             	movsxd rdx,edx
   14000b844:	48 83 c2 22          	add    rdx,0x22
   14000b848:	48 8b 44 d0 08       	mov    rax,QWORD PTR [rax+rdx*8+0x8]
   14000b84d:	48 85 c0             	test   rax,rax
   14000b850:	78 0b                	js     14000b85d <_ZN5rvm6410operations5stype6rv_fswEv+0x94>
   14000b852:	66 0f ef c0          	pxor   xmm0,xmm0
   14000b856:	f3 48 0f 2a c0       	cvtsi2ss xmm0,rax
   14000b85b:	eb 19                	jmp    14000b876 <_ZN5rvm6410operations5stype6rv_fswEv+0xad>
   14000b85d:	48 89 c2             	mov    rdx,rax
   14000b860:	48 d1 ea             	shr    rdx,1
   14000b863:	83 e0 01             	and    eax,0x1
   14000b866:	48 09 c2             	or     rdx,rax
   14000b869:	66 0f ef c0          	pxor   xmm0,xmm0
   14000b86d:	f3 48 0f 2a c2       	cvtsi2ss xmm0,rdx
   14000b872:	f3 0f 58 c0          	addss  xmm0,xmm0
   14000b876:	f3 0f 11 45 ec       	movss  DWORD PTR [rbp-0x14],xmm0
   14000b87b:	8b 45 f8             	mov    eax,DWORD PTR [rbp-0x8]
   14000b87e:	48 98                	cdqe
   14000b880:	48 01 45 f0          	add    QWORD PTR [rbp-0x10],rax
   14000b884:	48 8b 45 f0          	mov    rax,QWORD PTR [rbp-0x10]
   14000b888:	f3 0f 10 45 ec       	movss  xmm0,DWORD PTR [rbp-0x14]
   14000b88d:	f3 0f 11 00          	movss  DWORD PTR [rax],xmm0
   14000b891:	90                   	nop
   14000b892:	48 83 c4 20          	add    rsp,0x20
   14000b896:	5d                   	pop    rbp
   14000b897:	c3                   	ret

000000014000b898 <_ZN5rvm6410operations5stype6rv_fsdEv>:
   14000b898:	55                   	push   rbp
   14000b899:	48 89 e5             	mov    rbp,rsp
   14000b89c:	48 83 ec 20          	sub    rsp,0x20
   14000b8a0:	c6 45 ff 00          	mov    BYTE PTR [rbp-0x1],0x0
   14000b8a4:	c6 45 fe 00          	mov    BYTE PTR [rbp-0x2],0x0
   14000b8a8:	c7 45 f8 00 00 00 00 	mov    DWORD PTR [rbp-0x8],0x0
   14000b8af:	48 c7 45 f0 00 00 00 	mov    QWORD PTR [rbp-0x10],0x0
   14000b8b6:	00 
   14000b8b7:	66 0f ef c0          	pxor   xmm0,xmm0
   14000b8bb:	f2 0f 11 45 e8       	movsd  QWORD PTR [rbp-0x18],xmm0
   14000b8c0:	48 8b 05 41 47 00 00 	mov    rax,QWORD PTR [rip+0x4741]        # 140010008 <vmcs>
   14000b8c7:	48 8b 40 20          	mov    rax,QWORD PTR [rax+0x20]
   14000b8cb:	88 45 ff             	mov    BYTE PTR [rbp-0x1],al
   14000b8ce:	48 8b 05 33 47 00 00 	mov    rax,QWORD PTR [rip+0x4733]        # 140010008 <vmcs>
   14000b8d5:	48 8b 40 28          	mov    rax,QWORD PTR [rax+0x28]
   14000b8d9:	88 45 fe             	mov    BYTE PTR [rbp-0x2],al
   14000b8dc:	48 8b 05 25 47 00 00 	mov    rax,QWORD PTR [rip+0x4725]        # 140010008 <vmcs>
   14000b8e3:	48 8b 40 38          	mov    rax,QWORD PTR [rax+0x38]
   14000b8e7:	89 45 f8             	mov    DWORD PTR [rbp-0x8],eax
   14000b8ea:	48 8b 05 17 47 00 00 	mov    rax,QWORD PTR [rip+0x4717]        # 140010008 <vmcs>
   14000b8f1:	0f b6 55 ff          	movzx  edx,BYTE PTR [rbp-0x1]
   14000b8f5:	48 63 d2             	movsxd rdx,edx
   14000b8f8:	48 83 c2 22          	add    rdx,0x22
   14000b8fc:	48 8b 44 d0 08       	mov    rax,QWORD PTR [rax+rdx*8+0x8]
   14000b901:	48 89 45 f0          	mov    QWORD PTR [rbp-0x10],rax
   14000b905:	48 8b 05 fc 46 00 00 	mov    rax,QWORD PTR [rip+0x46fc]        # 140010008 <vmcs>
   14000b90c:	0f b6 55 fe          	movzx  edx,BYTE PTR [rbp-0x2]
   14000b910:	48 63 d2             	movsxd rdx,edx
   14000b913:	48 83 c2 22          	add    rdx,0x22
   14000b917:	48 8b 44 d0 08       	mov    rax,QWORD PTR [rax+rdx*8+0x8]
   14000b91c:	48 85 c0             	test   rax,rax
   14000b91f:	78 0b                	js     14000b92c <_ZN5rvm6410operations5stype6rv_fsdEv+0x94>
   14000b921:	66 0f ef c0          	pxor   xmm0,xmm0
   14000b925:	f2 48 0f 2a c0       	cvtsi2sd xmm0,rax
   14000b92a:	eb 19                	jmp    14000b945 <_ZN5rvm6410operations5stype6rv_fsdEv+0xad>
   14000b92c:	48 89 c2             	mov    rdx,rax
   14000b92f:	48 d1 ea             	shr    rdx,1
   14000b932:	83 e0 01             	and    eax,0x1
   14000b935:	48 09 c2             	or     rdx,rax
   14000b938:	66 0f ef c0          	pxor   xmm0,xmm0
   14000b93c:	f2 48 0f 2a c2       	cvtsi2sd xmm0,rdx
   14000b941:	f2 0f 58 c0          	addsd  xmm0,xmm0
   14000b945:	f2 0f 11 45 e8       	movsd  QWORD PTR [rbp-0x18],xmm0
   14000b94a:	8b 45 f8             	mov    eax,DWORD PTR [rbp-0x8]
   14000b94d:	48 98                	cdqe
   14000b94f:	48 01 45 f0          	add    QWORD PTR [rbp-0x10],rax
   14000b953:	48 8b 45 f0          	mov    rax,QWORD PTR [rbp-0x10]
   14000b957:	f2 0f 10 45 e8       	movsd  xmm0,QWORD PTR [rbp-0x18]
   14000b95c:	f2 0f 11 00          	movsd  QWORD PTR [rax],xmm0
   14000b960:	90                   	nop
   14000b961:	48 83 c4 20          	add    rsp,0x20
   14000b965:	5d                   	pop    rbp
   14000b966:	c3                   	ret

000000014000b967 <_Z20vm_exception_handlerP19_EXCEPTION_POINTERS>:
   14000b967:	55                   	push   rbp
   14000b968:	48 89 e5             	mov    rbp,rsp
   14000b96b:	48 83 ec 30          	sub    rsp,0x30
   14000b96f:	48 89 4d 10          	mov    QWORD PTR [rbp+0x10],rcx
   14000b973:	48 8b 45 10          	mov    rax,QWORD PTR [rbp+0x10]
   14000b977:	48 8b 00             	mov    rax,QWORD PTR [rax]
   14000b97a:	8b 00                	mov    eax,DWORD PTR [rax]
   14000b97c:	89 45 fc             	mov    DWORD PTR [rbp-0x4],eax
   14000b97f:	81 7d fc 04 00 00 80 	cmp    DWORD PTR [rbp-0x4],0x80000004
   14000b986:	75 07                	jne    14000b98f <_Z20vm_exception_handlerP19_EXCEPTION_POINTERS+0x28>
   14000b988:	b8 00 00 00 00       	mov    eax,0x0
   14000b98d:	eb 6f                	jmp    14000b9fe <_Z20vm_exception_handlerP19_EXCEPTION_POINTERS+0x97>
   14000b98f:	48 8b 05 72 46 00 00 	mov    rax,QWORD PTR [rip+0x4672]        # 140010008 <vmcs>
   14000b996:	8b 80 b8 03 80 00    	mov    eax,DWORD PTR [rax+0x8003b8]
   14000b99c:	85 c0                	test   eax,eax
   14000b99e:	75 09                	jne    14000b9a9 <_Z20vm_exception_handlerP19_EXCEPTION_POINTERS+0x42>
   14000b9a0:	81 7d fc 03 00 00 80 	cmp    DWORD PTR [rbp-0x4],0x80000003
   14000b9a7:	74 24                	je     14000b9cd <_Z20vm_exception_handlerP19_EXCEPTION_POINTERS+0x66>
   14000b9a9:	48 8b 15 58 46 00 00 	mov    rdx,QWORD PTR [rip+0x4658]        # 140010008 <vmcs>
   14000b9b0:	48 8b 45 10          	mov    rax,QWORD PTR [rbp+0x10]
   14000b9b4:	48 8b 40 08          	mov    rax,QWORD PTR [rax+0x8]
   14000b9b8:	48 8b 92 80 03 80 00 	mov    rdx,QWORD PTR [rdx+0x800380]
   14000b9bf:	48 89 90 f8 00 00 00 	mov    QWORD PTR [rax+0xf8],rdx
   14000b9c6:	b8 ff ff ff ff       	mov    eax,0xffffffff
   14000b9cb:	eb 31                	jmp    14000b9fe <_Z20vm_exception_handlerP19_EXCEPTION_POINTERS+0x97>
   14000b9cd:	48 8b 05 34 46 00 00 	mov    rax,QWORD PTR [rip+0x4634]        # 140010008 <vmcs>
   14000b9d4:	48 8b 80 a0 03 80 00 	mov    rax,QWORD PTR [rax+0x8003a0]
   14000b9db:	48 3d 24 b0 00 00    	cmp    rax,0xb024
   14000b9e1:	75 16                	jne    14000b9f9 <_Z20vm_exception_handlerP19_EXCEPTION_POINTERS+0x92>
   14000b9e3:	e8 6c 60 ff ff       	call   140001a54 <_ZN5rvm644rvni14vm_native_callEv>
   14000b9e8:	48 8b 05 19 46 00 00 	mov    rax,QWORD PTR [rip+0x4619]        # 140010008 <vmcs>
   14000b9ef:	c7 80 b8 03 80 00 00 	mov    DWORD PTR [rax+0x8003b8],0x0
   14000b9f6:	00 00 00 
   14000b9f9:	b8 ff ff ff ff       	mov    eax,0xffffffff
   14000b9fe:	48 83 c4 30          	add    rsp,0x30
   14000ba02:	5d                   	pop    rbp
   14000ba03:	c3                   	ret

000000014000ba04 <_ZN5rvm644mock12destroy_fileEP11vm_buffer_t>:
   14000ba04:	55                   	push   rbp
   14000ba05:	48 89 e5             	mov    rbp,rsp
   14000ba08:	48 83 ec 20          	sub    rsp,0x20
   14000ba0c:	48 89 4d 10          	mov    QWORD PTR [rbp+0x10],rcx
   14000ba10:	48 83 7d 10 00       	cmp    QWORD PTR [rbp+0x10],0x0
   14000ba15:	74 27                	je     14000ba3e <_ZN5rvm644mock12destroy_fileEP11vm_buffer_t+0x3a>
   14000ba17:	48 8b 45 10          	mov    rax,QWORD PTR [rbp+0x10]
   14000ba1b:	48 8b 00             	mov    rax,QWORD PTR [rax]
   14000ba1e:	48 85 c0             	test   rax,rax
   14000ba21:	74 0f                	je     14000ba32 <_ZN5rvm644mock12destroy_fileEP11vm_buffer_t+0x2e>
   14000ba23:	48 8b 45 10          	mov    rax,QWORD PTR [rbp+0x10]
   14000ba27:	48 8b 00             	mov    rax,QWORD PTR [rax]
   14000ba2a:	48 89 c1             	mov    rcx,rax
   14000ba2d:	e8 c6 18 00 00       	call   14000d2f8 <free>
   14000ba32:	48 8b 45 10          	mov    rax,QWORD PTR [rbp+0x10]
   14000ba36:	48 89 c1             	mov    rcx,rax
   14000ba39:	e8 ba 18 00 00       	call   14000d2f8 <free>
   14000ba3e:	90                   	nop
   14000ba3f:	48 83 c4 20          	add    rsp,0x20
   14000ba43:	5d                   	pop    rbp
   14000ba44:	c3                   	ret

000000014000ba45 <_ZN5rvm644mock9read_fileEv>:
   14000ba45:	55                   	push   rbp
   14000ba46:	48 89 e5             	mov    rbp,rsp
   14000ba49:	48 83 ec 60          	sub    rsp,0x60
   14000ba4d:	c7 45 fc 00 00 00 00 	mov    DWORD PTR [rbp-0x4],0x0
   14000ba54:	c7 45 e4 00 00 00 00 	mov    DWORD PTR [rbp-0x1c],0x0
   14000ba5b:	b9 10 00 00 00       	mov    ecx,0x10
   14000ba60:	e8 a3 18 00 00       	call   14000d308 <malloc>
   14000ba65:	48 89 45 f0          	mov    QWORD PTR [rbp-0x10],rax
   14000ba69:	48 8b 05 90 45 00 00 	mov    rax,QWORD PTR [rip+0x4590]        # 140010000 <__data_start__>
   14000ba70:	48 8b 40 48          	mov    rax,QWORD PTR [rax+0x48]
   14000ba74:	48 c7 44 24 30 00 00 	mov    QWORD PTR [rsp+0x30],0x0
   14000ba7b:	00 00 
   14000ba7d:	c7 44 24 28 80 00 00 	mov    DWORD PTR [rsp+0x28],0x80
   14000ba84:	00 
   14000ba85:	c7 44 24 20 03 00 00 	mov    DWORD PTR [rsp+0x20],0x3
   14000ba8c:	00 
   14000ba8d:	41 b9 00 00 00 00    	mov    r9d,0x0
   14000ba93:	41 b8 01 00 00 00    	mov    r8d,0x1
   14000ba99:	ba 00 00 00 80       	mov    edx,0x80000000
   14000ba9e:	48 8d 0d 03 5e 00 00 	lea    rcx,[rip+0x5e03]        # 1400118a8 <_ZL14dispatch_table+0x3a8>
   14000baa5:	ff d0                	call   rax
   14000baa7:	48 89 45 e8          	mov    QWORD PTR [rbp-0x18],rax
   14000baab:	48 83 7d e8 ff       	cmp    QWORD PTR [rbp-0x18],0xffffffffffffffff
   14000bab0:	75 5b                	jne    14000bb0d <_ZN5rvm644mock9read_fileEv+0xc8>
   14000bab2:	48 8b 05 4f 45 00 00 	mov    rax,QWORD PTR [rip+0x454f]        # 140010008 <vmcs>
   14000bab9:	48 c7 80 98 03 80 00 	mov    QWORD PTR [rax+0x800398],0x0
   14000bac0:	00 00 00 00 
   14000bac4:	48 8b 05 3d 45 00 00 	mov    rax,QWORD PTR [rip+0x453d]        # 140010008 <vmcs>
   14000bacb:	48 c7 80 a0 03 80 00 	mov    QWORD PTR [rax+0x8003a0],0xffff
   14000bad2:	ff ff 00 00 
   14000bad6:	48 8b 05 2b 45 00 00 	mov    rax,QWORD PTR [rip+0x452b]        # 140010008 <vmcs>
   14000badd:	48 c7 80 a8 03 80 00 	mov    QWORD PTR [rax+0x8003a8],0xffffffffffffffff
   14000bae4:	ff ff ff ff 
   14000bae8:	48 8b 05 19 45 00 00 	mov    rax,QWORD PTR [rip+0x4519]        # 140010008 <vmcs>
   14000baef:	48 c7 80 b0 03 80 00 	mov    QWORD PTR [rax+0x8003b0],0x0
   14000baf6:	00 00 00 00 
   14000bafa:	48 8b 05 07 45 00 00 	mov    rax,QWORD PTR [rip+0x4507]        # 140010008 <vmcs>
   14000bb01:	c7 80 b8 03 80 00 01 	mov    DWORD PTR [rax+0x8003b8],0x1
   14000bb08:	00 00 00 
   14000bb0b:	cc                   	int3
   14000bb0c:	90                   	nop
   14000bb0d:	48 8b 05 ec 44 00 00 	mov    rax,QWORD PTR [rip+0x44ec]        # 140010000 <__data_start__>
   14000bb14:	4c 8b 40 50          	mov    r8,QWORD PTR [rax+0x50]
   14000bb18:	48 8b 45 f0          	mov    rax,QWORD PTR [rbp-0x10]
   14000bb1c:	48 8d 50 08          	lea    rdx,[rax+0x8]
   14000bb20:	48 8b 45 e8          	mov    rax,QWORD PTR [rbp-0x18]
   14000bb24:	48 89 c1             	mov    rcx,rax
   14000bb27:	41 ff d0             	call   r8
   14000bb2a:	89 45 fc             	mov    DWORD PTR [rbp-0x4],eax
   14000bb2d:	83 7d fc ff          	cmp    DWORD PTR [rbp-0x4],0xffffffff
   14000bb31:	74 0d                	je     14000bb40 <_ZN5rvm644mock9read_fileEv+0xfb>
   14000bb33:	48 8b 45 f0          	mov    rax,QWORD PTR [rbp-0x10]
   14000bb37:	48 8b 40 08          	mov    rax,QWORD PTR [rax+0x8]
   14000bb3b:	48 85 c0             	test   rax,rax
   14000bb3e:	75 5c                	jne    14000bb9c <_ZN5rvm644mock9read_fileEv+0x157>
   14000bb40:	48 8b 05 c1 44 00 00 	mov    rax,QWORD PTR [rip+0x44c1]        # 140010008 <vmcs>
   14000bb47:	48 c7 80 98 03 80 00 	mov    QWORD PTR [rax+0x800398],0x0
   14000bb4e:	00 00 00 00 
   14000bb52:	48 8b 05 af 44 00 00 	mov    rax,QWORD PTR [rip+0x44af]        # 140010008 <vmcs>
   14000bb59:	48 c7 80 a0 03 80 00 	mov    QWORD PTR [rax+0x8003a0],0xb026
   14000bb60:	26 b0 00 00 
   14000bb64:	48 8b 05 9d 44 00 00 	mov    rax,QWORD PTR [rip+0x449d]        # 140010008 <vmcs>
   14000bb6b:	b9 ff ff ff ff       	mov    ecx,0xffffffff
   14000bb70:	48 89 88 a8 03 80 00 	mov    QWORD PTR [rax+0x8003a8],rcx
   14000bb77:	48 8b 05 8a 44 00 00 	mov    rax,QWORD PTR [rip+0x448a]        # 140010008 <vmcs>
   14000bb7e:	48 c7 80 b0 03 80 00 	mov    QWORD PTR [rax+0x8003b0],0x0
   14000bb85:	00 00 00 00 
   14000bb89:	48 8b 05 78 44 00 00 	mov    rax,QWORD PTR [rip+0x4478]        # 140010008 <vmcs>
   14000bb90:	c7 80 b8 03 80 00 01 	mov    DWORD PTR [rax+0x8003b8],0x1
   14000bb97:	00 00 00 
   14000bb9a:	cc                   	int3
   14000bb9b:	90                   	nop
   14000bb9c:	48 8b 45 f0          	mov    rax,QWORD PTR [rbp-0x10]
   14000bba0:	48 8b 40 08          	mov    rax,QWORD PTR [rax+0x8]
   14000bba4:	48 89 c1             	mov    rcx,rax
   14000bba7:	e8 5c 17 00 00       	call   14000d308 <malloc>
   14000bbac:	48 89 c2             	mov    rdx,rax
   14000bbaf:	48 8b 45 f0          	mov    rax,QWORD PTR [rbp-0x10]
   14000bbb3:	48 89 10             	mov    QWORD PTR [rax],rdx
   14000bbb6:	48 8b 05 43 44 00 00 	mov    rax,QWORD PTR [rip+0x4443]        # 140010000 <__data_start__>
   14000bbbd:	4c 8b 50 58          	mov    r10,QWORD PTR [rax+0x58]
   14000bbc1:	48 8b 45 f0          	mov    rax,QWORD PTR [rbp-0x10]
   14000bbc5:	48 8b 40 08          	mov    rax,QWORD PTR [rax+0x8]
   14000bbc9:	41 89 c0             	mov    r8d,eax
   14000bbcc:	48 8b 45 f0          	mov    rax,QWORD PTR [rbp-0x10]
   14000bbd0:	48 8b 10             	mov    rdx,QWORD PTR [rax]
   14000bbd3:	48 8d 4d e4          	lea    rcx,[rbp-0x1c]
   14000bbd7:	48 8b 45 e8          	mov    rax,QWORD PTR [rbp-0x18]
   14000bbdb:	48 c7 44 24 20 00 00 	mov    QWORD PTR [rsp+0x20],0x0
   14000bbe2:	00 00 
   14000bbe4:	49 89 c9             	mov    r9,rcx
   14000bbe7:	48 89 c1             	mov    rcx,rax
   14000bbea:	41 ff d2             	call   r10
   14000bbed:	85 c0                	test   eax,eax
   14000bbef:	74 12                	je     14000bc03 <_ZN5rvm644mock9read_fileEv+0x1be>
   14000bbf1:	8b 45 e4             	mov    eax,DWORD PTR [rbp-0x1c]
   14000bbf4:	89 c2                	mov    edx,eax
   14000bbf6:	48 8b 45 f0          	mov    rax,QWORD PTR [rbp-0x10]
   14000bbfa:	48 8b 40 08          	mov    rax,QWORD PTR [rax+0x8]
   14000bbfe:	48 39 c2             	cmp    rdx,rax
   14000bc01:	74 07                	je     14000bc0a <_ZN5rvm644mock9read_fileEv+0x1c5>
   14000bc03:	b8 01 00 00 00       	mov    eax,0x1
   14000bc08:	eb 05                	jmp    14000bc0f <_ZN5rvm644mock9read_fileEv+0x1ca>
   14000bc0a:	b8 00 00 00 00       	mov    eax,0x0
   14000bc0f:	84 c0                	test   al,al
   14000bc11:	74 5b                	je     14000bc6e <_ZN5rvm644mock9read_fileEv+0x229>
   14000bc13:	48 8b 05 ee 43 00 00 	mov    rax,QWORD PTR [rip+0x43ee]        # 140010008 <vmcs>
   14000bc1a:	48 c7 80 98 03 80 00 	mov    QWORD PTR [rax+0x800398],0x0
   14000bc21:	00 00 00 00 
   14000bc25:	48 8b 05 dc 43 00 00 	mov    rax,QWORD PTR [rip+0x43dc]        # 140010008 <vmcs>
   14000bc2c:	48 c7 80 a0 03 80 00 	mov    QWORD PTR [rax+0x8003a0],0xb026
   14000bc33:	26 b0 00 00 
   14000bc37:	48 8b 05 ca 43 00 00 	mov    rax,QWORD PTR [rip+0x43ca]        # 140010008 <vmcs>
   14000bc3e:	48 c7 80 a8 03 80 00 	mov    QWORD PTR [rax+0x8003a8],0x0
   14000bc45:	00 00 00 00 
   14000bc49:	48 8b 05 b8 43 00 00 	mov    rax,QWORD PTR [rip+0x43b8]        # 140010008 <vmcs>
   14000bc50:	48 c7 80 b0 03 80 00 	mov    QWORD PTR [rax+0x8003b0],0x0
   14000bc57:	00 00 00 00 
   14000bc5b:	48 8b 05 a6 43 00 00 	mov    rax,QWORD PTR [rip+0x43a6]        # 140010008 <vmcs>
   14000bc62:	c7 80 b8 03 80 00 01 	mov    DWORD PTR [rax+0x8003b8],0x1
   14000bc69:	00 00 00 
   14000bc6c:	cc                   	int3
   14000bc6d:	90                   	nop
   14000bc6e:	48 83 7d e8 00       	cmp    QWORD PTR [rbp-0x18],0x0
   14000bc73:	74 10                	je     14000bc85 <_ZN5rvm644mock9read_fileEv+0x240>
   14000bc75:	48 8b 45 e8          	mov    rax,QWORD PTR [rbp-0x18]
   14000bc79:	48 89 c1             	mov    rcx,rax
   14000bc7c:	48 8b 05 cd a5 00 00 	mov    rax,QWORD PTR [rip+0xa5cd]        # 140016250 <__imp_CloseHandle>
   14000bc83:	ff d0                	call   rax
   14000bc85:	48 8b 45 f0          	mov    rax,QWORD PTR [rbp-0x10]
   14000bc89:	48 83 c4 60          	add    rsp,0x60
   14000bc8d:	5d                   	pop    rbp
   14000bc8e:	c3                   	ret

000000014000bc8f <_ZN5rvm644mock24read_program_from_packetEv>:
   14000bc8f:	55                   	push   rbp
   14000bc90:	48 89 e5             	mov    rbp,rsp
   14000bc93:	48 83 ec 30          	sub    rsp,0x30
   14000bc97:	e8 a9 fd ff ff       	call   14000ba45 <_ZN5rvm644mock9read_fileEv>
   14000bc9c:	48 89 45 f8          	mov    QWORD PTR [rbp-0x8],rax
   14000bca0:	48 83 7d f8 00       	cmp    QWORD PTR [rbp-0x8],0x0
   14000bca5:	75 5b                	jne    14000bd02 <_ZN5rvm644mock24read_program_from_packetEv+0x73>
   14000bca7:	48 8b 05 5a 43 00 00 	mov    rax,QWORD PTR [rip+0x435a]        # 140010008 <vmcs>
   14000bcae:	48 c7 80 98 03 80 00 	mov    QWORD PTR [rax+0x800398],0x0
   14000bcb5:	00 00 00 00 
   14000bcb9:	48 8b 05 48 43 00 00 	mov    rax,QWORD PTR [rip+0x4348]        # 140010008 <vmcs>
   14000bcc0:	48 c7 80 a0 03 80 00 	mov    QWORD PTR [rax+0x8003a0],0xb026
   14000bcc7:	26 b0 00 00 
   14000bccb:	48 8b 05 36 43 00 00 	mov    rax,QWORD PTR [rip+0x4336]        # 140010008 <vmcs>
   14000bcd2:	48 c7 80 a8 03 80 00 	mov    QWORD PTR [rax+0x8003a8],0x0
   14000bcd9:	00 00 00 00 
   14000bcdd:	48 8b 05 24 43 00 00 	mov    rax,QWORD PTR [rip+0x4324]        # 140010008 <vmcs>
   14000bce4:	48 c7 80 b0 03 80 00 	mov    QWORD PTR [rax+0x8003b0],0x0
   14000bceb:	00 00 00 00 
   14000bcef:	48 8b 05 12 43 00 00 	mov    rax,QWORD PTR [rip+0x4312]        # 140010008 <vmcs>
   14000bcf6:	c7 80 b8 03 80 00 01 	mov    DWORD PTR [rax+0x8003b8],0x1
   14000bcfd:	00 00 00 
   14000bd00:	cc                   	int3
   14000bd01:	90                   	nop
   14000bd02:	48 8b 45 f8          	mov    rax,QWORD PTR [rbp-0x8]
   14000bd06:	48 8b 40 08          	mov    rax,QWORD PTR [rax+0x8]
   14000bd0a:	48 8d 90 00 00 04 00 	lea    rdx,[rax+0x40000]
   14000bd11:	48 8b 45 f8          	mov    rax,QWORD PTR [rbp-0x8]
   14000bd15:	48 89 50 08          	mov    QWORD PTR [rax+0x8],rdx
   14000bd19:	48 8b 45 f8          	mov    rax,QWORD PTR [rbp-0x8]
   14000bd1d:	48 8b 40 08          	mov    rax,QWORD PTR [rax+0x8]
   14000bd21:	48 89 c1             	mov    rcx,rax
   14000bd24:	e8 75 74 ff ff       	call   14000319e <_ZN5rvm646memory11memory_initEy>
   14000bd29:	48 8b 45 f8          	mov    rax,QWORD PTR [rbp-0x8]
   14000bd2d:	48 8b 50 08          	mov    rdx,QWORD PTR [rax+0x8]
   14000bd31:	48 8b 45 f8          	mov    rax,QWORD PTR [rbp-0x8]
   14000bd35:	48 8b 00             	mov    rax,QWORD PTR [rax]
   14000bd38:	48 89 c1             	mov    rcx,rax
   14000bd3b:	e8 b5 6b ff ff       	call   1400028f5 <_ZN5rvm643elf14load_elf_imageEPvy>
   14000bd40:	48 8b 45 f8          	mov    rax,QWORD PTR [rbp-0x8]
   14000bd44:	48 89 c1             	mov    rcx,rax
   14000bd47:	e8 b8 fc ff ff       	call   14000ba04 <_ZN5rvm644mock12destroy_fileEP11vm_buffer_t>
   14000bd4c:	90                   	nop
   14000bd4d:	48 83 c4 30          	add    rsp,0x30
   14000bd51:	5d                   	pop    rbp
   14000bd52:	c3                   	ret

000000014000bd53 <_ZN5rvm645entry7vm_initEv>:
   14000bd53:	55                   	push   rbp
   14000bd54:	53                   	push   rbx
   14000bd55:	48 83 ec 28          	sub    rsp,0x28
   14000bd59:	48 8d 6c 24 20       	lea    rbp,[rsp+0x20]
   14000bd5e:	e8 fd 01 00 00       	call   14000bf60 <save_host_context>
   14000bd63:	48 8b 05 9e 42 00 00 	mov    rax,QWORD PTR [rip+0x429e]        # 140010008 <vmcs>
   14000bd6a:	48 c7 40 10 00 00 00 	mov    QWORD PTR [rax+0x10],0x0
   14000bd71:	00 
   14000bd72:	48 8b 05 8f 42 00 00 	mov    rax,QWORD PTR [rip+0x428f]        # 140010008 <vmcs>
   14000bd79:	48 8d 15 80 57 00 00 	lea    rdx,[rip+0x5780]        # 140011500 <_ZL14dispatch_table>
   14000bd80:	48 89 50 08          	mov    QWORD PTR [rax+0x8],rdx
   14000bd84:	48 8b 1d 7d 42 00 00 	mov    rbx,QWORD PTR [rip+0x427d]        # 140010008 <vmcs>
   14000bd8b:	48 8d 05 d5 fb ff ff 	lea    rax,[rip+0xfffffffffffffbd5]        # 14000b967 <_Z20vm_exception_handlerP19_EXCEPTION_POINTERS>
   14000bd92:	48 89 c2             	mov    rdx,rax
   14000bd95:	b9 01 00 00 00       	mov    ecx,0x1
   14000bd9a:	48 8b 05 a7 a4 00 00 	mov    rax,QWORD PTR [rip+0xa4a7]        # 140016248 <__IAT_start__>
   14000bda1:	ff d0                	call   rax
   14000bda3:	48 89 83 18 03 80 00 	mov    QWORD PTR [rbx+0x800318],rax
   14000bdaa:	48 8b 05 57 42 00 00 	mov    rax,QWORD PTR [rip+0x4257]        # 140010008 <vmcs>
   14000bdb1:	48 05 18 02 00 00    	add    rax,0x218
   14000bdb7:	48 8d 90 00 00 80 00 	lea    rdx,[rax+0x800000]
   14000bdbe:	48 8b 05 43 42 00 00 	mov    rax,QWORD PTR [rip+0x4243]        # 140010008 <vmcs>
   14000bdc5:	48 89 90 28 01 00 00 	mov    QWORD PTR [rax+0x128],rdx
   14000bdcc:	e8 f4 6f ff ff       	call   140002dc5 <_ZN5rvm646memory12context_initEv>
   14000bdd1:	e8 9c 58 ff ff       	call   140001672 <_ZN5rvm644rvni20resolve_ucrt_importsEv>
   14000bdd6:	e8 b4 fe ff ff       	call   14000bc8f <_ZN5rvm644mock24read_program_from_packetEv>
   14000bddb:	90                   	nop
   14000bddc:	48 83 c4 28          	add    rsp,0x28
   14000bde0:	5b                   	pop    rbx
   14000bde1:	5d                   	pop    rbp
   14000bde2:	c3                   	ret

000000014000bde3 <_ZN5rvm645entry7vm_exitEv>:
   14000bde3:	55                   	push   rbp
   14000bde4:	48 89 e5             	mov    rbp,rsp
   14000bde7:	48 83 ec 20          	sub    rsp,0x20
   14000bdeb:	e8 98 74 ff ff       	call   140003288 <_ZN5rvm646memory10memory_endEv>
   14000bdf0:	48 8b 05 11 42 00 00 	mov    rax,QWORD PTR [rip+0x4211]        # 140010008 <vmcs>
   14000bdf7:	48 8b 80 18 03 80 00 	mov    rax,QWORD PTR [rax+0x800318]
   14000bdfe:	48 89 c1             	mov    rcx,rax
   14000be01:	48 8b 05 90 a4 00 00 	mov    rax,QWORD PTR [rip+0xa490]        # 140016298 <__imp_RemoveVectoredExceptionHandler>
   14000be08:	ff d0                	call   rax
   14000be0a:	e8 9e 01 00 00       	call   14000bfad <restore_host_context>
   14000be0f:	90                   	nop
   14000be10:	48 83 c4 20          	add    rsp,0x20
   14000be14:	5d                   	pop    rbp
   14000be15:	c3                   	ret

000000014000be16 <_ZN5rvm645entry8vm_entryEv>:
   14000be16:	55                   	push   rbp
   14000be17:	48 89 e5             	mov    rbp,rsp
   14000be1a:	48 83 ec 20          	sub    rsp,0x20
   14000be1e:	48 8b 45 08          	mov    rax,QWORD PTR [rbp+0x8]
   14000be22:	48 89 c2             	mov    rdx,rax
   14000be25:	48 8b 05 dc 41 00 00 	mov    rax,QWORD PTR [rip+0x41dc]        # 140010008 <vmcs>
   14000be2c:	48 89 90 80 03 80 00 	mov    QWORD PTR [rax+0x800380],rdx
   14000be33:	eb 2b                	jmp    14000be60 <_ZN5rvm645entry8vm_entryEv+0x4a>
   14000be35:	48 8b 05 cc 41 00 00 	mov    rax,QWORD PTR [rip+0x41cc]        # 140010008 <vmcs>
   14000be3c:	48 8b 00             	mov    rax,QWORD PTR [rax]
   14000be3f:	8b 00                	mov    eax,DWORD PTR [rax]
   14000be41:	89 c1                	mov    ecx,eax
   14000be43:	e8 f9 74 ff ff       	call   140003341 <_ZN5rvm647decoder9vm_decodeEj>
   14000be48:	48 8b 05 b9 41 00 00 	mov    rax,QWORD PTR [rip+0x41b9]        # 140010008 <vmcs>
   14000be4f:	48 8b 10             	mov    rdx,QWORD PTR [rax]
   14000be52:	48 8b 05 af 41 00 00 	mov    rax,QWORD PTR [rip+0x41af]        # 140010008 <vmcs>
   14000be59:	48 83 c2 04          	add    rdx,0x4
   14000be5d:	48 89 10             	mov    QWORD PTR [rax],rdx
   14000be60:	48 8b 05 a1 41 00 00 	mov    rax,QWORD PTR [rip+0x41a1]        # 140010008 <vmcs>
   14000be67:	8b 80 b8 03 80 00    	mov    eax,DWORD PTR [rax+0x8003b8]
   14000be6d:	85 c0                	test   eax,eax
   14000be6f:	74 c4                	je     14000be35 <_ZN5rvm645entry8vm_entryEv+0x1f>
   14000be71:	90                   	nop
   14000be72:	90                   	nop
   14000be73:	48 83 c4 20          	add    rsp,0x20
   14000be77:	5d                   	pop    rbp
   14000be78:	c3                   	ret

000000014000be79 <_ZN5rvm647vm_mainEv>:
   14000be79:	55                   	push   rbp
   14000be7a:	b8 e0 03 80 00       	mov    eax,0x8003e0
   14000be7f:	e8 5c 13 00 00       	call   14000d1e0 <___chkstk_ms>
   14000be84:	48 29 c4             	sub    rsp,rax
   14000be87:	48 8d ac 24 80 00 00 	lea    rbp,[rsp+0x80]
   14000be8e:	00 
   14000be8f:	48 8d 45 a0          	lea    rax,[rbp-0x60]
   14000be93:	ba c0 03 80 00       	mov    edx,0x8003c0
   14000be98:	49 89 d0             	mov    r8,rdx
   14000be9b:	ba 00 00 00 00       	mov    edx,0x0
   14000bea0:	48 89 c1             	mov    rcx,rax
   14000bea3:	e8 70 14 00 00       	call   14000d318 <memset>
   14000bea8:	48 8d 45 a0          	lea    rax,[rbp-0x60]
   14000beac:	48 89 05 55 41 00 00 	mov    QWORD PTR [rip+0x4155],rax        # 140010008 <vmcs>
   14000beb3:	e8 9b fe ff ff       	call   14000bd53 <_ZN5rvm645entry7vm_initEv>
   14000beb8:	e8 59 ff ff ff       	call   14000be16 <_ZN5rvm645entry8vm_entryEv>
   14000bebd:	e8 21 ff ff ff       	call   14000bde3 <_ZN5rvm645entry7vm_exitEv>
   14000bec2:	48 8b 05 3f 41 00 00 	mov    rax,QWORD PTR [rip+0x413f]        # 140010008 <vmcs>
   14000bec9:	48 8b 80 a0 03 80 00 	mov    rax,QWORD PTR [rax+0x8003a0]
   14000bed0:	48 81 c4 e0 03 80 00 	add    rsp,0x8003e0
   14000bed7:	5d                   	pop    rbp
   14000bed8:	c3                   	ret

000000014000bed9 <main>:
   14000bed9:	55                   	push   rbp
   14000beda:	48 89 e5             	mov    rbp,rsp
   14000bedd:	48 83 ec 20          	sub    rsp,0x20
   14000bee1:	e8 ea 02 00 00       	call   14000c1d0 <__main>
   14000bee6:	e8 8e ff ff ff       	call   14000be79 <_ZN5rvm647vm_mainEv>
   14000beeb:	b8 00 00 00 00       	mov    eax,0x0
   14000bef0:	48 83 c4 20          	add    rsp,0x20
   14000bef4:	5d                   	pop    rbp
   14000bef5:	c3                   	ret

000000014000bef6 <__tcf_0>:
   14000bef6:	55                   	push   rbp
   14000bef7:	48 89 e5             	mov    rbp,rsp
   14000befa:	48 83 ec 20          	sub    rsp,0x20
   14000befe:	48 8d 05 1b 41 00 00 	lea    rax,[rip+0x411b]        # 140010020 <_ZN5rvm644rvni17ucrt_native_tableE>
   14000bf05:	48 89 c1             	mov    rcx,rax
   14000bf08:	e8 f3 25 00 00       	call   14000e500 <_ZNSt13unordered_mapIPv12ucrt_wrapperSt4hashIS0_ESt8equal_toIS0_ESaISt4pairIKS0_S1_EEED1Ev>
   14000bf0d:	90                   	nop
   14000bf0e:	48 83 c4 20          	add    rsp,0x20
   14000bf12:	5d                   	pop    rbp
   14000bf13:	c3                   	ret

000000014000bf14 <_Z41__static_initialization_and_destruction_0v>:
   14000bf14:	55                   	push   rbp
   14000bf15:	48 89 e5             	mov    rbp,rsp
   14000bf18:	48 83 ec 20          	sub    rsp,0x20
   14000bf1c:	48 8d 05 fd 40 00 00 	lea    rax,[rip+0x40fd]        # 140010020 <_ZN5rvm644rvni17ucrt_native_tableE>
   14000bf23:	48 89 c1             	mov    rcx,rax
   14000bf26:	e8 b5 25 00 00       	call   14000e4e0 <_ZNSt13unordered_mapIPv12ucrt_wrapperSt4hashIS0_ESt8equal_toIS0_ESaISt4pairIKS0_S1_EEEC1Ev>
   14000bf2b:	48 8d 05 c4 ff ff ff 	lea    rax,[rip+0xffffffffffffffc4]        # 14000bef6 <__tcf_0>
   14000bf32:	48 89 c1             	mov    rcx,rax
   14000bf35:	e8 06 55 ff ff       	call   140001440 <atexit>
   14000bf3a:	90                   	nop
   14000bf3b:	48 83 c4 20          	add    rsp,0x20
   14000bf3f:	5d                   	pop    rbp
   14000bf40:	c3                   	ret

000000014000bf41 <_GLOBAL__sub_I_ctx>:
   14000bf41:	55                   	push   rbp
   14000bf42:	48 89 e5             	mov    rbp,rsp
   14000bf45:	48 83 ec 20          	sub    rsp,0x20
   14000bf49:	e8 c6 ff ff ff       	call   14000bf14 <_Z41__static_initialization_and_destruction_0v>
   14000bf4e:	90                   	nop
   14000bf4f:	48 83 c4 20          	add    rsp,0x20
   14000bf53:	5d                   	pop    rbp
   14000bf54:	c3                   	ret
   14000bf55:	90                   	nop
   14000bf56:	90                   	nop
   14000bf57:	90                   	nop
   14000bf58:	90                   	nop
   14000bf59:	90                   	nop
   14000bf5a:	90                   	nop
   14000bf5b:	90                   	nop
   14000bf5c:	90                   	nop
   14000bf5d:	90                   	nop
   14000bf5e:	90                   	nop
   14000bf5f:	90                   	nop

000000014000bf60 <save_host_context>:
   14000bf60:	48 8b 05 a1 40 00 00 	mov    rax,QWORD PTR [rip+0x40a1]        # 140010008 <vmcs>
   14000bf67:	48 8b 00             	mov    rax,QWORD PTR [rax]
   14000bf6a:	48 8d 38             	lea    rdi,[rax]
   14000bf6d:	48 89 07             	mov    QWORD PTR [rdi],rax
   14000bf70:	48 89 5f 08          	mov    QWORD PTR [rdi+0x8],rbx
   14000bf74:	48 89 4f 10          	mov    QWORD PTR [rdi+0x10],rcx
   14000bf78:	48 89 57 18          	mov    QWORD PTR [rdi+0x18],rdx
   14000bf7c:	48 89 77 20          	mov    QWORD PTR [rdi+0x20],rsi
   14000bf80:	48 89 7f 28          	mov    QWORD PTR [rdi+0x28],rdi
   14000bf84:	48 89 6f 30          	mov    QWORD PTR [rdi+0x30],rbp
   14000bf88:	4c 89 47 38          	mov    QWORD PTR [rdi+0x38],r8
   14000bf8c:	4c 89 4f 40          	mov    QWORD PTR [rdi+0x40],r9
   14000bf90:	4c 89 57 48          	mov    QWORD PTR [rdi+0x48],r10
   14000bf94:	4c 89 5f 50          	mov    QWORD PTR [rdi+0x50],r11
   14000bf98:	4c 89 67 58          	mov    QWORD PTR [rdi+0x58],r12
   14000bf9c:	4c 89 6f 60          	mov    QWORD PTR [rdi+0x60],r13
   14000bfa0:	4c 89 77 68          	mov    QWORD PTR [rdi+0x68],r14
   14000bfa4:	4c 89 7f 70          	mov    QWORD PTR [rdi+0x70],r15
   14000bfa8:	9c                   	pushf
   14000bfa9:	8f 47 78             	pop    QWORD PTR [rdi+0x78]
   14000bfac:	c3                   	ret

000000014000bfad <restore_host_context>:
   14000bfad:	48 8b 05 54 40 00 00 	mov    rax,QWORD PTR [rip+0x4054]        # 140010008 <vmcs>
   14000bfb4:	48 8b 00             	mov    rax,QWORD PTR [rax]
   14000bfb7:	48 8d 30             	lea    rsi,[rax]
   14000bfba:	48 8b 06             	mov    rax,QWORD PTR [rsi]
   14000bfbd:	48 8b 5e 08          	mov    rbx,QWORD PTR [rsi+0x8]
   14000bfc1:	48 8b 4e 10          	mov    rcx,QWORD PTR [rsi+0x10]
   14000bfc5:	48 8b 56 18          	mov    rdx,QWORD PTR [rsi+0x18]
   14000bfc9:	48 8b 76 20          	mov    rsi,QWORD PTR [rsi+0x20]
   14000bfcd:	48 8b 7e 28          	mov    rdi,QWORD PTR [rsi+0x28]
   14000bfd1:	48 8b 6e 30          	mov    rbp,QWORD PTR [rsi+0x30]
   14000bfd5:	4c 8b 46 38          	mov    r8,QWORD PTR [rsi+0x38]
   14000bfd9:	4c 8b 4e 40          	mov    r9,QWORD PTR [rsi+0x40]
   14000bfdd:	4c 8b 56 48          	mov    r10,QWORD PTR [rsi+0x48]
   14000bfe1:	4c 8b 5e 50          	mov    r11,QWORD PTR [rsi+0x50]
   14000bfe5:	4c 8b 66 58          	mov    r12,QWORD PTR [rsi+0x58]
   14000bfe9:	4c 8b 6e 60          	mov    r13,QWORD PTR [rsi+0x60]
   14000bfed:	4c 8b 76 68          	mov    r14,QWORD PTR [rsi+0x68]
   14000bff1:	4c 8b 7e 70          	mov    r15,QWORD PTR [rsi+0x70]
   14000bff5:	ff 76 78             	push   QWORD PTR [rsi+0x78]
   14000bff8:	9d                   	popf
   14000bff9:	c3                   	ret

000000014000bffa <save_vm_context>:
   14000bffa:	48 8b 05 07 40 00 00 	mov    rax,QWORD PTR [rip+0x4007]        # 140010008 <vmcs>
   14000c001:	48 8b 00             	mov    rax,QWORD PTR [rax]
   14000c004:	48 8d b8 80 00 00 00 	lea    rdi,[rax+0x80]
   14000c00b:	48 89 07             	mov    QWORD PTR [rdi],rax
   14000c00e:	48 89 5f 08          	mov    QWORD PTR [rdi+0x8],rbx
   14000c012:	48 89 4f 10          	mov    QWORD PTR [rdi+0x10],rcx
   14000c016:	48 89 57 18          	mov    QWORD PTR [rdi+0x18],rdx
   14000c01a:	48 89 77 20          	mov    QWORD PTR [rdi+0x20],rsi
   14000c01e:	48 89 7f 28          	mov    QWORD PTR [rdi+0x28],rdi
   14000c022:	48 89 6f 30          	mov    QWORD PTR [rdi+0x30],rbp
   14000c026:	4c 89 47 38          	mov    QWORD PTR [rdi+0x38],r8
   14000c02a:	4c 89 4f 40          	mov    QWORD PTR [rdi+0x40],r9
   14000c02e:	4c 89 57 48          	mov    QWORD PTR [rdi+0x48],r10
   14000c032:	4c 89 5f 50          	mov    QWORD PTR [rdi+0x50],r11
   14000c036:	4c 89 67 58          	mov    QWORD PTR [rdi+0x58],r12
   14000c03a:	4c 89 6f 60          	mov    QWORD PTR [rdi+0x60],r13
   14000c03e:	4c 89 77 68          	mov    QWORD PTR [rdi+0x68],r14
   14000c042:	4c 89 7f 70          	mov    QWORD PTR [rdi+0x70],r15
   14000c046:	9c                   	pushf
   14000c047:	8f 47 78             	pop    QWORD PTR [rdi+0x78]
   14000c04a:	c3                   	ret

000000014000c04b <restore_vm_context>:
   14000c04b:	48 8b 05 b6 3f 00 00 	mov    rax,QWORD PTR [rip+0x3fb6]        # 140010008 <vmcs>
   14000c052:	48 8b 00             	mov    rax,QWORD PTR [rax]
   14000c055:	48 8d b0 80 00 00 00 	lea    rsi,[rax+0x80]
   14000c05c:	48 8b 06             	mov    rax,QWORD PTR [rsi]
   14000c05f:	48 8b 5e 08          	mov    rbx,QWORD PTR [rsi+0x8]
   14000c063:	48 8b 4e 10          	mov    rcx,QWORD PTR [rsi+0x10]
   14000c067:	48 8b 56 18          	mov    rdx,QWORD PTR [rsi+0x18]
   14000c06b:	48 8b 76 20          	mov    rsi,QWORD PTR [rsi+0x20]
   14000c06f:	48 8b 7e 28          	mov    rdi,QWORD PTR [rsi+0x28]
   14000c073:	48 8b 6e 30          	mov    rbp,QWORD PTR [rsi+0x30]
   14000c077:	4c 8b 46 38          	mov    r8,QWORD PTR [rsi+0x38]
   14000c07b:	4c 8b 4e 40          	mov    r9,QWORD PTR [rsi+0x40]
   14000c07f:	4c 8b 56 48          	mov    r10,QWORD PTR [rsi+0x48]
   14000c083:	4c 8b 5e 50          	mov    r11,QWORD PTR [rsi+0x50]
   14000c087:	4c 8b 66 58          	mov    r12,QWORD PTR [rsi+0x58]
   14000c08b:	4c 8b 6e 60          	mov    r13,QWORD PTR [rsi+0x60]
   14000c08f:	4c 8b 76 68          	mov    r14,QWORD PTR [rsi+0x68]
   14000c093:	4c 8b 7e 70          	mov    r15,QWORD PTR [rsi+0x70]
   14000c097:	ff 76 78             	push   QWORD PTR [rsi+0x78]
   14000c09a:	9d                   	popf
   14000c09b:	c3                   	ret
   14000c09c:	90                   	nop
   14000c09d:	90                   	nop
   14000c09e:	90                   	nop
   14000c09f:	90                   	nop

000000014000c0a0 <__gxx_personality_seh0>:
   14000c0a0:	ff 25 72 a3 00 00    	jmp    QWORD PTR [rip+0xa372]        # 140016418 <__imp___gxx_personality_seh0>
   14000c0a6:	90                   	nop
   14000c0a7:	90                   	nop

000000014000c0a8 <__cxa_rethrow>:
   14000c0a8:	ff 25 62 a3 00 00    	jmp    QWORD PTR [rip+0xa362]        # 140016410 <__imp___cxa_rethrow>
   14000c0ae:	90                   	nop
   14000c0af:	90                   	nop

000000014000c0b0 <__cxa_guard_release>:
   14000c0b0:	ff 25 52 a3 00 00    	jmp    QWORD PTR [rip+0xa352]        # 140016408 <__imp___cxa_guard_release>
   14000c0b6:	90                   	nop
   14000c0b7:	90                   	nop

000000014000c0b8 <__cxa_guard_acquire>:
   14000c0b8:	ff 25 42 a3 00 00    	jmp    QWORD PTR [rip+0xa342]        # 140016400 <__imp___cxa_guard_acquire>
   14000c0be:	90                   	nop
   14000c0bf:	90                   	nop

000000014000c0c0 <__cxa_guard_abort>:
   14000c0c0:	ff 25 32 a3 00 00    	jmp    QWORD PTR [rip+0xa332]        # 1400163f8 <__imp___cxa_guard_abort>
   14000c0c6:	90                   	nop
   14000c0c7:	90                   	nop

000000014000c0c8 <__cxa_end_catch>:
   14000c0c8:	ff 25 22 a3 00 00    	jmp    QWORD PTR [rip+0xa322]        # 1400163f0 <__imp___cxa_end_catch>
   14000c0ce:	90                   	nop
   14000c0cf:	90                   	nop

000000014000c0d0 <__cxa_begin_catch>:
   14000c0d0:	ff 25 12 a3 00 00    	jmp    QWORD PTR [rip+0xa312]        # 1400163e8 <__imp___cxa_begin_catch>
   14000c0d6:	90                   	nop
   14000c0d7:	90                   	nop

000000014000c0d8 <_Znwy>:
   14000c0d8:	ff 25 02 a3 00 00    	jmp    QWORD PTR [rip+0xa302]        # 1400163e0 <__imp__Znwy>
   14000c0de:	90                   	nop
   14000c0df:	90                   	nop

000000014000c0e0 <_ZdlPvy>:
   14000c0e0:	ff 25 f2 a2 00 00    	jmp    QWORD PTR [rip+0xa2f2]        # 1400163d8 <__imp__ZdlPvy>
   14000c0e6:	90                   	nop
   14000c0e7:	90                   	nop

000000014000c0e8 <_ZSt28__throw_bad_array_new_lengthv>:
   14000c0e8:	ff 25 e2 a2 00 00    	jmp    QWORD PTR [rip+0xa2e2]        # 1400163d0 <__imp__ZSt28__throw_bad_array_new_lengthv>
   14000c0ee:	90                   	nop
   14000c0ef:	90                   	nop

000000014000c0f0 <_ZSt17__throw_bad_allocv>:
   14000c0f0:	ff 25 d2 a2 00 00    	jmp    QWORD PTR [rip+0xa2d2]        # 1400163c8 <__imp__ZSt17__throw_bad_allocv>
   14000c0f6:	90                   	nop
   14000c0f7:	90                   	nop

000000014000c0f8 <_ZNKSt8__detail20_Prime_rehash_policy14_M_need_rehashEyyy>:
   14000c0f8:	ff 25 c2 a2 00 00    	jmp    QWORD PTR [rip+0xa2c2]        # 1400163c0 <__imp__ZNKSt8__detail20_Prime_rehash_policy14_M_need_rehashEyyy>
   14000c0fe:	90                   	nop
   14000c0ff:	90                   	nop

000000014000c100 <__do_global_dtors>:
   14000c100:	55                   	push   rbp
   14000c101:	48 89 e5             	mov    rbp,rsp
   14000c104:	48 83 ec 20          	sub    rsp,0x20
   14000c108:	48 8b 05 b1 3f 00 00 	mov    rax,QWORD PTR [rip+0x3fb1]        # 1400100c0 <p.0>
   14000c10f:	48 8b 00             	mov    rax,QWORD PTR [rax]
   14000c112:	48 85 c0             	test   rax,rax
   14000c115:	74 26                	je     14000c13d <__do_global_dtors+0x3d>
   14000c117:	66 0f 1f 84 00 00 00 	nop    WORD PTR [rax+rax*1+0x0]
   14000c11e:	00 00 
   14000c120:	ff d0                	call   rax
   14000c122:	48 8b 05 97 3f 00 00 	mov    rax,QWORD PTR [rip+0x3f97]        # 1400100c0 <p.0>
   14000c129:	48 8d 50 08          	lea    rdx,[rax+0x8]
   14000c12d:	48 8b 40 08          	mov    rax,QWORD PTR [rax+0x8]
   14000c131:	48 89 15 88 3f 00 00 	mov    QWORD PTR [rip+0x3f88],rdx        # 1400100c0 <p.0>
   14000c138:	48 85 c0             	test   rax,rax
   14000c13b:	75 e3                	jne    14000c120 <__do_global_dtors+0x20>
   14000c13d:	48 83 c4 20          	add    rsp,0x20
   14000c141:	5d                   	pop    rbp
   14000c142:	c3                   	ret
   14000c143:	66 66 2e 0f 1f 84 00 	data16 cs nop WORD PTR [rax+rax*1+0x0]
   14000c14a:	00 00 00 00 
   14000c14e:	66 90                	xchg   ax,ax

000000014000c150 <__do_global_ctors>:
   14000c150:	55                   	push   rbp
   14000c151:	56                   	push   rsi
   14000c152:	53                   	push   rbx
   14000c153:	48 83 ec 20          	sub    rsp,0x20
   14000c157:	48 8d 6c 24 20       	lea    rbp,[rsp+0x20]
   14000c15c:	48 8b 15 cd 5a 00 00 	mov    rdx,QWORD PTR [rip+0x5acd]        # 140011c30 <.refptr.__CTOR_LIST__>
   14000c163:	48 8b 02             	mov    rax,QWORD PTR [rdx]
   14000c166:	89 c1                	mov    ecx,eax
   14000c168:	83 f8 ff             	cmp    eax,0xffffffff
   14000c16b:	74 43                	je     14000c1b0 <__do_global_ctors+0x60>
   14000c16d:	85 c9                	test   ecx,ecx
   14000c16f:	74 22                	je     14000c193 <__do_global_ctors+0x43>
   14000c171:	89 c8                	mov    eax,ecx
   14000c173:	83 e9 01             	sub    ecx,0x1
   14000c176:	48 8d 1c c2          	lea    rbx,[rdx+rax*8]
   14000c17a:	48 29 c8             	sub    rax,rcx
   14000c17d:	48 8d 74 c2 f8       	lea    rsi,[rdx+rax*8-0x8]
   14000c182:	66 0f 1f 44 00 00    	nop    WORD PTR [rax+rax*1+0x0]
   14000c188:	ff 13                	call   QWORD PTR [rbx]
   14000c18a:	48 83 eb 08          	sub    rbx,0x8
   14000c18e:	48 39 f3             	cmp    rbx,rsi
   14000c191:	75 f5                	jne    14000c188 <__do_global_ctors+0x38>
   14000c193:	48 8d 0d 66 ff ff ff 	lea    rcx,[rip+0xffffffffffffff66]        # 14000c100 <__do_global_dtors>
   14000c19a:	48 83 c4 20          	add    rsp,0x20
   14000c19e:	5b                   	pop    rbx
   14000c19f:	5e                   	pop    rsi
   14000c1a0:	5d                   	pop    rbp
   14000c1a1:	e9 9a 52 ff ff       	jmp    140001440 <atexit>
   14000c1a6:	66 2e 0f 1f 84 00 00 	cs nop WORD PTR [rax+rax*1+0x0]
   14000c1ad:	00 00 00 
   14000c1b0:	31 c0                	xor    eax,eax
   14000c1b2:	66 0f 1f 44 00 00    	nop    WORD PTR [rax+rax*1+0x0]
   14000c1b8:	44 8d 40 01          	lea    r8d,[rax+0x1]
   14000c1bc:	89 c1                	mov    ecx,eax
   14000c1be:	4a 83 3c c2 00       	cmp    QWORD PTR [rdx+r8*8],0x0
   14000c1c3:	4c 89 c0             	mov    rax,r8
   14000c1c6:	75 f0                	jne    14000c1b8 <__do_global_ctors+0x68>
   14000c1c8:	eb a3                	jmp    14000c16d <__do_global_ctors+0x1d>
   14000c1ca:	66 0f 1f 44 00 00    	nop    WORD PTR [rax+rax*1+0x0]

000000014000c1d0 <__main>:
   14000c1d0:	8b 05 7a 8e 00 00    	mov    eax,DWORD PTR [rip+0x8e7a]        # 140015050 <initialized>
   14000c1d6:	85 c0                	test   eax,eax
   14000c1d8:	74 06                	je     14000c1e0 <__main+0x10>
   14000c1da:	c3                   	ret
   14000c1db:	0f 1f 44 00 00       	nop    DWORD PTR [rax+rax*1+0x0]
   14000c1e0:	c7 05 66 8e 00 00 01 	mov    DWORD PTR [rip+0x8e66],0x1        # 140015050 <initialized>
   14000c1e7:	00 00 00 
   14000c1ea:	e9 61 ff ff ff       	jmp    14000c150 <__do_global_ctors>
   14000c1ef:	90                   	nop

000000014000c1f0 <_setargv>:
   14000c1f0:	31 c0                	xor    eax,eax
   14000c1f2:	c3                   	ret
   14000c1f3:	90                   	nop
   14000c1f4:	90                   	nop
   14000c1f5:	90                   	nop
   14000c1f6:	90                   	nop
   14000c1f7:	90                   	nop
   14000c1f8:	90                   	nop
   14000c1f9:	90                   	nop
   14000c1fa:	90                   	nop
   14000c1fb:	90                   	nop
   14000c1fc:	90                   	nop
   14000c1fd:	90                   	nop
   14000c1fe:	90                   	nop
   14000c1ff:	90                   	nop

000000014000c200 <__dyn_tls_dtor>:
   14000c200:	55                   	push   rbp
   14000c201:	48 89 e5             	mov    rbp,rsp
   14000c204:	48 83 ec 20          	sub    rsp,0x20
   14000c208:	83 fa 03             	cmp    edx,0x3
   14000c20b:	74 13                	je     14000c220 <__dyn_tls_dtor+0x20>
   14000c20d:	85 d2                	test   edx,edx
   14000c20f:	74 0f                	je     14000c220 <__dyn_tls_dtor+0x20>
   14000c211:	b8 01 00 00 00       	mov    eax,0x1
   14000c216:	48 83 c4 20          	add    rsp,0x20
   14000c21a:	5d                   	pop    rbp
   14000c21b:	c3                   	ret
   14000c21c:	0f 1f 40 00          	nop    DWORD PTR [rax+0x0]
   14000c220:	e8 ab 0a 00 00       	call   14000ccd0 <__mingw_TLScallback>
   14000c225:	b8 01 00 00 00       	mov    eax,0x1
   14000c22a:	48 83 c4 20          	add    rsp,0x20
   14000c22e:	5d                   	pop    rbp
   14000c22f:	c3                   	ret

000000014000c230 <__dyn_tls_init>:
   14000c230:	55                   	push   rbp
   14000c231:	56                   	push   rsi
   14000c232:	53                   	push   rbx
   14000c233:	48 83 ec 20          	sub    rsp,0x20
   14000c237:	48 8d 6c 24 20       	lea    rbp,[rsp+0x20]
   14000c23c:	48 8b 05 cd 59 00 00 	mov    rax,QWORD PTR [rip+0x59cd]        # 140011c10 <.refptr._CRT_MT>
   14000c243:	83 38 02             	cmp    DWORD PTR [rax],0x2
   14000c246:	74 06                	je     14000c24e <__dyn_tls_init+0x1e>
   14000c248:	c7 00 02 00 00 00    	mov    DWORD PTR [rax],0x2
   14000c24e:	83 fa 02             	cmp    edx,0x2
   14000c251:	74 15                	je     14000c268 <__dyn_tls_init+0x38>
   14000c253:	83 fa 01             	cmp    edx,0x1
   14000c256:	74 48                	je     14000c2a0 <__dyn_tls_init+0x70>
   14000c258:	b8 01 00 00 00       	mov    eax,0x1
   14000c25d:	48 83 c4 20          	add    rsp,0x20
   14000c261:	5b                   	pop    rbx
   14000c262:	5e                   	pop    rsi
   14000c263:	5d                   	pop    rbp
   14000c264:	c3                   	ret
   14000c265:	0f 1f 00             	nop    DWORD PTR [rax]
   14000c268:	48 8d 1d e9 ad 00 00 	lea    rbx,[rip+0xade9]        # 140017058 <__xd_z>
   14000c26f:	48 8d 35 e2 ad 00 00 	lea    rsi,[rip+0xade2]        # 140017058 <__xd_z>
   14000c276:	48 39 f3             	cmp    rbx,rsi
   14000c279:	74 dd                	je     14000c258 <__dyn_tls_init+0x28>
   14000c27b:	0f 1f 44 00 00       	nop    DWORD PTR [rax+rax*1+0x0]
   14000c280:	48 8b 03             	mov    rax,QWORD PTR [rbx]
   14000c283:	48 85 c0             	test   rax,rax
   14000c286:	74 02                	je     14000c28a <__dyn_tls_init+0x5a>
   14000c288:	ff d0                	call   rax
   14000c28a:	48 83 c3 08          	add    rbx,0x8
   14000c28e:	48 39 f3             	cmp    rbx,rsi
   14000c291:	75 ed                	jne    14000c280 <__dyn_tls_init+0x50>
   14000c293:	b8 01 00 00 00       	mov    eax,0x1
   14000c298:	48 83 c4 20          	add    rsp,0x20
   14000c29c:	5b                   	pop    rbx
   14000c29d:	5e                   	pop    rsi
   14000c29e:	5d                   	pop    rbp
   14000c29f:	c3                   	ret
   14000c2a0:	e8 2b 0a 00 00       	call   14000ccd0 <__mingw_TLScallback>
   14000c2a5:	b8 01 00 00 00       	mov    eax,0x1
   14000c2aa:	48 83 c4 20          	add    rsp,0x20
   14000c2ae:	5b                   	pop    rbx
   14000c2af:	5e                   	pop    rsi
   14000c2b0:	5d                   	pop    rbp
   14000c2b1:	c3                   	ret
   14000c2b2:	66 66 2e 0f 1f 84 00 	data16 cs nop WORD PTR [rax+rax*1+0x0]
   14000c2b9:	00 00 00 00 
   14000c2bd:	0f 1f 00             	nop    DWORD PTR [rax]

000000014000c2c0 <__tlregdtor>:
   14000c2c0:	31 c0                	xor    eax,eax
   14000c2c2:	c3                   	ret
   14000c2c3:	90                   	nop
   14000c2c4:	90                   	nop
   14000c2c5:	90                   	nop
   14000c2c6:	90                   	nop
   14000c2c7:	90                   	nop
   14000c2c8:	90                   	nop
   14000c2c9:	90                   	nop
   14000c2ca:	90                   	nop
   14000c2cb:	90                   	nop
   14000c2cc:	90                   	nop
   14000c2cd:	90                   	nop
   14000c2ce:	90                   	nop
   14000c2cf:	90                   	nop

000000014000c2d0 <_matherr>:
   14000c2d0:	55                   	push   rbp
   14000c2d1:	56                   	push   rsi
   14000c2d2:	53                   	push   rbx
   14000c2d3:	48 83 ec 70          	sub    rsp,0x70
   14000c2d7:	48 8d 6c 24 40       	lea    rbp,[rsp+0x40]
   14000c2dc:	0f 11 75 00          	movups XMMWORD PTR [rbp+0x0],xmm6
   14000c2e0:	0f 11 7d 10          	movups XMMWORD PTR [rbp+0x10],xmm7
   14000c2e4:	44 0f 11 45 20       	movups XMMWORD PTR [rbp+0x20],xmm8
   14000c2e9:	83 39 06             	cmp    DWORD PTR [rcx],0x6
   14000c2ec:	0f 87 ca 00 00 00    	ja     14000c3bc <_matherr+0xec>
   14000c2f2:	8b 01                	mov    eax,DWORD PTR [rcx]
   14000c2f4:	48 8d 15 69 57 00 00 	lea    rdx,[rip+0x5769]        # 140011a64 <.rdata+0x124>
   14000c2fb:	48 63 04 82          	movsxd rax,DWORD PTR [rdx+rax*4]
   14000c2ff:	48 01 d0             	add    rax,rdx
   14000c302:	ff e0                	jmp    rax
   14000c304:	0f 1f 40 00          	nop    DWORD PTR [rax+0x0]
   14000c308:	48 8d 1d 50 56 00 00 	lea    rbx,[rip+0x5650]        # 14001195f <.rdata+0x1f>
   14000c30f:	f2 44 0f 10 41 20    	movsd  xmm8,QWORD PTR [rcx+0x20]
   14000c315:	f2 0f 10 79 18       	movsd  xmm7,QWORD PTR [rcx+0x18]
   14000c31a:	f2 0f 10 71 10       	movsd  xmm6,QWORD PTR [rcx+0x10]
   14000c31f:	48 8b 71 08          	mov    rsi,QWORD PTR [rcx+0x8]
   14000c323:	b9 02 00 00 00       	mov    ecx,0x2
   14000c328:	e8 33 0f 00 00       	call   14000d260 <__acrt_iob_func>
   14000c32d:	f2 44 0f 11 44 24 30 	movsd  QWORD PTR [rsp+0x30],xmm8
   14000c334:	49 89 d8             	mov    r8,rbx
   14000c337:	48 8d 15 fa 56 00 00 	lea    rdx,[rip+0x56fa]        # 140011a38 <.rdata+0xf8>
   14000c33e:	f2 0f 11 7c 24 28    	movsd  QWORD PTR [rsp+0x28],xmm7
   14000c344:	48 89 c1             	mov    rcx,rax
   14000c347:	49 89 f1             	mov    r9,rsi
   14000c34a:	f2 0f 11 74 24 20    	movsd  QWORD PTR [rsp+0x20],xmm6
   14000c350:	e8 9b 0f 00 00       	call   14000d2f0 <fprintf>
   14000c355:	90                   	nop
   14000c356:	0f 10 75 00          	movups xmm6,XMMWORD PTR [rbp+0x0]
   14000c35a:	0f 10 7d 10          	movups xmm7,XMMWORD PTR [rbp+0x10]
   14000c35e:	31 c0                	xor    eax,eax
   14000c360:	44 0f 10 45 20       	movups xmm8,XMMWORD PTR [rbp+0x20]
   14000c365:	48 83 c4 70          	add    rsp,0x70
   14000c369:	5b                   	pop    rbx
   14000c36a:	5e                   	pop    rsi
   14000c36b:	5d                   	pop    rbp
   14000c36c:	c3                   	ret
   14000c36d:	0f 1f 00             	nop    DWORD PTR [rax]
   14000c370:	48 8d 1d c9 55 00 00 	lea    rbx,[rip+0x55c9]        # 140011940 <.rdata>
   14000c377:	eb 96                	jmp    14000c30f <_matherr+0x3f>
   14000c379:	0f 1f 80 00 00 00 00 	nop    DWORD PTR [rax+0x0]
   14000c380:	48 8d 1d 19 56 00 00 	lea    rbx,[rip+0x5619]        # 1400119a0 <.rdata+0x60>
   14000c387:	eb 86                	jmp    14000c30f <_matherr+0x3f>
   14000c389:	0f 1f 80 00 00 00 00 	nop    DWORD PTR [rax+0x0]
   14000c390:	48 8d 1d e9 55 00 00 	lea    rbx,[rip+0x55e9]        # 140011980 <.rdata+0x40>
   14000c397:	e9 73 ff ff ff       	jmp    14000c30f <_matherr+0x3f>
   14000c39c:	0f 1f 40 00          	nop    DWORD PTR [rax+0x0]
   14000c3a0:	48 8d 1d 49 56 00 00 	lea    rbx,[rip+0x5649]        # 1400119f0 <.rdata+0xb0>
   14000c3a7:	e9 63 ff ff ff       	jmp    14000c30f <_matherr+0x3f>
   14000c3ac:	0f 1f 40 00          	nop    DWORD PTR [rax+0x0]
   14000c3b0:	48 8d 1d 11 56 00 00 	lea    rbx,[rip+0x5611]        # 1400119c8 <.rdata+0x88>
   14000c3b7:	e9 53 ff ff ff       	jmp    14000c30f <_matherr+0x3f>
   14000c3bc:	48 8d 1d 63 56 00 00 	lea    rbx,[rip+0x5663]        # 140011a26 <.rdata+0xe6>
   14000c3c3:	e9 47 ff ff ff       	jmp    14000c30f <_matherr+0x3f>
   14000c3c8:	90                   	nop
   14000c3c9:	90                   	nop
   14000c3ca:	90                   	nop
   14000c3cb:	90                   	nop
   14000c3cc:	90                   	nop
   14000c3cd:	90                   	nop
   14000c3ce:	90                   	nop
   14000c3cf:	90                   	nop

000000014000c3d0 <_fpreset>:
   14000c3d0:	db e3                	fninit
   14000c3d2:	c3                   	ret
   14000c3d3:	90                   	nop
   14000c3d4:	90                   	nop
   14000c3d5:	90                   	nop
   14000c3d6:	90                   	nop
   14000c3d7:	90                   	nop
   14000c3d8:	90                   	nop
   14000c3d9:	90                   	nop
   14000c3da:	90                   	nop
   14000c3db:	90                   	nop
   14000c3dc:	90                   	nop
   14000c3dd:	90                   	nop
   14000c3de:	90                   	nop
   14000c3df:	90                   	nop

000000014000c3e0 <__report_error>:
   14000c3e0:	55                   	push   rbp
   14000c3e1:	56                   	push   rsi
   14000c3e2:	53                   	push   rbx
   14000c3e3:	48 83 ec 30          	sub    rsp,0x30
   14000c3e7:	48 8d 6c 24 30       	lea    rbp,[rsp+0x30]
   14000c3ec:	48 89 cb             	mov    rbx,rcx
   14000c3ef:	48 8d 45 28          	lea    rax,[rbp+0x28]
   14000c3f3:	b9 02 00 00 00       	mov    ecx,0x2
   14000c3f8:	48 89 55 28          	mov    QWORD PTR [rbp+0x28],rdx
   14000c3fc:	4c 89 45 30          	mov    QWORD PTR [rbp+0x30],r8
   14000c400:	4c 89 4d 38          	mov    QWORD PTR [rbp+0x38],r9
   14000c404:	48 89 45 f8          	mov    QWORD PTR [rbp-0x8],rax
   14000c408:	e8 53 0e 00 00       	call   14000d260 <__acrt_iob_func>
   14000c40d:	41 b8 1b 00 00 00    	mov    r8d,0x1b
   14000c413:	ba 01 00 00 00       	mov    edx,0x1
   14000c418:	48 8d 0d 61 56 00 00 	lea    rcx,[rip+0x5661]        # 140011a80 <.rdata>
   14000c41f:	49 89 c1             	mov    r9,rax
   14000c422:	e8 d9 0e 00 00       	call   14000d300 <fwrite>
   14000c427:	48 8b 75 f8          	mov    rsi,QWORD PTR [rbp-0x8]
   14000c42b:	b9 02 00 00 00       	mov    ecx,0x2
   14000c430:	e8 2b 0e 00 00       	call   14000d260 <__acrt_iob_func>
   14000c435:	48 89 da             	mov    rdx,rbx
   14000c438:	48 89 c1             	mov    rcx,rax
   14000c43b:	49 89 f0             	mov    r8,rsi
   14000c43e:	e8 fd 0e 00 00       	call   14000d340 <vfprintf>
   14000c443:	e8 90 0e 00 00       	call   14000d2d8 <abort>
   14000c448:	90                   	nop
   14000c449:	0f 1f 80 00 00 00 00 	nop    DWORD PTR [rax+0x0]

000000014000c450 <mark_section_writable>:
   14000c450:	55                   	push   rbp
   14000c451:	57                   	push   rdi
   14000c452:	56                   	push   rsi
   14000c453:	53                   	push   rbx
   14000c454:	48 83 ec 58          	sub    rsp,0x58
   14000c458:	48 8d 6c 24 50       	lea    rbp,[rsp+0x50]
   14000c45d:	48 63 35 60 8c 00 00 	movsxd rsi,DWORD PTR [rip+0x8c60]        # 1400150c4 <maxSections>
   14000c464:	48 89 cb             	mov    rbx,rcx
   14000c467:	85 f6                	test   esi,esi
   14000c469:	0f 8e 11 01 00 00    	jle    14000c580 <mark_section_writable+0x130>
   14000c46f:	48 8b 05 52 8c 00 00 	mov    rax,QWORD PTR [rip+0x8c52]        # 1400150c8 <the_secs>
   14000c476:	45 31 c9             	xor    r9d,r9d
   14000c479:	48 83 c0 18          	add    rax,0x18
   14000c47d:	0f 1f 00             	nop    DWORD PTR [rax]
   14000c480:	4c 8b 00             	mov    r8,QWORD PTR [rax]
   14000c483:	4c 39 c3             	cmp    rbx,r8
   14000c486:	72 13                	jb     14000c49b <mark_section_writable+0x4b>
   14000c488:	48 8b 50 08          	mov    rdx,QWORD PTR [rax+0x8]
   14000c48c:	8b 52 08             	mov    edx,DWORD PTR [rdx+0x8]
   14000c48f:	49 01 d0             	add    r8,rdx
   14000c492:	4c 39 c3             	cmp    rbx,r8
   14000c495:	0f 82 88 00 00 00    	jb     14000c523 <mark_section_writable+0xd3>
   14000c49b:	41 83 c1 01          	add    r9d,0x1
   14000c49f:	48 83 c0 28          	add    rax,0x28
   14000c4a3:	41 39 f1             	cmp    r9d,esi
   14000c4a6:	75 d8                	jne    14000c480 <mark_section_writable+0x30>
   14000c4a8:	48 89 d9             	mov    rcx,rbx
   14000c4ab:	e8 50 0a 00 00       	call   14000cf00 <__mingw_GetSectionForAddress>
   14000c4b0:	48 89 c7             	mov    rdi,rax
   14000c4b3:	48 85 c0             	test   rax,rax
   14000c4b6:	0f 84 e6 00 00 00    	je     14000c5a2 <mark_section_writable+0x152>
   14000c4bc:	48 8b 05 05 8c 00 00 	mov    rax,QWORD PTR [rip+0x8c05]        # 1400150c8 <the_secs>
   14000c4c3:	48 8d 1c b6          	lea    rbx,[rsi+rsi*4]
   14000c4c7:	48 c1 e3 03          	shl    rbx,0x3
   14000c4cb:	48 01 d8             	add    rax,rbx
   14000c4ce:	48 89 78 20          	mov    QWORD PTR [rax+0x20],rdi
   14000c4d2:	c7 00 00 00 00 00    	mov    DWORD PTR [rax],0x0
   14000c4d8:	e8 63 0b 00 00       	call   14000d040 <_GetPEImageBase>
   14000c4dd:	8b 57 0c             	mov    edx,DWORD PTR [rdi+0xc]
   14000c4e0:	41 b8 30 00 00 00    	mov    r8d,0x30
   14000c4e6:	48 8d 0c 10          	lea    rcx,[rax+rdx*1]
   14000c4ea:	48 8b 05 d7 8b 00 00 	mov    rax,QWORD PTR [rip+0x8bd7]        # 1400150c8 <the_secs>
   14000c4f1:	48 8d 55 d0          	lea    rdx,[rbp-0x30]
   14000c4f5:	48 89 4c 18 18       	mov    QWORD PTR [rax+rbx*1+0x18],rcx
   14000c4fa:	ff 15 c8 9d 00 00    	call   QWORD PTR [rip+0x9dc8]        # 1400162c8 <__imp_VirtualQuery>
   14000c500:	48 85 c0             	test   rax,rax
   14000c503:	0f 84 7e 00 00 00    	je     14000c587 <mark_section_writable+0x137>
   14000c509:	8b 45 f4             	mov    eax,DWORD PTR [rbp-0xc]
   14000c50c:	8d 50 fc             	lea    edx,[rax-0x4]
   14000c50f:	83 e2 fb             	and    edx,0xfffffffb
   14000c512:	74 08                	je     14000c51c <mark_section_writable+0xcc>
   14000c514:	8d 50 c0             	lea    edx,[rax-0x40]
   14000c517:	83 e2 bf             	and    edx,0xffffffbf
   14000c51a:	75 14                	jne    14000c530 <mark_section_writable+0xe0>
   14000c51c:	83 05 a1 8b 00 00 01 	add    DWORD PTR [rip+0x8ba1],0x1        # 1400150c4 <maxSections>
   14000c523:	48 83 c4 58          	add    rsp,0x58
   14000c527:	5b                   	pop    rbx
   14000c528:	5e                   	pop    rsi
   14000c529:	5f                   	pop    rdi
   14000c52a:	5d                   	pop    rbp
   14000c52b:	c3                   	ret
   14000c52c:	0f 1f 40 00          	nop    DWORD PTR [rax+0x0]
   14000c530:	83 f8 02             	cmp    eax,0x2
   14000c533:	48 8b 4d d0          	mov    rcx,QWORD PTR [rbp-0x30]
   14000c537:	48 8b 55 e8          	mov    rdx,QWORD PTR [rbp-0x18]
   14000c53b:	41 b8 40 00 00 00    	mov    r8d,0x40
   14000c541:	b8 04 00 00 00       	mov    eax,0x4
   14000c546:	44 0f 44 c0          	cmove  r8d,eax
   14000c54a:	48 03 1d 77 8b 00 00 	add    rbx,QWORD PTR [rip+0x8b77]        # 1400150c8 <the_secs>
   14000c551:	48 89 4b 08          	mov    QWORD PTR [rbx+0x8],rcx
   14000c555:	49 89 d9             	mov    r9,rbx
   14000c558:	48 89 53 10          	mov    QWORD PTR [rbx+0x10],rdx
   14000c55c:	ff 15 5e 9d 00 00    	call   QWORD PTR [rip+0x9d5e]        # 1400162c0 <__imp_VirtualProtect>
   14000c562:	85 c0                	test   eax,eax
   14000c564:	75 b6                	jne    14000c51c <mark_section_writable+0xcc>
   14000c566:	ff 15 fc 9c 00 00    	call   QWORD PTR [rip+0x9cfc]        # 140016268 <__imp_GetLastError>
   14000c56c:	48 8d 0d 85 55 00 00 	lea    rcx,[rip+0x5585]        # 140011af8 <.rdata+0x78>
   14000c573:	89 c2                	mov    edx,eax
   14000c575:	e8 66 fe ff ff       	call   14000c3e0 <__report_error>
   14000c57a:	66 0f 1f 44 00 00    	nop    WORD PTR [rax+rax*1+0x0]
   14000c580:	31 f6                	xor    esi,esi
   14000c582:	e9 21 ff ff ff       	jmp    14000c4a8 <mark_section_writable+0x58>
   14000c587:	48 8b 05 3a 8b 00 00 	mov    rax,QWORD PTR [rip+0x8b3a]        # 1400150c8 <the_secs>
   14000c58e:	8b 57 08             	mov    edx,DWORD PTR [rdi+0x8]
   14000c591:	48 8d 0d 28 55 00 00 	lea    rcx,[rip+0x5528]        # 140011ac0 <.rdata+0x40>
   14000c598:	4c 8b 44 18 18       	mov    r8,QWORD PTR [rax+rbx*1+0x18]
   14000c59d:	e8 3e fe ff ff       	call   14000c3e0 <__report_error>
   14000c5a2:	48 89 da             	mov    rdx,rbx
   14000c5a5:	48 8d 0d f4 54 00 00 	lea    rcx,[rip+0x54f4]        # 140011aa0 <.rdata+0x20>
   14000c5ac:	e8 2f fe ff ff       	call   14000c3e0 <__report_error>
   14000c5b1:	90                   	nop
   14000c5b2:	66 66 2e 0f 1f 84 00 	data16 cs nop WORD PTR [rax+rax*1+0x0]
   14000c5b9:	00 00 00 00 
   14000c5bd:	0f 1f 00             	nop    DWORD PTR [rax]

000000014000c5c0 <_pei386_runtime_relocator>:
   14000c5c0:	55                   	push   rbp
   14000c5c1:	41 57                	push   r15
   14000c5c3:	41 56                	push   r14
   14000c5c5:	41 55                	push   r13
   14000c5c7:	41 54                	push   r12
   14000c5c9:	57                   	push   rdi
   14000c5ca:	56                   	push   rsi
   14000c5cb:	53                   	push   rbx
   14000c5cc:	48 83 ec 48          	sub    rsp,0x48
   14000c5d0:	48 8d 6c 24 40       	lea    rbp,[rsp+0x40]
   14000c5d5:	44 8b 25 e4 8a 00 00 	mov    r12d,DWORD PTR [rip+0x8ae4]        # 1400150c0 <was_init.0>
   14000c5dc:	45 85 e4             	test   r12d,r12d
   14000c5df:	74 17                	je     14000c5f8 <_pei386_runtime_relocator+0x38>
   14000c5e1:	48 8d 65 08          	lea    rsp,[rbp+0x8]
   14000c5e5:	5b                   	pop    rbx
   14000c5e6:	5e                   	pop    rsi
   14000c5e7:	5f                   	pop    rdi
   14000c5e8:	41 5c                	pop    r12
   14000c5ea:	41 5d                	pop    r13
   14000c5ec:	41 5e                	pop    r14
   14000c5ee:	41 5f                	pop    r15
   14000c5f0:	5d                   	pop    rbp
   14000c5f1:	c3                   	ret
   14000c5f2:	66 0f 1f 44 00 00    	nop    WORD PTR [rax+rax*1+0x0]
   14000c5f8:	c7 05 be 8a 00 00 01 	mov    DWORD PTR [rip+0x8abe],0x1        # 1400150c0 <was_init.0>
   14000c5ff:	00 00 00 
   14000c602:	e8 79 09 00 00       	call   14000cf80 <__mingw_GetSectionCount>
   14000c607:	48 98                	cdqe
   14000c609:	48 8d 04 80          	lea    rax,[rax+rax*4]
   14000c60d:	48 8d 04 c5 0f 00 00 	lea    rax,[rax*8+0xf]
   14000c614:	00 
   14000c615:	48 83 e0 f0          	and    rax,0xfffffffffffffff0
   14000c619:	e8 c2 0b 00 00       	call   14000d1e0 <___chkstk_ms>
   14000c61e:	4c 8b 2d 1b 56 00 00 	mov    r13,QWORD PTR [rip+0x561b]        # 140011c40 <.refptr.__RUNTIME_PSEUDO_RELOC_LIST_END__>
   14000c625:	48 8b 1d 24 56 00 00 	mov    rbx,QWORD PTR [rip+0x5624]        # 140011c50 <.refptr.__RUNTIME_PSEUDO_RELOC_LIST__>
   14000c62c:	c7 05 8e 8a 00 00 00 	mov    DWORD PTR [rip+0x8a8e],0x0        # 1400150c4 <maxSections>
   14000c633:	00 00 00 
   14000c636:	48 29 c4             	sub    rsp,rax
   14000c639:	48 8d 44 24 30       	lea    rax,[rsp+0x30]
   14000c63e:	48 89 05 83 8a 00 00 	mov    QWORD PTR [rip+0x8a83],rax        # 1400150c8 <the_secs>
   14000c645:	4c 89 e8             	mov    rax,r13
   14000c648:	48 29 d8             	sub    rax,rbx
   14000c64b:	48 83 f8 07          	cmp    rax,0x7
   14000c64f:	7e 90                	jle    14000c5e1 <_pei386_runtime_relocator+0x21>
   14000c651:	8b 13                	mov    edx,DWORD PTR [rbx]
   14000c653:	48 83 f8 0b          	cmp    rax,0xb
   14000c657:	0f 8f 03 01 00 00    	jg     14000c760 <_pei386_runtime_relocator+0x1a0>
   14000c65d:	8b 03                	mov    eax,DWORD PTR [rbx]
   14000c65f:	85 c0                	test   eax,eax
   14000c661:	0f 85 69 02 00 00    	jne    14000c8d0 <_pei386_runtime_relocator+0x310>
   14000c667:	8b 43 04             	mov    eax,DWORD PTR [rbx+0x4]
   14000c66a:	85 c0                	test   eax,eax
   14000c66c:	0f 85 5e 02 00 00    	jne    14000c8d0 <_pei386_runtime_relocator+0x310>
   14000c672:	8b 53 08             	mov    edx,DWORD PTR [rbx+0x8]
   14000c675:	83 fa 01             	cmp    edx,0x1
   14000c678:	0f 85 92 02 00 00    	jne    14000c910 <_pei386_runtime_relocator+0x350>
   14000c67e:	48 83 c3 0c          	add    rbx,0xc
   14000c682:	4c 39 eb             	cmp    rbx,r13
   14000c685:	0f 83 56 ff ff ff    	jae    14000c5e1 <_pei386_runtime_relocator+0x21>
   14000c68b:	4c 8b 35 de 55 00 00 	mov    r14,QWORD PTR [rip+0x55de]        # 140011c70 <.refptr.__image_base__>
   14000c692:	41 bf ff ff ff ff    	mov    r15d,0xffffffff
   14000c698:	eb 65                	jmp    14000c6ff <_pei386_runtime_relocator+0x13f>
   14000c69a:	66 0f 1f 44 00 00    	nop    WORD PTR [rax+rax*1+0x0]
   14000c6a0:	83 f9 08             	cmp    ecx,0x8
   14000c6a3:	0f 84 d7 00 00 00    	je     14000c780 <_pei386_runtime_relocator+0x1c0>
   14000c6a9:	83 f9 10             	cmp    ecx,0x10
   14000c6ac:	0f 85 50 02 00 00    	jne    14000c902 <_pei386_runtime_relocator+0x342>
   14000c6b2:	0f b7 37             	movzx  esi,WORD PTR [rdi]
   14000c6b5:	81 e2 c0 00 00 00    	and    edx,0xc0
   14000c6bb:	66 85 f6             	test   si,si
   14000c6be:	0f 89 cc 01 00 00    	jns    14000c890 <_pei386_runtime_relocator+0x2d0>
   14000c6c4:	48 81 ce 00 00 ff ff 	or     rsi,0xffffffffffff0000
   14000c6cb:	48 29 c6             	sub    rsi,rax
   14000c6ce:	4c 01 ce             	add    rsi,r9
   14000c6d1:	85 d2                	test   edx,edx
   14000c6d3:	75 12                	jne    14000c6e7 <_pei386_runtime_relocator+0x127>
   14000c6d5:	48 81 fe 00 80 ff ff 	cmp    rsi,0xffffffffffff8000
   14000c6dc:	7c 65                	jl     14000c743 <_pei386_runtime_relocator+0x183>
   14000c6de:	48 81 fe ff ff 00 00 	cmp    rsi,0xffff
   14000c6e5:	7f 5c                	jg     14000c743 <_pei386_runtime_relocator+0x183>
   14000c6e7:	48 89 f9             	mov    rcx,rdi
   14000c6ea:	e8 61 fd ff ff       	call   14000c450 <mark_section_writable>
   14000c6ef:	66 89 37             	mov    WORD PTR [rdi],si
   14000c6f2:	48 83 c3 0c          	add    rbx,0xc
   14000c6f6:	4c 39 eb             	cmp    rbx,r13
   14000c6f9:	0f 83 d1 00 00 00    	jae    14000c7d0 <_pei386_runtime_relocator+0x210>
   14000c6ff:	8b 03                	mov    eax,DWORD PTR [rbx]
   14000c701:	8b 53 08             	mov    edx,DWORD PTR [rbx+0x8]
   14000c704:	8b 7b 04             	mov    edi,DWORD PTR [rbx+0x4]
   14000c707:	4c 01 f0             	add    rax,r14
   14000c70a:	0f b6 ca             	movzx  ecx,dl
   14000c70d:	4c 8b 08             	mov    r9,QWORD PTR [rax]
   14000c710:	4c 01 f7             	add    rdi,r14
   14000c713:	83 f9 20             	cmp    ecx,0x20
   14000c716:	0f 84 0c 01 00 00    	je     14000c828 <_pei386_runtime_relocator+0x268>
   14000c71c:	76 82                	jbe    14000c6a0 <_pei386_runtime_relocator+0xe0>
   14000c71e:	83 f9 40             	cmp    ecx,0x40
   14000c721:	0f 85 db 01 00 00    	jne    14000c902 <_pei386_runtime_relocator+0x342>
   14000c727:	48 8b 37             	mov    rsi,QWORD PTR [rdi]
   14000c72a:	89 d1                	mov    ecx,edx
   14000c72c:	48 29 c6             	sub    rsi,rax
   14000c72f:	4c 01 ce             	add    rsi,r9
   14000c732:	81 e1 c0 00 00 00    	and    ecx,0xc0
   14000c738:	0f 85 42 01 00 00    	jne    14000c880 <_pei386_runtime_relocator+0x2c0>
   14000c73e:	48 85 f6             	test   rsi,rsi
   14000c741:	78 af                	js     14000c6f2 <_pei386_runtime_relocator+0x132>
   14000c743:	48 89 74 24 20       	mov    QWORD PTR [rsp+0x20],rsi
   14000c748:	89 ca                	mov    edx,ecx
   14000c74a:	49 89 f8             	mov    r8,rdi
   14000c74d:	48 8d 0d 34 54 00 00 	lea    rcx,[rip+0x5434]        # 140011b88 <.rdata+0x108>
   14000c754:	e8 87 fc ff ff       	call   14000c3e0 <__report_error>
   14000c759:	0f 1f 80 00 00 00 00 	nop    DWORD PTR [rax+0x0]
   14000c760:	85 d2                	test   edx,edx
   14000c762:	0f 85 68 01 00 00    	jne    14000c8d0 <_pei386_runtime_relocator+0x310>
   14000c768:	8b 43 04             	mov    eax,DWORD PTR [rbx+0x4]
   14000c76b:	89 c2                	mov    edx,eax
   14000c76d:	0b 53 08             	or     edx,DWORD PTR [rbx+0x8]
   14000c770:	0f 85 f4 fe ff ff    	jne    14000c66a <_pei386_runtime_relocator+0xaa>
   14000c776:	48 83 c3 0c          	add    rbx,0xc
   14000c77a:	e9 de fe ff ff       	jmp    14000c65d <_pei386_runtime_relocator+0x9d>
   14000c77f:	90                   	nop
   14000c780:	0f b6 37             	movzx  esi,BYTE PTR [rdi]
   14000c783:	81 e2 c0 00 00 00    	and    edx,0xc0
   14000c789:	40 84 f6             	test   sil,sil
   14000c78c:	0f 89 26 01 00 00    	jns    14000c8b8 <_pei386_runtime_relocator+0x2f8>
   14000c792:	48 81 ce 00 ff ff ff 	or     rsi,0xffffffffffffff00
   14000c799:	48 29 c6             	sub    rsi,rax
   14000c79c:	4c 01 ce             	add    rsi,r9
   14000c79f:	85 d2                	test   edx,edx
   14000c7a1:	75 0f                	jne    14000c7b2 <_pei386_runtime_relocator+0x1f2>
   14000c7a3:	48 81 fe ff 00 00 00 	cmp    rsi,0xff
   14000c7aa:	7f 97                	jg     14000c743 <_pei386_runtime_relocator+0x183>
   14000c7ac:	48 83 fe 80          	cmp    rsi,0xffffffffffffff80
   14000c7b0:	7c 91                	jl     14000c743 <_pei386_runtime_relocator+0x183>
   14000c7b2:	48 89 f9             	mov    rcx,rdi
   14000c7b5:	48 83 c3 0c          	add    rbx,0xc
   14000c7b9:	e8 92 fc ff ff       	call   14000c450 <mark_section_writable>
   14000c7be:	40 88 37             	mov    BYTE PTR [rdi],sil
   14000c7c1:	4c 39 eb             	cmp    rbx,r13
   14000c7c4:	0f 82 35 ff ff ff    	jb     14000c6ff <_pei386_runtime_relocator+0x13f>
   14000c7ca:	66 0f 1f 44 00 00    	nop    WORD PTR [rax+rax*1+0x0]
   14000c7d0:	8b 15 ee 88 00 00    	mov    edx,DWORD PTR [rip+0x88ee]        # 1400150c4 <maxSections>
   14000c7d6:	85 d2                	test   edx,edx
   14000c7d8:	0f 8e 03 fe ff ff    	jle    14000c5e1 <_pei386_runtime_relocator+0x21>
   14000c7de:	48 8b 35 db 9a 00 00 	mov    rsi,QWORD PTR [rip+0x9adb]        # 1400162c0 <__imp_VirtualProtect>
   14000c7e5:	31 db                	xor    ebx,ebx
   14000c7e7:	48 8d 7d fc          	lea    rdi,[rbp-0x4]
   14000c7eb:	0f 1f 44 00 00       	nop    DWORD PTR [rax+rax*1+0x0]
   14000c7f0:	48 8b 05 d1 88 00 00 	mov    rax,QWORD PTR [rip+0x88d1]        # 1400150c8 <the_secs>
   14000c7f7:	48 01 d8             	add    rax,rbx
   14000c7fa:	44 8b 00             	mov    r8d,DWORD PTR [rax]
   14000c7fd:	45 85 c0             	test   r8d,r8d
   14000c800:	74 0d                	je     14000c80f <_pei386_runtime_relocator+0x24f>
   14000c802:	48 8b 50 10          	mov    rdx,QWORD PTR [rax+0x10]
   14000c806:	48 8b 48 08          	mov    rcx,QWORD PTR [rax+0x8]
   14000c80a:	49 89 f9             	mov    r9,rdi
   14000c80d:	ff d6                	call   rsi
   14000c80f:	41 83 c4 01          	add    r12d,0x1
   14000c813:	48 83 c3 28          	add    rbx,0x28
   14000c817:	44 3b 25 a6 88 00 00 	cmp    r12d,DWORD PTR [rip+0x88a6]        # 1400150c4 <maxSections>
   14000c81e:	7c d0                	jl     14000c7f0 <_pei386_runtime_relocator+0x230>
   14000c820:	e9 bc fd ff ff       	jmp    14000c5e1 <_pei386_runtime_relocator+0x21>
   14000c825:	0f 1f 00             	nop    DWORD PTR [rax]
   14000c828:	8b 37                	mov    esi,DWORD PTR [rdi]
   14000c82a:	81 e2 c0 00 00 00    	and    edx,0xc0
   14000c830:	85 f6                	test   esi,esi
   14000c832:	79 74                	jns    14000c8a8 <_pei386_runtime_relocator+0x2e8>
   14000c834:	49 bb 00 00 00 00 ff 	movabs r11,0xffffffff00000000
   14000c83b:	ff ff ff 
   14000c83e:	4c 09 de             	or     rsi,r11
   14000c841:	48 29 c6             	sub    rsi,rax
   14000c844:	4c 01 ce             	add    rsi,r9
   14000c847:	85 d2                	test   edx,edx
   14000c849:	75 1c                	jne    14000c867 <_pei386_runtime_relocator+0x2a7>
   14000c84b:	4c 39 fe             	cmp    rsi,r15
   14000c84e:	0f 8f ef fe ff ff    	jg     14000c743 <_pei386_runtime_relocator+0x183>
   14000c854:	48 b8 ff ff ff 7f ff 	movabs rax,0xffffffff7fffffff
   14000c85b:	ff ff ff 
   14000c85e:	48 39 c6             	cmp    rsi,rax
   14000c861:	0f 8e dc fe ff ff    	jle    14000c743 <_pei386_runtime_relocator+0x183>
   14000c867:	48 89 f9             	mov    rcx,rdi
   14000c86a:	e8 e1 fb ff ff       	call   14000c450 <mark_section_writable>
   14000c86f:	89 37                	mov    DWORD PTR [rdi],esi
   14000c871:	e9 7c fe ff ff       	jmp    14000c6f2 <_pei386_runtime_relocator+0x132>
   14000c876:	66 2e 0f 1f 84 00 00 	cs nop WORD PTR [rax+rax*1+0x0]
   14000c87d:	00 00 00 
   14000c880:	48 89 f9             	mov    rcx,rdi
   14000c883:	e8 c8 fb ff ff       	call   14000c450 <mark_section_writable>
   14000c888:	48 89 37             	mov    QWORD PTR [rdi],rsi
   14000c88b:	e9 62 fe ff ff       	jmp    14000c6f2 <_pei386_runtime_relocator+0x132>
   14000c890:	48 29 c6             	sub    rsi,rax
   14000c893:	4c 01 ce             	add    rsi,r9
   14000c896:	85 d2                	test   edx,edx
   14000c898:	0f 84 37 fe ff ff    	je     14000c6d5 <_pei386_runtime_relocator+0x115>
   14000c89e:	e9 44 fe ff ff       	jmp    14000c6e7 <_pei386_runtime_relocator+0x127>
   14000c8a3:	0f 1f 44 00 00       	nop    DWORD PTR [rax+rax*1+0x0]
   14000c8a8:	48 29 c6             	sub    rsi,rax
   14000c8ab:	4c 01 ce             	add    rsi,r9
   14000c8ae:	85 d2                	test   edx,edx
   14000c8b0:	74 99                	je     14000c84b <_pei386_runtime_relocator+0x28b>
   14000c8b2:	eb b3                	jmp    14000c867 <_pei386_runtime_relocator+0x2a7>
   14000c8b4:	0f 1f 40 00          	nop    DWORD PTR [rax+0x0]
   14000c8b8:	48 29 c6             	sub    rsi,rax
   14000c8bb:	4c 01 ce             	add    rsi,r9
   14000c8be:	85 d2                	test   edx,edx
   14000c8c0:	0f 84 dd fe ff ff    	je     14000c7a3 <_pei386_runtime_relocator+0x1e3>
   14000c8c6:	e9 e7 fe ff ff       	jmp    14000c7b2 <_pei386_runtime_relocator+0x1f2>
   14000c8cb:	0f 1f 44 00 00       	nop    DWORD PTR [rax+rax*1+0x0]
   14000c8d0:	4c 39 eb             	cmp    rbx,r13
   14000c8d3:	0f 83 08 fd ff ff    	jae    14000c5e1 <_pei386_runtime_relocator+0x21>
   14000c8d9:	4c 8b 35 90 53 00 00 	mov    r14,QWORD PTR [rip+0x5390]        # 140011c70 <.refptr.__image_base__>
   14000c8e0:	8b 73 04             	mov    esi,DWORD PTR [rbx+0x4]
   14000c8e3:	8b 3b                	mov    edi,DWORD PTR [rbx]
   14000c8e5:	48 83 c3 08          	add    rbx,0x8
   14000c8e9:	4c 01 f6             	add    rsi,r14
   14000c8ec:	03 3e                	add    edi,DWORD PTR [rsi]
   14000c8ee:	48 89 f1             	mov    rcx,rsi
   14000c8f1:	e8 5a fb ff ff       	call   14000c450 <mark_section_writable>
   14000c8f6:	89 3e                	mov    DWORD PTR [rsi],edi
   14000c8f8:	4c 39 eb             	cmp    rbx,r13
   14000c8fb:	72 e3                	jb     14000c8e0 <_pei386_runtime_relocator+0x320>
   14000c8fd:	e9 ce fe ff ff       	jmp    14000c7d0 <_pei386_runtime_relocator+0x210>
   14000c902:	89 ca                	mov    edx,ecx
   14000c904:	48 8d 0d 4d 52 00 00 	lea    rcx,[rip+0x524d]        # 140011b58 <.rdata+0xd8>
   14000c90b:	e8 d0 fa ff ff       	call   14000c3e0 <__report_error>
   14000c910:	48 8d 0d 09 52 00 00 	lea    rcx,[rip+0x5209]        # 140011b20 <.rdata+0xa0>
   14000c917:	e8 c4 fa ff ff       	call   14000c3e0 <__report_error>
   14000c91c:	90                   	nop
   14000c91d:	90                   	nop
   14000c91e:	90                   	nop
   14000c91f:	90                   	nop

000000014000c920 <__mingw_raise_matherr>:
   14000c920:	55                   	push   rbp
   14000c921:	48 89 e5             	mov    rbp,rsp
   14000c924:	48 83 ec 50          	sub    rsp,0x50
   14000c928:	48 8b 05 a1 87 00 00 	mov    rax,QWORD PTR [rip+0x87a1]        # 1400150d0 <stUserMathErr>
   14000c92f:	66 0f 14 d3          	unpcklpd xmm2,xmm3
   14000c933:	48 85 c0             	test   rax,rax
   14000c936:	74 1c                	je     14000c954 <__mingw_raise_matherr+0x34>
   14000c938:	f2 0f 10 45 30       	movsd  xmm0,QWORD PTR [rbp+0x30]
   14000c93d:	89 4d d0             	mov    DWORD PTR [rbp-0x30],ecx
   14000c940:	48 8d 4d d0          	lea    rcx,[rbp-0x30]
   14000c944:	48 89 55 d8          	mov    QWORD PTR [rbp-0x28],rdx
   14000c948:	0f 11 55 e0          	movups XMMWORD PTR [rbp-0x20],xmm2
   14000c94c:	f2 0f 11 45 f0       	movsd  QWORD PTR [rbp-0x10],xmm0
   14000c951:	ff d0                	call   rax
   14000c953:	90                   	nop
   14000c954:	48 83 c4 50          	add    rsp,0x50
   14000c958:	5d                   	pop    rbp
   14000c959:	c3                   	ret
   14000c95a:	66 0f 1f 44 00 00    	nop    WORD PTR [rax+rax*1+0x0]

000000014000c960 <__mingw_setusermatherr>:
   14000c960:	48 89 0d 69 87 00 00 	mov    QWORD PTR [rip+0x8769],rcx        # 1400150d0 <stUserMathErr>
   14000c967:	e9 44 09 00 00       	jmp    14000d2b0 <__setusermatherr>
   14000c96c:	90                   	nop
   14000c96d:	90                   	nop
   14000c96e:	90                   	nop
   14000c96f:	90                   	nop

000000014000c970 <_gnu_exception_handler>:
   14000c970:	55                   	push   rbp
   14000c971:	53                   	push   rbx
   14000c972:	48 83 ec 28          	sub    rsp,0x28
   14000c976:	48 8d 6c 24 20       	lea    rbp,[rsp+0x20]
   14000c97b:	48 8b 11             	mov    rdx,QWORD PTR [rcx]
   14000c97e:	8b 02                	mov    eax,DWORD PTR [rdx]
   14000c980:	48 89 cb             	mov    rbx,rcx
   14000c983:	89 c1                	mov    ecx,eax
   14000c985:	81 e1 ff ff ff 20    	and    ecx,0x20ffffff
   14000c98b:	81 f9 43 43 47 20    	cmp    ecx,0x20474343
   14000c991:	0f 84 b9 00 00 00    	je     14000ca50 <_gnu_exception_handler+0xe0>
   14000c997:	3d 96 00 00 c0       	cmp    eax,0xc0000096
   14000c99c:	77 49                	ja     14000c9e7 <_gnu_exception_handler+0x77>
   14000c99e:	3d 8b 00 00 c0       	cmp    eax,0xc000008b
   14000c9a3:	76 5b                	jbe    14000ca00 <_gnu_exception_handler+0x90>
   14000c9a5:	05 73 ff ff 3f       	add    eax,0x3fffff73
   14000c9aa:	83 f8 09             	cmp    eax,0x9
   14000c9ad:	0f 87 8d 00 00 00    	ja     14000ca40 <_gnu_exception_handler+0xd0>
   14000c9b3:	48 8d 15 26 52 00 00 	lea    rdx,[rip+0x5226]        # 140011be0 <.rdata>
   14000c9ba:	48 63 04 82          	movsxd rax,DWORD PTR [rdx+rax*4]
   14000c9be:	48 01 d0             	add    rax,rdx
   14000c9c1:	ff e0                	jmp    rax
   14000c9c3:	0f 1f 44 00 00       	nop    DWORD PTR [rax+rax*1+0x0]
   14000c9c8:	31 d2                	xor    edx,edx
   14000c9ca:	b9 08 00 00 00       	mov    ecx,0x8
   14000c9cf:	e8 4c 09 00 00       	call   14000d320 <signal>
   14000c9d4:	48 83 f8 01          	cmp    rax,0x1
   14000c9d8:	0f 84 36 01 00 00    	je     14000cb14 <_gnu_exception_handler+0x1a4>
   14000c9de:	48 85 c0             	test   rax,rax
   14000c9e1:	0f 85 f9 00 00 00    	jne    14000cae0 <_gnu_exception_handler+0x170>
   14000c9e7:	48 8b 05 02 87 00 00 	mov    rax,QWORD PTR [rip+0x8702]        # 1400150f0 <__mingw_oldexcpt_handler>
   14000c9ee:	48 85 c0             	test   rax,rax
   14000c9f1:	74 6d                	je     14000ca60 <_gnu_exception_handler+0xf0>
   14000c9f3:	48 89 d9             	mov    rcx,rbx
   14000c9f6:	48 83 c4 28          	add    rsp,0x28
   14000c9fa:	5b                   	pop    rbx
   14000c9fb:	5d                   	pop    rbp
   14000c9fc:	48 ff e0             	rex.W jmp rax
   14000c9ff:	90                   	nop
   14000ca00:	3d 05 00 00 c0       	cmp    eax,0xc0000005
   14000ca05:	0f 84 a5 00 00 00    	je     14000cab0 <_gnu_exception_handler+0x140>
   14000ca0b:	76 63                	jbe    14000ca70 <_gnu_exception_handler+0x100>
   14000ca0d:	3d 08 00 00 c0       	cmp    eax,0xc0000008
   14000ca12:	74 2c                	je     14000ca40 <_gnu_exception_handler+0xd0>
   14000ca14:	3d 1d 00 00 c0       	cmp    eax,0xc000001d
   14000ca19:	75 cc                	jne    14000c9e7 <_gnu_exception_handler+0x77>
   14000ca1b:	31 d2                	xor    edx,edx
   14000ca1d:	b9 04 00 00 00       	mov    ecx,0x4
   14000ca22:	e8 f9 08 00 00       	call   14000d320 <signal>
   14000ca27:	48 83 f8 01          	cmp    rax,0x1
   14000ca2b:	0f 84 cf 00 00 00    	je     14000cb00 <_gnu_exception_handler+0x190>
   14000ca31:	48 85 c0             	test   rax,rax
   14000ca34:	74 b1                	je     14000c9e7 <_gnu_exception_handler+0x77>
   14000ca36:	b9 04 00 00 00       	mov    ecx,0x4
   14000ca3b:	ff d0                	call   rax
   14000ca3d:	0f 1f 00             	nop    DWORD PTR [rax]
   14000ca40:	b8 ff ff ff ff       	mov    eax,0xffffffff
   14000ca45:	eb 1b                	jmp    14000ca62 <_gnu_exception_handler+0xf2>
   14000ca47:	66 0f 1f 84 00 00 00 	nop    WORD PTR [rax+rax*1+0x0]
   14000ca4e:	00 00 
   14000ca50:	f6 42 04 01          	test   BYTE PTR [rdx+0x4],0x1
   14000ca54:	0f 85 3d ff ff ff    	jne    14000c997 <_gnu_exception_handler+0x27>
   14000ca5a:	eb e4                	jmp    14000ca40 <_gnu_exception_handler+0xd0>
   14000ca5c:	0f 1f 40 00          	nop    DWORD PTR [rax+0x0]
   14000ca60:	31 c0                	xor    eax,eax
   14000ca62:	48 83 c4 28          	add    rsp,0x28
   14000ca66:	5b                   	pop    rbx
   14000ca67:	5d                   	pop    rbp
   14000ca68:	c3                   	ret
   14000ca69:	0f 1f 80 00 00 00 00 	nop    DWORD PTR [rax+0x0]
   14000ca70:	3d 02 00 00 80       	cmp    eax,0x80000002
   14000ca75:	0f 85 6c ff ff ff    	jne    14000c9e7 <_gnu_exception_handler+0x77>
   14000ca7b:	eb c3                	jmp    14000ca40 <_gnu_exception_handler+0xd0>
   14000ca7d:	0f 1f 00             	nop    DWORD PTR [rax]
   14000ca80:	31 d2                	xor    edx,edx
   14000ca82:	b9 08 00 00 00       	mov    ecx,0x8
   14000ca87:	e8 94 08 00 00       	call   14000d320 <signal>
   14000ca8c:	48 83 f8 01          	cmp    rax,0x1
   14000ca90:	0f 85 48 ff ff ff    	jne    14000c9de <_gnu_exception_handler+0x6e>
   14000ca96:	ba 01 00 00 00       	mov    edx,0x1
   14000ca9b:	b9 08 00 00 00       	mov    ecx,0x8
   14000caa0:	e8 7b 08 00 00       	call   14000d320 <signal>
   14000caa5:	eb 99                	jmp    14000ca40 <_gnu_exception_handler+0xd0>
   14000caa7:	66 0f 1f 84 00 00 00 	nop    WORD PTR [rax+rax*1+0x0]
   14000caae:	00 00 
   14000cab0:	31 d2                	xor    edx,edx
   14000cab2:	b9 0b 00 00 00       	mov    ecx,0xb
   14000cab7:	e8 64 08 00 00       	call   14000d320 <signal>
   14000cabc:	48 83 f8 01          	cmp    rax,0x1
   14000cac0:	74 2a                	je     14000caec <_gnu_exception_handler+0x17c>
   14000cac2:	48 85 c0             	test   rax,rax
   14000cac5:	0f 84 1c ff ff ff    	je     14000c9e7 <_gnu_exception_handler+0x77>
   14000cacb:	b9 0b 00 00 00       	mov    ecx,0xb
   14000cad0:	ff d0                	call   rax
   14000cad2:	e9 69 ff ff ff       	jmp    14000ca40 <_gnu_exception_handler+0xd0>
   14000cad7:	66 0f 1f 84 00 00 00 	nop    WORD PTR [rax+rax*1+0x0]
   14000cade:	00 00 
   14000cae0:	b9 08 00 00 00       	mov    ecx,0x8
   14000cae5:	ff d0                	call   rax
   14000cae7:	e9 54 ff ff ff       	jmp    14000ca40 <_gnu_exception_handler+0xd0>
   14000caec:	ba 01 00 00 00       	mov    edx,0x1
   14000caf1:	b9 0b 00 00 00       	mov    ecx,0xb
   14000caf6:	e8 25 08 00 00       	call   14000d320 <signal>
   14000cafb:	e9 40 ff ff ff       	jmp    14000ca40 <_gnu_exception_handler+0xd0>
   14000cb00:	ba 01 00 00 00       	mov    edx,0x1
   14000cb05:	b9 04 00 00 00       	mov    ecx,0x4
   14000cb0a:	e8 11 08 00 00       	call   14000d320 <signal>
   14000cb0f:	e9 2c ff ff ff       	jmp    14000ca40 <_gnu_exception_handler+0xd0>
   14000cb14:	ba 01 00 00 00       	mov    edx,0x1
   14000cb19:	b9 08 00 00 00       	mov    ecx,0x8
   14000cb1e:	e8 fd 07 00 00       	call   14000d320 <signal>
   14000cb23:	e8 a8 f8 ff ff       	call   14000c3d0 <_fpreset>
   14000cb28:	e9 13 ff ff ff       	jmp    14000ca40 <_gnu_exception_handler+0xd0>
   14000cb2d:	90                   	nop
   14000cb2e:	90                   	nop
   14000cb2f:	90                   	nop

000000014000cb30 <__mingwthr_run_key_dtors.part.0>:
   14000cb30:	55                   	push   rbp
   14000cb31:	41 55                	push   r13
   14000cb33:	41 54                	push   r12
   14000cb35:	57                   	push   rdi
   14000cb36:	56                   	push   rsi
   14000cb37:	53                   	push   rbx
   14000cb38:	48 83 ec 28          	sub    rsp,0x28
   14000cb3c:	48 8d 6c 24 20       	lea    rbp,[rsp+0x20]
   14000cb41:	4c 8d 2d d8 85 00 00 	lea    r13,[rip+0x85d8]        # 140015120 <__mingwthr_cs>
   14000cb48:	4c 89 e9             	mov    rcx,r13
   14000cb4b:	ff 15 0f 97 00 00    	call   QWORD PTR [rip+0x970f]        # 140016260 <__imp_EnterCriticalSection>
   14000cb51:	48 8b 1d a8 85 00 00 	mov    rbx,QWORD PTR [rip+0x85a8]        # 140015100 <key_dtor_list>
   14000cb58:	48 85 db             	test   rbx,rbx
   14000cb5b:	74 38                	je     14000cb95 <__mingwthr_run_key_dtors.part.0+0x65>
   14000cb5d:	4c 8b 25 4c 97 00 00 	mov    r12,QWORD PTR [rip+0x974c]        # 1400162b0 <__imp_TlsGetValue>
   14000cb64:	48 8b 3d fd 96 00 00 	mov    rdi,QWORD PTR [rip+0x96fd]        # 140016268 <__imp_GetLastError>
   14000cb6b:	0f 1f 44 00 00       	nop    DWORD PTR [rax+rax*1+0x0]
   14000cb70:	8b 0b                	mov    ecx,DWORD PTR [rbx]
   14000cb72:	41 ff d4             	call   r12
   14000cb75:	48 89 c6             	mov    rsi,rax
   14000cb78:	ff d7                	call   rdi
   14000cb7a:	48 85 f6             	test   rsi,rsi
   14000cb7d:	74 0d                	je     14000cb8c <__mingwthr_run_key_dtors.part.0+0x5c>
   14000cb7f:	85 c0                	test   eax,eax
   14000cb81:	75 09                	jne    14000cb8c <__mingwthr_run_key_dtors.part.0+0x5c>
   14000cb83:	48 8b 43 08          	mov    rax,QWORD PTR [rbx+0x8]
   14000cb87:	48 89 f1             	mov    rcx,rsi
   14000cb8a:	ff d0                	call   rax
   14000cb8c:	48 8b 5b 10          	mov    rbx,QWORD PTR [rbx+0x10]
   14000cb90:	48 85 db             	test   rbx,rbx
   14000cb93:	75 db                	jne    14000cb70 <__mingwthr_run_key_dtors.part.0+0x40>
   14000cb95:	4c 89 e9             	mov    rcx,r13
   14000cb98:	48 83 c4 28          	add    rsp,0x28
   14000cb9c:	5b                   	pop    rbx
   14000cb9d:	5e                   	pop    rsi
   14000cb9e:	5f                   	pop    rdi
   14000cb9f:	41 5c                	pop    r12
   14000cba1:	41 5d                	pop    r13
   14000cba3:	5d                   	pop    rbp
   14000cba4:	48 ff 25 dd 96 00 00 	rex.W jmp QWORD PTR [rip+0x96dd]        # 140016288 <__imp_LeaveCriticalSection>
   14000cbab:	0f 1f 44 00 00       	nop    DWORD PTR [rax+rax*1+0x0]

000000014000cbb0 <___w64_mingwthr_add_key_dtor>:
   14000cbb0:	55                   	push   rbp
   14000cbb1:	57                   	push   rdi
   14000cbb2:	56                   	push   rsi
   14000cbb3:	53                   	push   rbx
   14000cbb4:	48 83 ec 28          	sub    rsp,0x28
   14000cbb8:	48 8d 6c 24 20       	lea    rbp,[rsp+0x20]
   14000cbbd:	8b 05 45 85 00 00    	mov    eax,DWORD PTR [rip+0x8545]        # 140015108 <__mingwthr_cs_init>
   14000cbc3:	89 cf                	mov    edi,ecx
   14000cbc5:	48 89 d6             	mov    rsi,rdx
   14000cbc8:	85 c0                	test   eax,eax
   14000cbca:	75 14                	jne    14000cbe0 <___w64_mingwthr_add_key_dtor+0x30>
   14000cbcc:	31 c0                	xor    eax,eax
   14000cbce:	48 83 c4 28          	add    rsp,0x28
   14000cbd2:	5b                   	pop    rbx
   14000cbd3:	5e                   	pop    rsi
   14000cbd4:	5f                   	pop    rdi
   14000cbd5:	5d                   	pop    rbp
   14000cbd6:	c3                   	ret
   14000cbd7:	66 0f 1f 84 00 00 00 	nop    WORD PTR [rax+rax*1+0x0]
   14000cbde:	00 00 
   14000cbe0:	ba 18 00 00 00       	mov    edx,0x18
   14000cbe5:	b9 01 00 00 00       	mov    ecx,0x1
   14000cbea:	e8 f1 06 00 00       	call   14000d2e0 <calloc>
   14000cbef:	48 89 c3             	mov    rbx,rax
   14000cbf2:	48 85 c0             	test   rax,rax
   14000cbf5:	74 33                	je     14000cc2a <___w64_mingwthr_add_key_dtor+0x7a>
   14000cbf7:	48 89 70 08          	mov    QWORD PTR [rax+0x8],rsi
   14000cbfb:	48 8d 35 1e 85 00 00 	lea    rsi,[rip+0x851e]        # 140015120 <__mingwthr_cs>
   14000cc02:	89 38                	mov    DWORD PTR [rax],edi
   14000cc04:	48 89 f1             	mov    rcx,rsi
   14000cc07:	ff 15 53 96 00 00    	call   QWORD PTR [rip+0x9653]        # 140016260 <__imp_EnterCriticalSection>
   14000cc0d:	48 8b 05 ec 84 00 00 	mov    rax,QWORD PTR [rip+0x84ec]        # 140015100 <key_dtor_list>
   14000cc14:	48 89 f1             	mov    rcx,rsi
   14000cc17:	48 89 1d e2 84 00 00 	mov    QWORD PTR [rip+0x84e2],rbx        # 140015100 <key_dtor_list>
   14000cc1e:	48 89 43 10          	mov    QWORD PTR [rbx+0x10],rax
   14000cc22:	ff 15 60 96 00 00    	call   QWORD PTR [rip+0x9660]        # 140016288 <__imp_LeaveCriticalSection>
   14000cc28:	eb a2                	jmp    14000cbcc <___w64_mingwthr_add_key_dtor+0x1c>
   14000cc2a:	83 c8 ff             	or     eax,0xffffffff
   14000cc2d:	eb 9f                	jmp    14000cbce <___w64_mingwthr_add_key_dtor+0x1e>
   14000cc2f:	90                   	nop

000000014000cc30 <___w64_mingwthr_remove_key_dtor>:
   14000cc30:	55                   	push   rbp
   14000cc31:	56                   	push   rsi
   14000cc32:	53                   	push   rbx
   14000cc33:	48 83 ec 20          	sub    rsp,0x20
   14000cc37:	48 8d 6c 24 20       	lea    rbp,[rsp+0x20]
   14000cc3c:	8b 05 c6 84 00 00    	mov    eax,DWORD PTR [rip+0x84c6]        # 140015108 <__mingwthr_cs_init>
   14000cc42:	89 cb                	mov    ebx,ecx
   14000cc44:	85 c0                	test   eax,eax
   14000cc46:	75 10                	jne    14000cc58 <___w64_mingwthr_remove_key_dtor+0x28>
   14000cc48:	31 c0                	xor    eax,eax
   14000cc4a:	48 83 c4 20          	add    rsp,0x20
   14000cc4e:	5b                   	pop    rbx
   14000cc4f:	5e                   	pop    rsi
   14000cc50:	5d                   	pop    rbp
   14000cc51:	c3                   	ret
   14000cc52:	66 0f 1f 44 00 00    	nop    WORD PTR [rax+rax*1+0x0]
   14000cc58:	48 8d 35 c1 84 00 00 	lea    rsi,[rip+0x84c1]        # 140015120 <__mingwthr_cs>
   14000cc5f:	48 89 f1             	mov    rcx,rsi
   14000cc62:	ff 15 f8 95 00 00    	call   QWORD PTR [rip+0x95f8]        # 140016260 <__imp_EnterCriticalSection>
   14000cc68:	48 8b 0d 91 84 00 00 	mov    rcx,QWORD PTR [rip+0x8491]        # 140015100 <key_dtor_list>
   14000cc6f:	48 85 c9             	test   rcx,rcx
   14000cc72:	74 2f                	je     14000cca3 <___w64_mingwthr_remove_key_dtor+0x73>
   14000cc74:	31 d2                	xor    edx,edx
   14000cc76:	eb 13                	jmp    14000cc8b <___w64_mingwthr_remove_key_dtor+0x5b>
   14000cc78:	0f 1f 84 00 00 00 00 	nop    DWORD PTR [rax+rax*1+0x0]
   14000cc7f:	00 
   14000cc80:	48 89 ca             	mov    rdx,rcx
   14000cc83:	48 85 c0             	test   rax,rax
   14000cc86:	74 1b                	je     14000cca3 <___w64_mingwthr_remove_key_dtor+0x73>
   14000cc88:	48 89 c1             	mov    rcx,rax
   14000cc8b:	8b 01                	mov    eax,DWORD PTR [rcx]
   14000cc8d:	39 d8                	cmp    eax,ebx
   14000cc8f:	48 8b 41 10          	mov    rax,QWORD PTR [rcx+0x10]
   14000cc93:	75 eb                	jne    14000cc80 <___w64_mingwthr_remove_key_dtor+0x50>
   14000cc95:	48 85 d2             	test   rdx,rdx
   14000cc98:	74 26                	je     14000ccc0 <___w64_mingwthr_remove_key_dtor+0x90>
   14000cc9a:	48 89 42 10          	mov    QWORD PTR [rdx+0x10],rax
   14000cc9e:	e8 55 06 00 00       	call   14000d2f8 <free>
   14000cca3:	48 89 f1             	mov    rcx,rsi
   14000cca6:	ff 15 dc 95 00 00    	call   QWORD PTR [rip+0x95dc]        # 140016288 <__imp_LeaveCriticalSection>
   14000ccac:	31 c0                	xor    eax,eax
   14000ccae:	48 83 c4 20          	add    rsp,0x20
   14000ccb2:	5b                   	pop    rbx
   14000ccb3:	5e                   	pop    rsi
   14000ccb4:	5d                   	pop    rbp
   14000ccb5:	c3                   	ret
   14000ccb6:	66 2e 0f 1f 84 00 00 	cs nop WORD PTR [rax+rax*1+0x0]
   14000ccbd:	00 00 00 
   14000ccc0:	48 89 05 39 84 00 00 	mov    QWORD PTR [rip+0x8439],rax        # 140015100 <key_dtor_list>
   14000ccc7:	eb d5                	jmp    14000cc9e <___w64_mingwthr_remove_key_dtor+0x6e>
   14000ccc9:	0f 1f 80 00 00 00 00 	nop    DWORD PTR [rax+0x0]

000000014000ccd0 <__mingw_TLScallback>:
   14000ccd0:	55                   	push   rbp
   14000ccd1:	53                   	push   rbx
   14000ccd2:	48 83 ec 28          	sub    rsp,0x28
   14000ccd6:	48 8d 6c 24 20       	lea    rbp,[rsp+0x20]
   14000ccdb:	83 fa 02             	cmp    edx,0x2
   14000ccde:	0f 84 ac 00 00 00    	je     14000cd90 <__mingw_TLScallback+0xc0>
   14000cce4:	77 2a                	ja     14000cd10 <__mingw_TLScallback+0x40>
   14000cce6:	85 d2                	test   edx,edx
   14000cce8:	74 46                	je     14000cd30 <__mingw_TLScallback+0x60>
   14000ccea:	8b 05 18 84 00 00    	mov    eax,DWORD PTR [rip+0x8418]        # 140015108 <__mingwthr_cs_init>
   14000ccf0:	85 c0                	test   eax,eax
   14000ccf2:	0f 84 b8 00 00 00    	je     14000cdb0 <__mingw_TLScallback+0xe0>
   14000ccf8:	c7 05 06 84 00 00 01 	mov    DWORD PTR [rip+0x8406],0x1        # 140015108 <__mingwthr_cs_init>
   14000ccff:	00 00 00 
   14000cd02:	b8 01 00 00 00       	mov    eax,0x1
   14000cd07:	48 83 c4 28          	add    rsp,0x28
   14000cd0b:	5b                   	pop    rbx
   14000cd0c:	5d                   	pop    rbp
   14000cd0d:	c3                   	ret
   14000cd0e:	66 90                	xchg   ax,ax
   14000cd10:	83 fa 03             	cmp    edx,0x3
   14000cd13:	75 ed                	jne    14000cd02 <__mingw_TLScallback+0x32>
   14000cd15:	8b 05 ed 83 00 00    	mov    eax,DWORD PTR [rip+0x83ed]        # 140015108 <__mingwthr_cs_init>
   14000cd1b:	85 c0                	test   eax,eax
   14000cd1d:	74 e3                	je     14000cd02 <__mingw_TLScallback+0x32>
   14000cd1f:	e8 0c fe ff ff       	call   14000cb30 <__mingwthr_run_key_dtors.part.0>
   14000cd24:	eb dc                	jmp    14000cd02 <__mingw_TLScallback+0x32>
   14000cd26:	66 2e 0f 1f 84 00 00 	cs nop WORD PTR [rax+rax*1+0x0]
   14000cd2d:	00 00 00 
   14000cd30:	8b 05 d2 83 00 00    	mov    eax,DWORD PTR [rip+0x83d2]        # 140015108 <__mingwthr_cs_init>
   14000cd36:	85 c0                	test   eax,eax
   14000cd38:	75 6e                	jne    14000cda8 <__mingw_TLScallback+0xd8>
   14000cd3a:	8b 05 c8 83 00 00    	mov    eax,DWORD PTR [rip+0x83c8]        # 140015108 <__mingwthr_cs_init>
   14000cd40:	83 f8 01             	cmp    eax,0x1
   14000cd43:	75 bd                	jne    14000cd02 <__mingw_TLScallback+0x32>
   14000cd45:	48 8b 1d b4 83 00 00 	mov    rbx,QWORD PTR [rip+0x83b4]        # 140015100 <key_dtor_list>
   14000cd4c:	48 85 db             	test   rbx,rbx
   14000cd4f:	74 18                	je     14000cd69 <__mingw_TLScallback+0x99>
   14000cd51:	0f 1f 80 00 00 00 00 	nop    DWORD PTR [rax+0x0]
   14000cd58:	48 89 d9             	mov    rcx,rbx
   14000cd5b:	48 8b 5b 10          	mov    rbx,QWORD PTR [rbx+0x10]
   14000cd5f:	e8 94 05 00 00       	call   14000d2f8 <free>
   14000cd64:	48 85 db             	test   rbx,rbx
   14000cd67:	75 ef                	jne    14000cd58 <__mingw_TLScallback+0x88>
   14000cd69:	48 8d 0d b0 83 00 00 	lea    rcx,[rip+0x83b0]        # 140015120 <__mingwthr_cs>
   14000cd70:	48 c7 05 85 83 00 00 	mov    QWORD PTR [rip+0x8385],0x0        # 140015100 <key_dtor_list>
   14000cd77:	00 00 00 00 
   14000cd7b:	c7 05 83 83 00 00 00 	mov    DWORD PTR [rip+0x8383],0x0        # 140015108 <__mingwthr_cs_init>
   14000cd82:	00 00 00 
   14000cd85:	ff 15 cd 94 00 00    	call   QWORD PTR [rip+0x94cd]        # 140016258 <__imp_DeleteCriticalSection>
   14000cd8b:	e9 72 ff ff ff       	jmp    14000cd02 <__mingw_TLScallback+0x32>
   14000cd90:	e8 3b f6 ff ff       	call   14000c3d0 <_fpreset>
   14000cd95:	b8 01 00 00 00       	mov    eax,0x1
   14000cd9a:	48 83 c4 28          	add    rsp,0x28
   14000cd9e:	5b                   	pop    rbx
   14000cd9f:	5d                   	pop    rbp
   14000cda0:	c3                   	ret
   14000cda1:	0f 1f 80 00 00 00 00 	nop    DWORD PTR [rax+0x0]
   14000cda8:	e8 83 fd ff ff       	call   14000cb30 <__mingwthr_run_key_dtors.part.0>
   14000cdad:	eb 8b                	jmp    14000cd3a <__mingw_TLScallback+0x6a>
   14000cdaf:	90                   	nop
   14000cdb0:	48 8d 0d 69 83 00 00 	lea    rcx,[rip+0x8369]        # 140015120 <__mingwthr_cs>
   14000cdb7:	ff 15 c3 94 00 00    	call   QWORD PTR [rip+0x94c3]        # 140016280 <__imp_InitializeCriticalSection>
   14000cdbd:	e9 36 ff ff ff       	jmp    14000ccf8 <__mingw_TLScallback+0x28>
   14000cdc2:	90                   	nop
   14000cdc3:	90                   	nop
   14000cdc4:	90                   	nop
   14000cdc5:	90                   	nop
   14000cdc6:	90                   	nop
   14000cdc7:	90                   	nop
   14000cdc8:	90                   	nop
   14000cdc9:	90                   	nop
   14000cdca:	90                   	nop
   14000cdcb:	90                   	nop
   14000cdcc:	90                   	nop
   14000cdcd:	90                   	nop
   14000cdce:	90                   	nop
   14000cdcf:	90                   	nop

000000014000cdd0 <_ValidateImageBase>:
   14000cdd0:	31 c0                	xor    eax,eax
   14000cdd2:	66 81 39 4d 5a       	cmp    WORD PTR [rcx],0x5a4d
   14000cdd7:	75 0f                	jne    14000cde8 <_ValidateImageBase+0x18>
   14000cdd9:	48 63 51 3c          	movsxd rdx,DWORD PTR [rcx+0x3c]
   14000cddd:	48 01 d1             	add    rcx,rdx
   14000cde0:	81 39 50 45 00 00    	cmp    DWORD PTR [rcx],0x4550
   14000cde6:	74 08                	je     14000cdf0 <_ValidateImageBase+0x20>
   14000cde8:	c3                   	ret
   14000cde9:	0f 1f 80 00 00 00 00 	nop    DWORD PTR [rax+0x0]
   14000cdf0:	31 c0                	xor    eax,eax
   14000cdf2:	66 81 79 18 0b 02    	cmp    WORD PTR [rcx+0x18],0x20b
   14000cdf8:	0f 94 c0             	sete   al
   14000cdfb:	c3                   	ret
   14000cdfc:	0f 1f 40 00          	nop    DWORD PTR [rax+0x0]

000000014000ce00 <_FindPESection>:
   14000ce00:	48 63 41 3c          	movsxd rax,DWORD PTR [rcx+0x3c]
   14000ce04:	48 01 c1             	add    rcx,rax
   14000ce07:	0f b7 41 14          	movzx  eax,WORD PTR [rcx+0x14]
   14000ce0b:	44 0f b7 41 06       	movzx  r8d,WORD PTR [rcx+0x6]
   14000ce10:	48 8d 44 01 18       	lea    rax,[rcx+rax*1+0x18]
   14000ce15:	66 45 85 c0          	test   r8w,r8w
   14000ce19:	74 32                	je     14000ce4d <_FindPESection+0x4d>
   14000ce1b:	41 8d 48 ff          	lea    ecx,[r8-0x1]
   14000ce1f:	48 8d 0c 89          	lea    rcx,[rcx+rcx*4]
   14000ce23:	4c 8d 4c c8 28       	lea    r9,[rax+rcx*8+0x28]
   14000ce28:	0f 1f 84 00 00 00 00 	nop    DWORD PTR [rax+rax*1+0x0]
   14000ce2f:	00 
   14000ce30:	44 8b 40 0c          	mov    r8d,DWORD PTR [rax+0xc]
   14000ce34:	4c 89 c1             	mov    rcx,r8
   14000ce37:	4c 39 c2             	cmp    rdx,r8
   14000ce3a:	72 08                	jb     14000ce44 <_FindPESection+0x44>
   14000ce3c:	03 48 08             	add    ecx,DWORD PTR [rax+0x8]
   14000ce3f:	48 39 ca             	cmp    rdx,rcx
   14000ce42:	72 0b                	jb     14000ce4f <_FindPESection+0x4f>
   14000ce44:	48 83 c0 28          	add    rax,0x28
   14000ce48:	4c 39 c8             	cmp    rax,r9
   14000ce4b:	75 e3                	jne    14000ce30 <_FindPESection+0x30>
   14000ce4d:	31 c0                	xor    eax,eax
   14000ce4f:	c3                   	ret

000000014000ce50 <_FindPESectionByName>:
   14000ce50:	55                   	push   rbp
   14000ce51:	57                   	push   rdi
   14000ce52:	56                   	push   rsi
   14000ce53:	53                   	push   rbx
   14000ce54:	48 83 ec 28          	sub    rsp,0x28
   14000ce58:	48 8d 6c 24 20       	lea    rbp,[rsp+0x20]
   14000ce5d:	48 89 ce             	mov    rsi,rcx
   14000ce60:	e8 cb 04 00 00       	call   14000d330 <strlen>
   14000ce65:	48 83 f8 08          	cmp    rax,0x8
   14000ce69:	77 7d                	ja     14000cee8 <_FindPESectionByName+0x98>
   14000ce6b:	48 8b 15 fe 4d 00 00 	mov    rdx,QWORD PTR [rip+0x4dfe]        # 140011c70 <.refptr.__image_base__>
   14000ce72:	31 db                	xor    ebx,ebx
   14000ce74:	66 81 3a 4d 5a       	cmp    WORD PTR [rdx],0x5a4d
   14000ce79:	75 5b                	jne    14000ced6 <_FindPESectionByName+0x86>
   14000ce7b:	48 63 42 3c          	movsxd rax,DWORD PTR [rdx+0x3c]
   14000ce7f:	48 01 d0             	add    rax,rdx
   14000ce82:	81 38 50 45 00 00    	cmp    DWORD PTR [rax],0x4550
   14000ce88:	75 4c                	jne    14000ced6 <_FindPESectionByName+0x86>
   14000ce8a:	66 81 78 18 0b 02    	cmp    WORD PTR [rax+0x18],0x20b
   14000ce90:	75 44                	jne    14000ced6 <_FindPESectionByName+0x86>
   14000ce92:	0f b7 50 14          	movzx  edx,WORD PTR [rax+0x14]
   14000ce96:	48 8d 5c 10 18       	lea    rbx,[rax+rdx*1+0x18]
   14000ce9b:	0f b7 50 06          	movzx  edx,WORD PTR [rax+0x6]
   14000ce9f:	66 85 d2             	test   dx,dx
   14000cea2:	74 44                	je     14000cee8 <_FindPESectionByName+0x98>
   14000cea4:	8d 42 ff             	lea    eax,[rdx-0x1]
   14000cea7:	48 8d 04 80          	lea    rax,[rax+rax*4]
   14000ceab:	48 8d 7c c3 28       	lea    rdi,[rbx+rax*8+0x28]
   14000ceb0:	eb 0f                	jmp    14000cec1 <_FindPESectionByName+0x71>
   14000ceb2:	66 0f 1f 44 00 00    	nop    WORD PTR [rax+rax*1+0x0]
   14000ceb8:	48 83 c3 28          	add    rbx,0x28
   14000cebc:	48 39 fb             	cmp    rbx,rdi
   14000cebf:	74 27                	je     14000cee8 <_FindPESectionByName+0x98>
   14000cec1:	41 b8 08 00 00 00    	mov    r8d,0x8
   14000cec7:	48 89 f2             	mov    rdx,rsi
   14000ceca:	48 89 d9             	mov    rcx,rbx
   14000cecd:	e8 66 04 00 00       	call   14000d338 <strncmp>
   14000ced2:	85 c0                	test   eax,eax
   14000ced4:	75 e2                	jne    14000ceb8 <_FindPESectionByName+0x68>
   14000ced6:	48 89 d8             	mov    rax,rbx
   14000ced9:	48 83 c4 28          	add    rsp,0x28
   14000cedd:	5b                   	pop    rbx
   14000cede:	5e                   	pop    rsi
   14000cedf:	5f                   	pop    rdi
   14000cee0:	5d                   	pop    rbp
   14000cee1:	c3                   	ret
   14000cee2:	66 0f 1f 44 00 00    	nop    WORD PTR [rax+rax*1+0x0]
   14000cee8:	31 db                	xor    ebx,ebx
   14000ceea:	48 89 d8             	mov    rax,rbx
   14000ceed:	48 83 c4 28          	add    rsp,0x28
   14000cef1:	5b                   	pop    rbx
   14000cef2:	5e                   	pop    rsi
   14000cef3:	5f                   	pop    rdi
   14000cef4:	5d                   	pop    rbp
   14000cef5:	c3                   	ret
   14000cef6:	66 2e 0f 1f 84 00 00 	cs nop WORD PTR [rax+rax*1+0x0]
   14000cefd:	00 00 00 

000000014000cf00 <__mingw_GetSectionForAddress>:
   14000cf00:	48 8b 15 69 4d 00 00 	mov    rdx,QWORD PTR [rip+0x4d69]        # 140011c70 <.refptr.__image_base__>
   14000cf07:	31 c0                	xor    eax,eax
   14000cf09:	66 81 3a 4d 5a       	cmp    WORD PTR [rdx],0x5a4d
   14000cf0e:	75 10                	jne    14000cf20 <__mingw_GetSectionForAddress+0x20>
   14000cf10:	4c 63 42 3c          	movsxd r8,DWORD PTR [rdx+0x3c]
   14000cf14:	49 01 d0             	add    r8,rdx
   14000cf17:	41 81 38 50 45 00 00 	cmp    DWORD PTR [r8],0x4550
   14000cf1e:	74 08                	je     14000cf28 <__mingw_GetSectionForAddress+0x28>
   14000cf20:	c3                   	ret
   14000cf21:	0f 1f 80 00 00 00 00 	nop    DWORD PTR [rax+0x0]
   14000cf28:	66 41 81 78 18 0b 02 	cmp    WORD PTR [r8+0x18],0x20b
   14000cf2f:	75 ef                	jne    14000cf20 <__mingw_GetSectionForAddress+0x20>
   14000cf31:	41 0f b7 40 14       	movzx  eax,WORD PTR [r8+0x14]
   14000cf36:	48 29 d1             	sub    rcx,rdx
   14000cf39:	49 8d 44 00 18       	lea    rax,[r8+rax*1+0x18]
   14000cf3e:	45 0f b7 40 06       	movzx  r8d,WORD PTR [r8+0x6]
   14000cf43:	66 45 85 c0          	test   r8w,r8w
   14000cf47:	74 34                	je     14000cf7d <__mingw_GetSectionForAddress+0x7d>
   14000cf49:	41 8d 50 ff          	lea    edx,[r8-0x1]
   14000cf4d:	48 8d 14 92          	lea    rdx,[rdx+rdx*4]
   14000cf51:	4c 8d 4c d0 28       	lea    r9,[rax+rdx*8+0x28]
   14000cf56:	66 2e 0f 1f 84 00 00 	cs nop WORD PTR [rax+rax*1+0x0]
   14000cf5d:	00 00 00 
   14000cf60:	44 8b 40 0c          	mov    r8d,DWORD PTR [rax+0xc]
   14000cf64:	4c 89 c2             	mov    rdx,r8
   14000cf67:	4c 39 c1             	cmp    rcx,r8
   14000cf6a:	72 08                	jb     14000cf74 <__mingw_GetSectionForAddress+0x74>
   14000cf6c:	03 50 08             	add    edx,DWORD PTR [rax+0x8]
   14000cf6f:	48 39 d1             	cmp    rcx,rdx
   14000cf72:	72 ac                	jb     14000cf20 <__mingw_GetSectionForAddress+0x20>
   14000cf74:	48 83 c0 28          	add    rax,0x28
   14000cf78:	4c 39 c8             	cmp    rax,r9
   14000cf7b:	75 e3                	jne    14000cf60 <__mingw_GetSectionForAddress+0x60>
   14000cf7d:	31 c0                	xor    eax,eax
   14000cf7f:	c3                   	ret

000000014000cf80 <__mingw_GetSectionCount>:
   14000cf80:	48 8b 05 e9 4c 00 00 	mov    rax,QWORD PTR [rip+0x4ce9]        # 140011c70 <.refptr.__image_base__>
   14000cf87:	31 c9                	xor    ecx,ecx
   14000cf89:	66 81 38 4d 5a       	cmp    WORD PTR [rax],0x5a4d
   14000cf8e:	75 0f                	jne    14000cf9f <__mingw_GetSectionCount+0x1f>
   14000cf90:	48 63 50 3c          	movsxd rdx,DWORD PTR [rax+0x3c]
   14000cf94:	48 01 d0             	add    rax,rdx
   14000cf97:	81 38 50 45 00 00    	cmp    DWORD PTR [rax],0x4550
   14000cf9d:	74 09                	je     14000cfa8 <__mingw_GetSectionCount+0x28>
   14000cf9f:	89 c8                	mov    eax,ecx
   14000cfa1:	c3                   	ret
   14000cfa2:	66 0f 1f 44 00 00    	nop    WORD PTR [rax+rax*1+0x0]
   14000cfa8:	66 81 78 18 0b 02    	cmp    WORD PTR [rax+0x18],0x20b
   14000cfae:	75 ef                	jne    14000cf9f <__mingw_GetSectionCount+0x1f>
   14000cfb0:	0f b7 48 06          	movzx  ecx,WORD PTR [rax+0x6]
   14000cfb4:	89 c8                	mov    eax,ecx
   14000cfb6:	c3                   	ret
   14000cfb7:	66 0f 1f 84 00 00 00 	nop    WORD PTR [rax+rax*1+0x0]
   14000cfbe:	00 00 

000000014000cfc0 <_FindPESectionExec>:
   14000cfc0:	4c 8b 05 a9 4c 00 00 	mov    r8,QWORD PTR [rip+0x4ca9]        # 140011c70 <.refptr.__image_base__>
   14000cfc7:	31 c0                	xor    eax,eax
   14000cfc9:	66 41 81 38 4d 5a    	cmp    WORD PTR [r8],0x5a4d
   14000cfcf:	75 0f                	jne    14000cfe0 <_FindPESectionExec+0x20>
   14000cfd1:	49 63 50 3c          	movsxd rdx,DWORD PTR [r8+0x3c]
   14000cfd5:	4c 01 c2             	add    rdx,r8
   14000cfd8:	81 3a 50 45 00 00    	cmp    DWORD PTR [rdx],0x4550
   14000cfde:	74 08                	je     14000cfe8 <_FindPESectionExec+0x28>
   14000cfe0:	c3                   	ret
   14000cfe1:	0f 1f 80 00 00 00 00 	nop    DWORD PTR [rax+0x0]
   14000cfe8:	66 81 7a 18 0b 02    	cmp    WORD PTR [rdx+0x18],0x20b
   14000cfee:	75 f0                	jne    14000cfe0 <_FindPESectionExec+0x20>
   14000cff0:	0f b7 42 14          	movzx  eax,WORD PTR [rdx+0x14]
   14000cff4:	44 0f b7 42 06       	movzx  r8d,WORD PTR [rdx+0x6]
   14000cff9:	48 8d 44 02 18       	lea    rax,[rdx+rax*1+0x18]
   14000cffe:	66 45 85 c0          	test   r8w,r8w
   14000d002:	74 2c                	je     14000d030 <_FindPESectionExec+0x70>
   14000d004:	41 8d 50 ff          	lea    edx,[r8-0x1]
   14000d008:	48 8d 14 92          	lea    rdx,[rdx+rdx*4]
   14000d00c:	48 8d 54 d0 28       	lea    rdx,[rax+rdx*8+0x28]
   14000d011:	0f 1f 80 00 00 00 00 	nop    DWORD PTR [rax+0x0]
   14000d018:	f6 40 27 20          	test   BYTE PTR [rax+0x27],0x20
   14000d01c:	74 09                	je     14000d027 <_FindPESectionExec+0x67>
   14000d01e:	48 85 c9             	test   rcx,rcx
   14000d021:	74 bd                	je     14000cfe0 <_FindPESectionExec+0x20>
   14000d023:	48 83 e9 01          	sub    rcx,0x1
   14000d027:	48 83 c0 28          	add    rax,0x28
   14000d02b:	48 39 c2             	cmp    rdx,rax
   14000d02e:	75 e8                	jne    14000d018 <_FindPESectionExec+0x58>
   14000d030:	31 c0                	xor    eax,eax
   14000d032:	c3                   	ret
   14000d033:	66 66 2e 0f 1f 84 00 	data16 cs nop WORD PTR [rax+rax*1+0x0]
   14000d03a:	00 00 00 00 
   14000d03e:	66 90                	xchg   ax,ax

000000014000d040 <_GetPEImageBase>:
   14000d040:	48 8b 05 29 4c 00 00 	mov    rax,QWORD PTR [rip+0x4c29]        # 140011c70 <.refptr.__image_base__>
   14000d047:	31 d2                	xor    edx,edx
   14000d049:	66 81 38 4d 5a       	cmp    WORD PTR [rax],0x5a4d
   14000d04e:	75 0f                	jne    14000d05f <_GetPEImageBase+0x1f>
   14000d050:	48 63 48 3c          	movsxd rcx,DWORD PTR [rax+0x3c]
   14000d054:	48 01 c1             	add    rcx,rax
   14000d057:	81 39 50 45 00 00    	cmp    DWORD PTR [rcx],0x4550
   14000d05d:	74 09                	je     14000d068 <_GetPEImageBase+0x28>
   14000d05f:	48 89 d0             	mov    rax,rdx
   14000d062:	c3                   	ret
   14000d063:	0f 1f 44 00 00       	nop    DWORD PTR [rax+rax*1+0x0]
   14000d068:	66 81 79 18 0b 02    	cmp    WORD PTR [rcx+0x18],0x20b
   14000d06e:	48 0f 44 d0          	cmove  rdx,rax
   14000d072:	48 89 d0             	mov    rax,rdx
   14000d075:	c3                   	ret
   14000d076:	66 2e 0f 1f 84 00 00 	cs nop WORD PTR [rax+rax*1+0x0]
   14000d07d:	00 00 00 

000000014000d080 <_IsNonwritableInCurrentImage>:
   14000d080:	48 8b 15 e9 4b 00 00 	mov    rdx,QWORD PTR [rip+0x4be9]        # 140011c70 <.refptr.__image_base__>
   14000d087:	31 c0                	xor    eax,eax
   14000d089:	66 81 3a 4d 5a       	cmp    WORD PTR [rdx],0x5a4d
   14000d08e:	75 10                	jne    14000d0a0 <_IsNonwritableInCurrentImage+0x20>
   14000d090:	4c 63 42 3c          	movsxd r8,DWORD PTR [rdx+0x3c]
   14000d094:	49 01 d0             	add    r8,rdx
   14000d097:	41 81 38 50 45 00 00 	cmp    DWORD PTR [r8],0x4550
   14000d09e:	74 08                	je     14000d0a8 <_IsNonwritableInCurrentImage+0x28>
   14000d0a0:	c3                   	ret
   14000d0a1:	0f 1f 80 00 00 00 00 	nop    DWORD PTR [rax+0x0]
   14000d0a8:	66 41 81 78 18 0b 02 	cmp    WORD PTR [r8+0x18],0x20b
   14000d0af:	75 ef                	jne    14000d0a0 <_IsNonwritableInCurrentImage+0x20>
   14000d0b1:	48 29 d1             	sub    rcx,rdx
   14000d0b4:	45 0f b7 48 06       	movzx  r9d,WORD PTR [r8+0x6]
   14000d0b9:	41 0f b7 50 14       	movzx  edx,WORD PTR [r8+0x14]
   14000d0be:	49 8d 54 10 18       	lea    rdx,[r8+rdx*1+0x18]
   14000d0c3:	66 45 85 c9          	test   r9w,r9w
   14000d0c7:	74 d7                	je     14000d0a0 <_IsNonwritableInCurrentImage+0x20>
   14000d0c9:	41 8d 41 ff          	lea    eax,[r9-0x1]
   14000d0cd:	48 8d 04 80          	lea    rax,[rax+rax*4]
   14000d0d1:	4c 8d 4c c2 28       	lea    r9,[rdx+rax*8+0x28]
   14000d0d6:	66 2e 0f 1f 84 00 00 	cs nop WORD PTR [rax+rax*1+0x0]
   14000d0dd:	00 00 00 
   14000d0e0:	44 8b 42 0c          	mov    r8d,DWORD PTR [rdx+0xc]
   14000d0e4:	4c 89 c0             	mov    rax,r8
   14000d0e7:	4c 39 c1             	cmp    rcx,r8
   14000d0ea:	72 08                	jb     14000d0f4 <_IsNonwritableInCurrentImage+0x74>
   14000d0ec:	03 42 08             	add    eax,DWORD PTR [rdx+0x8]
   14000d0ef:	48 39 c1             	cmp    rcx,rax
   14000d0f2:	72 0c                	jb     14000d100 <_IsNonwritableInCurrentImage+0x80>
   14000d0f4:	48 83 c2 28          	add    rdx,0x28
   14000d0f8:	4c 39 ca             	cmp    rdx,r9
   14000d0fb:	75 e3                	jne    14000d0e0 <_IsNonwritableInCurrentImage+0x60>
   14000d0fd:	31 c0                	xor    eax,eax
   14000d0ff:	c3                   	ret
   14000d100:	8b 42 24             	mov    eax,DWORD PTR [rdx+0x24]
   14000d103:	f7 d0                	not    eax
   14000d105:	c1 e8 1f             	shr    eax,0x1f
   14000d108:	c3                   	ret
   14000d109:	0f 1f 80 00 00 00 00 	nop    DWORD PTR [rax+0x0]

000000014000d110 <__mingw_enum_import_library_names>:
   14000d110:	4c 8b 1d 59 4b 00 00 	mov    r11,QWORD PTR [rip+0x4b59]        # 140011c70 <.refptr.__image_base__>
   14000d117:	45 31 c0             	xor    r8d,r8d
   14000d11a:	66 41 81 3b 4d 5a    	cmp    WORD PTR [r11],0x5a4d
   14000d120:	41 89 ca             	mov    r10d,ecx
   14000d123:	75 0f                	jne    14000d134 <__mingw_enum_import_library_names+0x24>
   14000d125:	49 63 4b 3c          	movsxd rcx,DWORD PTR [r11+0x3c]
   14000d129:	4c 01 d9             	add    rcx,r11
   14000d12c:	81 39 50 45 00 00    	cmp    DWORD PTR [rcx],0x4550
   14000d132:	74 0c                	je     14000d140 <__mingw_enum_import_library_names+0x30>
   14000d134:	4c 89 c0             	mov    rax,r8
   14000d137:	c3                   	ret
   14000d138:	0f 1f 84 00 00 00 00 	nop    DWORD PTR [rax+rax*1+0x0]
   14000d13f:	00 
   14000d140:	66 81 79 18 0b 02    	cmp    WORD PTR [rcx+0x18],0x20b
   14000d146:	75 ec                	jne    14000d134 <__mingw_enum_import_library_names+0x24>
   14000d148:	8b 81 90 00 00 00    	mov    eax,DWORD PTR [rcx+0x90]
   14000d14e:	85 c0                	test   eax,eax
   14000d150:	74 e2                	je     14000d134 <__mingw_enum_import_library_names+0x24>
   14000d152:	0f b7 51 14          	movzx  edx,WORD PTR [rcx+0x14]
   14000d156:	44 0f b7 49 06       	movzx  r9d,WORD PTR [rcx+0x6]
   14000d15b:	48 8d 54 11 18       	lea    rdx,[rcx+rdx*1+0x18]
   14000d160:	66 45 85 c9          	test   r9w,r9w
   14000d164:	74 ce                	je     14000d134 <__mingw_enum_import_library_names+0x24>
   14000d166:	41 8d 49 ff          	lea    ecx,[r9-0x1]
   14000d16a:	48 8d 0c 89          	lea    rcx,[rcx+rcx*4]
   14000d16e:	4c 8d 4c ca 28       	lea    r9,[rdx+rcx*8+0x28]
   14000d173:	0f 1f 44 00 00       	nop    DWORD PTR [rax+rax*1+0x0]
   14000d178:	44 8b 42 0c          	mov    r8d,DWORD PTR [rdx+0xc]
   14000d17c:	4c 89 c1             	mov    rcx,r8
   14000d17f:	4c 39 c0             	cmp    rax,r8
   14000d182:	72 08                	jb     14000d18c <__mingw_enum_import_library_names+0x7c>
   14000d184:	03 4a 08             	add    ecx,DWORD PTR [rdx+0x8]
   14000d187:	48 39 c8             	cmp    rax,rcx
   14000d18a:	72 14                	jb     14000d1a0 <__mingw_enum_import_library_names+0x90>
   14000d18c:	48 83 c2 28          	add    rdx,0x28
   14000d190:	49 39 d1             	cmp    r9,rdx
   14000d193:	75 e3                	jne    14000d178 <__mingw_enum_import_library_names+0x68>
   14000d195:	45 31 c0             	xor    r8d,r8d
   14000d198:	4c 89 c0             	mov    rax,r8
   14000d19b:	c3                   	ret
   14000d19c:	0f 1f 40 00          	nop    DWORD PTR [rax+0x0]
   14000d1a0:	4c 01 d8             	add    rax,r11
   14000d1a3:	eb 0b                	jmp    14000d1b0 <__mingw_enum_import_library_names+0xa0>
   14000d1a5:	0f 1f 00             	nop    DWORD PTR [rax]
   14000d1a8:	41 83 ea 01          	sub    r10d,0x1
   14000d1ac:	48 83 c0 14          	add    rax,0x14
   14000d1b0:	8b 48 04             	mov    ecx,DWORD PTR [rax+0x4]
   14000d1b3:	85 c9                	test   ecx,ecx
   14000d1b5:	75 07                	jne    14000d1be <__mingw_enum_import_library_names+0xae>
   14000d1b7:	8b 50 0c             	mov    edx,DWORD PTR [rax+0xc]
   14000d1ba:	85 d2                	test   edx,edx
   14000d1bc:	74 d7                	je     14000d195 <__mingw_enum_import_library_names+0x85>
   14000d1be:	45 85 d2             	test   r10d,r10d
   14000d1c1:	7f e5                	jg     14000d1a8 <__mingw_enum_import_library_names+0x98>
   14000d1c3:	44 8b 40 0c          	mov    r8d,DWORD PTR [rax+0xc]
   14000d1c7:	4d 01 d8             	add    r8,r11
   14000d1ca:	4c 89 c0             	mov    rax,r8
   14000d1cd:	c3                   	ret
   14000d1ce:	90                   	nop
   14000d1cf:	90                   	nop

000000014000d1d0 <_Unwind_Resume>:
   14000d1d0:	ff 25 da 91 00 00    	jmp    QWORD PTR [rip+0x91da]        # 1400163b0 <__imp__Unwind_Resume>
   14000d1d6:	90                   	nop
   14000d1d7:	90                   	nop
   14000d1d8:	0f 1f 84 00 00 00 00 	nop    DWORD PTR [rax+rax*1+0x0]
   14000d1df:	00 

000000014000d1e0 <___chkstk_ms>:
   14000d1e0:	51                   	push   rcx
   14000d1e1:	50                   	push   rax
   14000d1e2:	48 3d 00 10 00 00    	cmp    rax,0x1000
   14000d1e8:	48 8d 4c 24 18       	lea    rcx,[rsp+0x18]
   14000d1ed:	72 19                	jb     14000d208 <___chkstk_ms+0x28>
   14000d1ef:	48 81 e9 00 10 00 00 	sub    rcx,0x1000
   14000d1f6:	48 83 09 00          	or     QWORD PTR [rcx],0x0
   14000d1fa:	48 2d 00 10 00 00    	sub    rax,0x1000
   14000d200:	48 3d 00 10 00 00    	cmp    rax,0x1000
   14000d206:	77 e7                	ja     14000d1ef <___chkstk_ms+0xf>
   14000d208:	48 29 c1             	sub    rcx,rax
   14000d20b:	48 83 09 00          	or     QWORD PTR [rcx],0x0
   14000d20f:	58                   	pop    rax
   14000d210:	59                   	pop    rcx
   14000d211:	c3                   	ret
   14000d212:	90                   	nop
   14000d213:	90                   	nop
   14000d214:	90                   	nop
   14000d215:	90                   	nop
   14000d216:	90                   	nop
   14000d217:	90                   	nop
   14000d218:	90                   	nop
   14000d219:	90                   	nop
   14000d21a:	90                   	nop
   14000d21b:	90                   	nop
   14000d21c:	90                   	nop
   14000d21d:	90                   	nop
   14000d21e:	90                   	nop
   14000d21f:	90                   	nop

000000014000d220 <__p__fmode>:
   14000d220:	48 8b 05 79 4a 00 00 	mov    rax,QWORD PTR [rip+0x4a79]        # 140011ca0 <.refptr.__imp__fmode>
   14000d227:	48 8b 00             	mov    rax,QWORD PTR [rax]
   14000d22a:	c3                   	ret
   14000d22b:	90                   	nop
   14000d22c:	90                   	nop
   14000d22d:	90                   	nop
   14000d22e:	90                   	nop
   14000d22f:	90                   	nop

000000014000d230 <__p__commode>:
   14000d230:	48 8b 05 59 4a 00 00 	mov    rax,QWORD PTR [rip+0x4a59]        # 140011c90 <.refptr.__imp__commode>
   14000d237:	48 8b 00             	mov    rax,QWORD PTR [rax]
   14000d23a:	c3                   	ret
   14000d23b:	90                   	nop
   14000d23c:	90                   	nop
   14000d23d:	90                   	nop
   14000d23e:	90                   	nop
   14000d23f:	90                   	nop

000000014000d240 <_get_invalid_parameter_handler>:
   14000d240:	48 8b 05 49 7f 00 00 	mov    rax,QWORD PTR [rip+0x7f49]        # 140015190 <handler>
   14000d247:	c3                   	ret
   14000d248:	0f 1f 84 00 00 00 00 	nop    DWORD PTR [rax+rax*1+0x0]
   14000d24f:	00 

000000014000d250 <_set_invalid_parameter_handler>:
   14000d250:	48 89 c8             	mov    rax,rcx
   14000d253:	48 87 05 36 7f 00 00 	xchg   QWORD PTR [rip+0x7f36],rax        # 140015190 <handler>
   14000d25a:	c3                   	ret
   14000d25b:	90                   	nop
   14000d25c:	90                   	nop
   14000d25d:	90                   	nop
   14000d25e:	90                   	nop
   14000d25f:	90                   	nop

000000014000d260 <__acrt_iob_func>:
   14000d260:	55                   	push   rbp
   14000d261:	53                   	push   rbx
   14000d262:	48 83 ec 28          	sub    rsp,0x28
   14000d266:	48 8d 6c 24 20       	lea    rbp,[rsp+0x20]
   14000d26b:	89 cb                	mov    ebx,ecx
   14000d26d:	e8 2e 00 00 00       	call   14000d2a0 <__iob_func>
   14000d272:	89 d9                	mov    ecx,ebx
   14000d274:	48 8d 14 49          	lea    rdx,[rcx+rcx*2]
   14000d278:	48 c1 e2 04          	shl    rdx,0x4
   14000d27c:	48 01 d0             	add    rax,rdx
   14000d27f:	48 83 c4 28          	add    rsp,0x28
   14000d283:	5b                   	pop    rbx
   14000d284:	5d                   	pop    rbp
   14000d285:	c3                   	ret
   14000d286:	90                   	nop
   14000d287:	90                   	nop
   14000d288:	90                   	nop
   14000d289:	90                   	nop
   14000d28a:	90                   	nop
   14000d28b:	90                   	nop
   14000d28c:	90                   	nop
   14000d28d:	90                   	nop
   14000d28e:	90                   	nop
   14000d28f:	90                   	nop

000000014000d290 <__C_specific_handler>:
   14000d290:	ff 25 42 90 00 00    	jmp    QWORD PTR [rip+0x9042]        # 1400162d8 <__imp___C_specific_handler>
   14000d296:	90                   	nop
   14000d297:	90                   	nop

000000014000d298 <__getmainargs>:
   14000d298:	ff 25 42 90 00 00    	jmp    QWORD PTR [rip+0x9042]        # 1400162e0 <__imp___getmainargs>
   14000d29e:	90                   	nop
   14000d29f:	90                   	nop

000000014000d2a0 <__iob_func>:
   14000d2a0:	ff 25 4a 90 00 00    	jmp    QWORD PTR [rip+0x904a]        # 1400162f0 <__imp___iob_func>
   14000d2a6:	90                   	nop
   14000d2a7:	90                   	nop

000000014000d2a8 <__set_app_type>:
   14000d2a8:	ff 25 4a 90 00 00    	jmp    QWORD PTR [rip+0x904a]        # 1400162f8 <__imp___set_app_type>
   14000d2ae:	90                   	nop
   14000d2af:	90                   	nop

000000014000d2b0 <__setusermatherr>:
   14000d2b0:	ff 25 4a 90 00 00    	jmp    QWORD PTR [rip+0x904a]        # 140016300 <__imp___setusermatherr>
   14000d2b6:	90                   	nop
   14000d2b7:	90                   	nop

000000014000d2b8 <_amsg_exit>:
   14000d2b8:	ff 25 4a 90 00 00    	jmp    QWORD PTR [rip+0x904a]        # 140016308 <__imp__amsg_exit>
   14000d2be:	90                   	nop
   14000d2bf:	90                   	nop

000000014000d2c0 <_cexit>:
   14000d2c0:	ff 25 4a 90 00 00    	jmp    QWORD PTR [rip+0x904a]        # 140016310 <__imp__cexit>
   14000d2c6:	90                   	nop
   14000d2c7:	90                   	nop

000000014000d2c8 <_initterm>:
   14000d2c8:	ff 25 5a 90 00 00    	jmp    QWORD PTR [rip+0x905a]        # 140016328 <__imp__initterm>
   14000d2ce:	90                   	nop
   14000d2cf:	90                   	nop

000000014000d2d0 <_onexit>:
   14000d2d0:	ff 25 5a 90 00 00    	jmp    QWORD PTR [rip+0x905a]        # 140016330 <__imp__onexit>
   14000d2d6:	90                   	nop
   14000d2d7:	90                   	nop

000000014000d2d8 <abort>:
   14000d2d8:	ff 25 5a 90 00 00    	jmp    QWORD PTR [rip+0x905a]        # 140016338 <__imp_abort>
   14000d2de:	90                   	nop
   14000d2df:	90                   	nop

000000014000d2e0 <calloc>:
   14000d2e0:	ff 25 5a 90 00 00    	jmp    QWORD PTR [rip+0x905a]        # 140016340 <__imp_calloc>
   14000d2e6:	90                   	nop
   14000d2e7:	90                   	nop

000000014000d2e8 <exit>:
   14000d2e8:	ff 25 5a 90 00 00    	jmp    QWORD PTR [rip+0x905a]        # 140016348 <__imp_exit>
   14000d2ee:	90                   	nop
   14000d2ef:	90                   	nop

000000014000d2f0 <fprintf>:
   14000d2f0:	ff 25 5a 90 00 00    	jmp    QWORD PTR [rip+0x905a]        # 140016350 <__imp_fprintf>
   14000d2f6:	90                   	nop
   14000d2f7:	90                   	nop

000000014000d2f8 <free>:
   14000d2f8:	ff 25 5a 90 00 00    	jmp    QWORD PTR [rip+0x905a]        # 140016358 <__imp_free>
   14000d2fe:	90                   	nop
   14000d2ff:	90                   	nop

000000014000d300 <fwrite>:
   14000d300:	ff 25 5a 90 00 00    	jmp    QWORD PTR [rip+0x905a]        # 140016360 <__imp_fwrite>
   14000d306:	90                   	nop
   14000d307:	90                   	nop

000000014000d308 <malloc>:
   14000d308:	ff 25 5a 90 00 00    	jmp    QWORD PTR [rip+0x905a]        # 140016368 <__imp_malloc>
   14000d30e:	90                   	nop
   14000d30f:	90                   	nop

000000014000d310 <memcpy>:
   14000d310:	ff 25 5a 90 00 00    	jmp    QWORD PTR [rip+0x905a]        # 140016370 <__imp_memcpy>
   14000d316:	90                   	nop
   14000d317:	90                   	nop

000000014000d318 <memset>:
   14000d318:	ff 25 5a 90 00 00    	jmp    QWORD PTR [rip+0x905a]        # 140016378 <__imp_memset>
   14000d31e:	90                   	nop
   14000d31f:	90                   	nop

000000014000d320 <signal>:
   14000d320:	ff 25 5a 90 00 00    	jmp    QWORD PTR [rip+0x905a]        # 140016380 <__imp_signal>
   14000d326:	90                   	nop
   14000d327:	90                   	nop

000000014000d328 <strcmp>:
   14000d328:	ff 25 5a 90 00 00    	jmp    QWORD PTR [rip+0x905a]        # 140016388 <__imp_strcmp>
   14000d32e:	90                   	nop
   14000d32f:	90                   	nop

000000014000d330 <strlen>:
   14000d330:	ff 25 5a 90 00 00    	jmp    QWORD PTR [rip+0x905a]        # 140016390 <__imp_strlen>
   14000d336:	90                   	nop
   14000d337:	90                   	nop

000000014000d338 <strncmp>:
   14000d338:	ff 25 5a 90 00 00    	jmp    QWORD PTR [rip+0x905a]        # 140016398 <__imp_strncmp>
   14000d33e:	90                   	nop
   14000d33f:	90                   	nop

000000014000d340 <vfprintf>:
   14000d340:	ff 25 5a 90 00 00    	jmp    QWORD PTR [rip+0x905a]        # 1400163a0 <__imp_vfprintf>
   14000d346:	90                   	nop
   14000d347:	90                   	nop
   14000d348:	0f 1f 84 00 00 00 00 	nop    DWORD PTR [rax+rax*1+0x0]
   14000d34f:	00 

000000014000d350 <VirtualQuery>:
   14000d350:	ff 25 72 8f 00 00    	jmp    QWORD PTR [rip+0x8f72]        # 1400162c8 <__imp_VirtualQuery>
   14000d356:	90                   	nop
   14000d357:	90                   	nop

000000014000d358 <VirtualProtect>:
   14000d358:	ff 25 62 8f 00 00    	jmp    QWORD PTR [rip+0x8f62]        # 1400162c0 <__imp_VirtualProtect>
   14000d35e:	90                   	nop
   14000d35f:	90                   	nop

000000014000d360 <VirtualAlloc>:
   14000d360:	ff 25 52 8f 00 00    	jmp    QWORD PTR [rip+0x8f52]        # 1400162b8 <__imp_VirtualAlloc>
   14000d366:	90                   	nop
   14000d367:	90                   	nop

000000014000d368 <TlsGetValue>:
   14000d368:	ff 25 42 8f 00 00    	jmp    QWORD PTR [rip+0x8f42]        # 1400162b0 <__imp_TlsGetValue>
   14000d36e:	90                   	nop
   14000d36f:	90                   	nop

000000014000d370 <Sleep>:
   14000d370:	ff 25 32 8f 00 00    	jmp    QWORD PTR [rip+0x8f32]        # 1400162a8 <__imp_Sleep>
   14000d376:	90                   	nop
   14000d377:	90                   	nop

000000014000d378 <SetUnhandledExceptionFilter>:
   14000d378:	ff 25 22 8f 00 00    	jmp    QWORD PTR [rip+0x8f22]        # 1400162a0 <__imp_SetUnhandledExceptionFilter>
   14000d37e:	90                   	nop
   14000d37f:	90                   	nop

000000014000d380 <RemoveVectoredExceptionHandler>:
   14000d380:	ff 25 12 8f 00 00    	jmp    QWORD PTR [rip+0x8f12]        # 140016298 <__imp_RemoveVectoredExceptionHandler>
   14000d386:	90                   	nop
   14000d387:	90                   	nop

000000014000d388 <LoadLibraryA>:
   14000d388:	ff 25 02 8f 00 00    	jmp    QWORD PTR [rip+0x8f02]        # 140016290 <__imp_LoadLibraryA>
   14000d38e:	90                   	nop
   14000d38f:	90                   	nop

000000014000d390 <LeaveCriticalSection>:
   14000d390:	ff 25 f2 8e 00 00    	jmp    QWORD PTR [rip+0x8ef2]        # 140016288 <__imp_LeaveCriticalSection>
   14000d396:	90                   	nop
   14000d397:	90                   	nop

000000014000d398 <InitializeCriticalSection>:
   14000d398:	ff 25 e2 8e 00 00    	jmp    QWORD PTR [rip+0x8ee2]        # 140016280 <__imp_InitializeCriticalSection>
   14000d39e:	90                   	nop
   14000d39f:	90                   	nop

000000014000d3a0 <GetProcAddress>:
   14000d3a0:	ff 25 d2 8e 00 00    	jmp    QWORD PTR [rip+0x8ed2]        # 140016278 <__imp_GetProcAddress>
   14000d3a6:	90                   	nop
   14000d3a7:	90                   	nop

000000014000d3a8 <GetModuleHandleA>:
   14000d3a8:	ff 25 c2 8e 00 00    	jmp    QWORD PTR [rip+0x8ec2]        # 140016270 <__imp_GetModuleHandleA>
   14000d3ae:	90                   	nop
   14000d3af:	90                   	nop

000000014000d3b0 <GetLastError>:
   14000d3b0:	ff 25 b2 8e 00 00    	jmp    QWORD PTR [rip+0x8eb2]        # 140016268 <__imp_GetLastError>
   14000d3b6:	90                   	nop
   14000d3b7:	90                   	nop

000000014000d3b8 <EnterCriticalSection>:
   14000d3b8:	ff 25 a2 8e 00 00    	jmp    QWORD PTR [rip+0x8ea2]        # 140016260 <__imp_EnterCriticalSection>
   14000d3be:	90                   	nop
   14000d3bf:	90                   	nop

000000014000d3c0 <DeleteCriticalSection>:
   14000d3c0:	ff 25 92 8e 00 00    	jmp    QWORD PTR [rip+0x8e92]        # 140016258 <__imp_DeleteCriticalSection>
   14000d3c6:	90                   	nop
   14000d3c7:	90                   	nop

000000014000d3c8 <CloseHandle>:
   14000d3c8:	ff 25 82 8e 00 00    	jmp    QWORD PTR [rip+0x8e82]        # 140016250 <__imp_CloseHandle>
   14000d3ce:	90                   	nop
   14000d3cf:	90                   	nop

000000014000d3d0 <AddVectoredExceptionHandler>:
   14000d3d0:	ff 25 72 8e 00 00    	jmp    QWORD PTR [rip+0x8e72]        # 140016248 <__IAT_start__>
   14000d3d6:	90                   	nop
   14000d3d7:	90                   	nop
   14000d3d8:	0f 1f 84 00 00 00 00 	nop    DWORD PTR [rax+rax*1+0x0]
   14000d3df:	00 

000000014000d3e0 <_Z11sign_extendii>:
   14000d3e0:	55                   	push   rbp
   14000d3e1:	48 89 e5             	mov    rbp,rsp
   14000d3e4:	48 83 ec 10          	sub    rsp,0x10
   14000d3e8:	89 4d 10             	mov    DWORD PTR [rbp+0x10],ecx
   14000d3eb:	89 55 18             	mov    DWORD PTR [rbp+0x18],edx
   14000d3ee:	b8 20 00 00 00       	mov    eax,0x20
   14000d3f3:	2b 45 18             	sub    eax,DWORD PTR [rbp+0x18]
   14000d3f6:	89 45 fc             	mov    DWORD PTR [rbp-0x4],eax
   14000d3f9:	8b 45 fc             	mov    eax,DWORD PTR [rbp-0x4]
   14000d3fc:	8b 55 10             	mov    edx,DWORD PTR [rbp+0x10]
   14000d3ff:	89 c1                	mov    ecx,eax
   14000d401:	d3 e2                	shl    edx,cl
   14000d403:	8b 45 fc             	mov    eax,DWORD PTR [rbp-0x4]
   14000d406:	89 c1                	mov    ecx,eax
   14000d408:	d3 fa                	sar    edx,cl
   14000d40a:	89 d0                	mov    eax,edx
   14000d40c:	48 83 c4 10          	add    rsp,0x10
   14000d410:	5d                   	pop    rbp
   14000d411:	c3                   	ret
   14000d412:	90                   	nop
   14000d413:	90                   	nop
   14000d414:	90                   	nop
   14000d415:	90                   	nop
   14000d416:	90                   	nop
   14000d417:	90                   	nop
   14000d418:	90                   	nop
   14000d419:	90                   	nop
   14000d41a:	90                   	nop
   14000d41b:	90                   	nop
   14000d41c:	90                   	nop
   14000d41d:	90                   	nop
   14000d41e:	90                   	nop
   14000d41f:	90                   	nop

000000014000d420 <_Z5imm_bj>:
   14000d420:	55                   	push   rbp
   14000d421:	48 89 e5             	mov    rbp,rsp
   14000d424:	48 83 ec 30          	sub    rsp,0x30
   14000d428:	89 4d 10             	mov    DWORD PTR [rbp+0x10],ecx
   14000d42b:	8b 45 10             	mov    eax,DWORD PTR [rbp+0x10]
   14000d42e:	c1 e8 1f             	shr    eax,0x1f
   14000d431:	c1 e0 0c             	shl    eax,0xc
   14000d434:	89 c2                	mov    edx,eax
   14000d436:	8b 45 10             	mov    eax,DWORD PTR [rbp+0x10]
   14000d439:	c1 e8 19             	shr    eax,0x19
   14000d43c:	c1 e0 05             	shl    eax,0x5
   14000d43f:	25 e0 07 00 00       	and    eax,0x7e0
   14000d444:	09 c2                	or     edx,eax
   14000d446:	8b 45 10             	mov    eax,DWORD PTR [rbp+0x10]
   14000d449:	c1 e8 08             	shr    eax,0x8
   14000d44c:	01 c0                	add    eax,eax
   14000d44e:	83 e0 1e             	and    eax,0x1e
   14000d451:	09 c2                	or     edx,eax
   14000d453:	8b 45 10             	mov    eax,DWORD PTR [rbp+0x10]
   14000d456:	c1 e8 07             	shr    eax,0x7
   14000d459:	c1 e0 0b             	shl    eax,0xb
   14000d45c:	25 00 08 00 00       	and    eax,0x800
   14000d461:	09 d0                	or     eax,edx
   14000d463:	89 45 fc             	mov    DWORD PTR [rbp-0x4],eax
   14000d466:	8b 45 fc             	mov    eax,DWORD PTR [rbp-0x4]
   14000d469:	ba 0d 00 00 00       	mov    edx,0xd
   14000d46e:	89 c1                	mov    ecx,eax
   14000d470:	e8 6b ff ff ff       	call   14000d3e0 <_Z11sign_extendii>
   14000d475:	48 83 c4 30          	add    rsp,0x30
   14000d479:	5d                   	pop    rbp
   14000d47a:	c3                   	ret
   14000d47b:	90                   	nop
   14000d47c:	90                   	nop
   14000d47d:	90                   	nop
   14000d47e:	90                   	nop
   14000d47f:	90                   	nop

000000014000d480 <_Z5imm_ij>:
   14000d480:	55                   	push   rbp
   14000d481:	48 89 e5             	mov    rbp,rsp
   14000d484:	48 83 ec 20          	sub    rsp,0x20
   14000d488:	89 4d 10             	mov    DWORD PTR [rbp+0x10],ecx
   14000d48b:	8b 45 10             	mov    eax,DWORD PTR [rbp+0x10]
   14000d48e:	c1 e8 14             	shr    eax,0x14
   14000d491:	ba 0c 00 00 00       	mov    edx,0xc
   14000d496:	89 c1                	mov    ecx,eax
   14000d498:	e8 43 ff ff ff       	call   14000d3e0 <_Z11sign_extendii>
   14000d49d:	48 83 c4 20          	add    rsp,0x20
   14000d4a1:	5d                   	pop    rbp
   14000d4a2:	c3                   	ret
   14000d4a3:	90                   	nop
   14000d4a4:	90                   	nop
   14000d4a5:	90                   	nop
   14000d4a6:	90                   	nop
   14000d4a7:	90                   	nop
   14000d4a8:	90                   	nop
   14000d4a9:	90                   	nop
   14000d4aa:	90                   	nop
   14000d4ab:	90                   	nop
   14000d4ac:	90                   	nop
   14000d4ad:	90                   	nop
   14000d4ae:	90                   	nop
   14000d4af:	90                   	nop

000000014000d4b0 <_Z5imm_jj>:
   14000d4b0:	55                   	push   rbp
   14000d4b1:	48 89 e5             	mov    rbp,rsp
   14000d4b4:	48 83 ec 30          	sub    rsp,0x30
   14000d4b8:	89 4d 10             	mov    DWORD PTR [rbp+0x10],ecx
   14000d4bb:	8b 45 10             	mov    eax,DWORD PTR [rbp+0x10]
   14000d4be:	c1 e8 1f             	shr    eax,0x1f
   14000d4c1:	c1 e0 14             	shl    eax,0x14
   14000d4c4:	89 c2                	mov    edx,eax
   14000d4c6:	8b 45 10             	mov    eax,DWORD PTR [rbp+0x10]
   14000d4c9:	c1 e8 15             	shr    eax,0x15
   14000d4cc:	01 c0                	add    eax,eax
   14000d4ce:	25 fe 07 00 00       	and    eax,0x7fe
   14000d4d3:	09 c2                	or     edx,eax
   14000d4d5:	8b 45 10             	mov    eax,DWORD PTR [rbp+0x10]
   14000d4d8:	c1 e8 14             	shr    eax,0x14
   14000d4db:	c1 e0 0b             	shl    eax,0xb
   14000d4de:	25 00 08 00 00       	and    eax,0x800
   14000d4e3:	09 c2                	or     edx,eax
   14000d4e5:	8b 45 10             	mov    eax,DWORD PTR [rbp+0x10]
   14000d4e8:	25 00 f0 0f 00       	and    eax,0xff000
   14000d4ed:	09 d0                	or     eax,edx
   14000d4ef:	89 45 fc             	mov    DWORD PTR [rbp-0x4],eax
   14000d4f2:	8b 45 fc             	mov    eax,DWORD PTR [rbp-0x4]
   14000d4f5:	ba 15 00 00 00       	mov    edx,0x15
   14000d4fa:	89 c1                	mov    ecx,eax
   14000d4fc:	e8 df fe ff ff       	call   14000d3e0 <_Z11sign_extendii>
   14000d501:	48 83 c4 30          	add    rsp,0x30
   14000d505:	5d                   	pop    rbp
   14000d506:	c3                   	ret
   14000d507:	90                   	nop
   14000d508:	90                   	nop
   14000d509:	90                   	nop
   14000d50a:	90                   	nop
   14000d50b:	90                   	nop
   14000d50c:	90                   	nop
   14000d50d:	90                   	nop
   14000d50e:	90                   	nop
   14000d50f:	90                   	nop

000000014000d510 <_Z5imm_sj>:
   14000d510:	55                   	push   rbp
   14000d511:	48 89 e5             	mov    rbp,rsp
   14000d514:	48 83 ec 20          	sub    rsp,0x20
   14000d518:	89 4d 10             	mov    DWORD PTR [rbp+0x10],ecx
   14000d51b:	8b 45 10             	mov    eax,DWORD PTR [rbp+0x10]
   14000d51e:	c1 e8 19             	shr    eax,0x19
   14000d521:	c1 e0 05             	shl    eax,0x5
   14000d524:	89 c2                	mov    edx,eax
   14000d526:	8b 45 10             	mov    eax,DWORD PTR [rbp+0x10]
   14000d529:	c1 e8 07             	shr    eax,0x7
   14000d52c:	83 e0 1f             	and    eax,0x1f
   14000d52f:	09 d0                	or     eax,edx
   14000d531:	ba 0c 00 00 00       	mov    edx,0xc
   14000d536:	89 c1                	mov    ecx,eax
   14000d538:	e8 a3 fe ff ff       	call   14000d3e0 <_Z11sign_extendii>
   14000d53d:	48 83 c4 20          	add    rsp,0x20
   14000d541:	5d                   	pop    rbp
   14000d542:	c3                   	ret
   14000d543:	90                   	nop
   14000d544:	90                   	nop
   14000d545:	90                   	nop
   14000d546:	90                   	nop
   14000d547:	90                   	nop
   14000d548:	90                   	nop
   14000d549:	90                   	nop
   14000d54a:	90                   	nop
   14000d54b:	90                   	nop
   14000d54c:	90                   	nop
   14000d54d:	90                   	nop
   14000d54e:	90                   	nop
   14000d54f:	90                   	nop

000000014000d550 <_Z5imm_uj>:
   14000d550:	55                   	push   rbp
   14000d551:	48 89 e5             	mov    rbp,rsp
   14000d554:	89 4d 10             	mov    DWORD PTR [rbp+0x10],ecx
   14000d557:	8b 45 10             	mov    eax,DWORD PTR [rbp+0x10]
   14000d55a:	25 00 f0 ff ff       	and    eax,0xfffff000
   14000d55f:	5d                   	pop    rbp
   14000d560:	c3                   	ret
   14000d561:	90                   	nop
   14000d562:	90                   	nop
   14000d563:	90                   	nop
   14000d564:	90                   	nop
   14000d565:	90                   	nop
   14000d566:	90                   	nop
   14000d567:	90                   	nop
   14000d568:	90                   	nop
   14000d569:	90                   	nop
   14000d56a:	90                   	nop
   14000d56b:	90                   	nop
   14000d56c:	90                   	nop
   14000d56d:	90                   	nop
   14000d56e:	90                   	nop
   14000d56f:	90                   	nop

000000014000d570 <_Z7shamt_ij>:
   14000d570:	55                   	push   rbp
   14000d571:	48 89 e5             	mov    rbp,rsp
   14000d574:	89 4d 10             	mov    DWORD PTR [rbp+0x10],ecx
   14000d577:	8b 45 10             	mov    eax,DWORD PTR [rbp+0x10]
   14000d57a:	c1 e8 14             	shr    eax,0x14
   14000d57d:	83 e0 1f             	and    eax,0x1f
   14000d580:	5d                   	pop    rbp
   14000d581:	c3                   	ret
   14000d582:	90                   	nop
   14000d583:	90                   	nop
   14000d584:	90                   	nop
   14000d585:	90                   	nop
   14000d586:	90                   	nop
   14000d587:	90                   	nop
   14000d588:	90                   	nop
   14000d589:	90                   	nop
   14000d58a:	90                   	nop
   14000d58b:	90                   	nop
   14000d58c:	90                   	nop
   14000d58d:	90                   	nop
   14000d58e:	90                   	nop
   14000d58f:	90                   	nop

000000014000d590 <_ZN9__gnu_cxx16__aligned_bufferISt4pairIKPv12ucrt_wrapperEE6_M_ptrEv>:
   14000d590:	55                   	push   rbp
   14000d591:	48 89 e5             	mov    rbp,rsp
   14000d594:	48 83 ec 20          	sub    rsp,0x20
   14000d598:	48 89 4d 10          	mov    QWORD PTR [rbp+0x10],rcx
   14000d59c:	48 8b 45 10          	mov    rax,QWORD PTR [rbp+0x10]
   14000d5a0:	48 89 c1             	mov    rcx,rax
   14000d5a3:	e8 08 00 00 00       	call   14000d5b0 <_ZN9__gnu_cxx16__aligned_bufferISt4pairIKPv12ucrt_wrapperEE7_M_addrEv>
   14000d5a8:	48 83 c4 20          	add    rsp,0x20
   14000d5ac:	5d                   	pop    rbp
   14000d5ad:	c3                   	ret
   14000d5ae:	90                   	nop
   14000d5af:	90                   	nop

000000014000d5b0 <_ZN9__gnu_cxx16__aligned_bufferISt4pairIKPv12ucrt_wrapperEE7_M_addrEv>:
   14000d5b0:	55                   	push   rbp
   14000d5b1:	48 89 e5             	mov    rbp,rsp
   14000d5b4:	48 89 4d 10          	mov    QWORD PTR [rbp+0x10],rcx
   14000d5b8:	48 8b 45 10          	mov    rax,QWORD PTR [rbp+0x10]
   14000d5bc:	5d                   	pop    rbp
   14000d5bd:	c3                   	ret
   14000d5be:	90                   	nop
   14000d5bf:	90                   	nop

000000014000d5c0 <_ZNK9__gnu_cxx16__aligned_bufferISt4pairIKPv12ucrt_wrapperEE6_M_ptrEv>:
   14000d5c0:	55                   	push   rbp
   14000d5c1:	48 89 e5             	mov    rbp,rsp
   14000d5c4:	48 83 ec 20          	sub    rsp,0x20
   14000d5c8:	48 89 4d 10          	mov    QWORD PTR [rbp+0x10],rcx
   14000d5cc:	48 8b 45 10          	mov    rax,QWORD PTR [rbp+0x10]
   14000d5d0:	48 89 c1             	mov    rcx,rax
   14000d5d3:	e8 08 00 00 00       	call   14000d5e0 <_ZNK9__gnu_cxx16__aligned_bufferISt4pairIKPv12ucrt_wrapperEE7_M_addrEv>
   14000d5d8:	48 83 c4 20          	add    rsp,0x20
   14000d5dc:	5d                   	pop    rbp
   14000d5dd:	c3                   	ret
   14000d5de:	90                   	nop
   14000d5df:	90                   	nop

000000014000d5e0 <_ZNK9__gnu_cxx16__aligned_bufferISt4pairIKPv12ucrt_wrapperEE7_M_addrEv>:
   14000d5e0:	55                   	push   rbp
   14000d5e1:	48 89 e5             	mov    rbp,rsp
   14000d5e4:	48 89 4d 10          	mov    QWORD PTR [rbp+0x10],rcx
   14000d5e8:	48 8b 45 10          	mov    rax,QWORD PTR [rbp+0x10]
   14000d5ec:	5d                   	pop    rbp
   14000d5ed:	c3                   	ret
   14000d5ee:	90                   	nop
   14000d5ef:	90                   	nop

000000014000d5f0 <_ZNKSt10_HashtableIPvSt4pairIKS0_12ucrt_wrapperESaIS4_ENSt8__detail10_Select1stESt8equal_toIS0_ESt4hashIS0_ENS6_18_Mod_range_hashingENS6_20_Default_ranged_hashENS6_20_Prime_rehash_policyENS6_17_Hashtable_traitsILb0ELb0ELb1EEEE12_M_find_nodeEyRS2_y>:
   14000d5f0:	55                   	push   rbp
   14000d5f1:	48 89 e5             	mov    rbp,rsp
   14000d5f4:	48 83 ec 30          	sub    rsp,0x30
   14000d5f8:	48 89 4d 10          	mov    QWORD PTR [rbp+0x10],rcx
   14000d5fc:	48 89 55 18          	mov    QWORD PTR [rbp+0x18],rdx
   14000d600:	4c 89 45 20          	mov    QWORD PTR [rbp+0x20],r8
   14000d604:	4c 89 4d 28          	mov    QWORD PTR [rbp+0x28],r9
   14000d608:	4c 8b 45 28          	mov    r8,QWORD PTR [rbp+0x28]
   14000d60c:	48 8b 4d 20          	mov    rcx,QWORD PTR [rbp+0x20]
   14000d610:	48 8b 55 18          	mov    rdx,QWORD PTR [rbp+0x18]
   14000d614:	48 8b 45 10          	mov    rax,QWORD PTR [rbp+0x10]
   14000d618:	4d 89 c1             	mov    r9,r8
   14000d61b:	49 89 c8             	mov    r8,rcx
   14000d61e:	48 89 c1             	mov    rcx,rax
   14000d621:	e8 aa 00 00 00       	call   14000d6d0 <_ZNKSt10_HashtableIPvSt4pairIKS0_12ucrt_wrapperESaIS4_ENSt8__detail10_Select1stESt8equal_toIS0_ESt4hashIS0_ENS6_18_Mod_range_hashingENS6_20_Default_ranged_hashENS6_20_Prime_rehash_policyENS6_17_Hashtable_traitsILb0ELb0ELb1EEEE19_M_find_before_nodeEyRS2_y>
   14000d626:	48 89 45 f8          	mov    QWORD PTR [rbp-0x8],rax
   14000d62a:	48 83 7d f8 00       	cmp    QWORD PTR [rbp-0x8],0x0
   14000d62f:	74 09                	je     14000d63a <_ZNKSt10_HashtableIPvSt4pairIKS0_12ucrt_wrapperESaIS4_ENSt8__detail10_Select1stESt8equal_toIS0_ESt4hashIS0_ENS6_18_Mod_range_hashingENS6_20_Default_ranged_hashENS6_20_Prime_rehash_policyENS6_17_Hashtable_traitsILb0ELb0ELb1EEEE12_M_find_nodeEyRS2_y+0x4a>
   14000d631:	48 8b 45 f8          	mov    rax,QWORD PTR [rbp-0x8]
   14000d635:	48 8b 00             	mov    rax,QWORD PTR [rax]
   14000d638:	eb 05                	jmp    14000d63f <_ZNKSt10_HashtableIPvSt4pairIKS0_12ucrt_wrapperESaIS4_ENSt8__detail10_Select1stESt8equal_toIS0_ESt4hashIS0_ENS6_18_Mod_range_hashingENS6_20_Default_ranged_hashENS6_20_Prime_rehash_policyENS6_17_Hashtable_traitsILb0ELb0ELb1EEEE12_M_find_nodeEyRS2_y+0x4f>
   14000d63a:	b8 00 00 00 00       	mov    eax,0x0
   14000d63f:	48 83 c4 30          	add    rsp,0x30
   14000d643:	5d                   	pop    rbp
   14000d644:	c3                   	ret
   14000d645:	90                   	nop
   14000d646:	90                   	nop
   14000d647:	90                   	nop
   14000d648:	90                   	nop
   14000d649:	90                   	nop
   14000d64a:	90                   	nop
   14000d64b:	90                   	nop
   14000d64c:	90                   	nop
   14000d64d:	90                   	nop
   14000d64e:	90                   	nop
   14000d64f:	90                   	nop

000000014000d650 <_ZNKSt10_HashtableIPvSt4pairIKS0_12ucrt_wrapperESaIS4_ENSt8__detail10_Select1stESt8equal_toIS0_ESt4hashIS0_ENS6_18_Mod_range_hashingENS6_20_Default_ranged_hashENS6_20_Prime_rehash_policyENS6_17_Hashtable_traitsILb0ELb0ELb1EEEE15_M_bucket_indexERKNS6_16_Hash_node_valueIS4_Lb0EEE>:
   14000d650:	55                   	push   rbp
   14000d651:	48 89 e5             	mov    rbp,rsp
   14000d654:	48 83 ec 20          	sub    rsp,0x20
   14000d658:	48 89 4d 10          	mov    QWORD PTR [rbp+0x10],rcx
   14000d65c:	48 89 55 18          	mov    QWORD PTR [rbp+0x18],rdx
   14000d660:	48 8b 45 10          	mov    rax,QWORD PTR [rbp+0x10]
   14000d664:	48 8b 48 08          	mov    rcx,QWORD PTR [rax+0x8]
   14000d668:	48 8b 55 18          	mov    rdx,QWORD PTR [rbp+0x18]
   14000d66c:	48 8b 45 10          	mov    rax,QWORD PTR [rbp+0x10]
   14000d670:	49 89 c8             	mov    r8,rcx
   14000d673:	48 89 c1             	mov    rcx,rax
   14000d676:	e8 a5 02 00 00       	call   14000d920 <_ZNKSt8__detail15_Hash_code_baseIPvSt4pairIKS1_12ucrt_wrapperENS_10_Select1stESt4hashIS1_ENS_18_Mod_range_hashingENS_20_Default_ranged_hashELb0EE15_M_bucket_indexERKNS_16_Hash_node_valueIS5_Lb0EEEy>
   14000d67b:	48 83 c4 20          	add    rsp,0x20
   14000d67f:	5d                   	pop    rbp
   14000d680:	c3                   	ret
   14000d681:	90                   	nop
   14000d682:	90                   	nop
   14000d683:	90                   	nop
   14000d684:	90                   	nop
   14000d685:	90                   	nop
   14000d686:	90                   	nop
   14000d687:	90                   	nop
   14000d688:	90                   	nop
   14000d689:	90                   	nop
   14000d68a:	90                   	nop
   14000d68b:	90                   	nop
   14000d68c:	90                   	nop
   14000d68d:	90                   	nop
   14000d68e:	90                   	nop
   14000d68f:	90                   	nop

000000014000d690 <_ZNKSt10_HashtableIPvSt4pairIKS0_12ucrt_wrapperESaIS4_ENSt8__detail10_Select1stESt8equal_toIS0_ESt4hashIS0_ENS6_18_Mod_range_hashingENS6_20_Default_ranged_hashENS6_20_Prime_rehash_policyENS6_17_Hashtable_traitsILb0ELb0ELb1EEEE15_M_bucket_indexEy>:
   14000d690:	55                   	push   rbp
   14000d691:	48 89 e5             	mov    rbp,rsp
   14000d694:	48 83 ec 20          	sub    rsp,0x20
   14000d698:	48 89 4d 10          	mov    QWORD PTR [rbp+0x10],rcx
   14000d69c:	48 89 55 18          	mov    QWORD PTR [rbp+0x18],rdx
   14000d6a0:	48 8b 45 10          	mov    rax,QWORD PTR [rbp+0x10]
   14000d6a4:	48 8b 48 08          	mov    rcx,QWORD PTR [rax+0x8]
   14000d6a8:	48 8b 55 18          	mov    rdx,QWORD PTR [rbp+0x18]
   14000d6ac:	48 8b 45 10          	mov    rax,QWORD PTR [rbp+0x10]
   14000d6b0:	49 89 c8             	mov    r8,rcx
   14000d6b3:	48 89 c1             	mov    rcx,rax
   14000d6b6:	e8 d5 02 00 00       	call   14000d990 <_ZNKSt8__detail15_Hash_code_baseIPvSt4pairIKS1_12ucrt_wrapperENS_10_Select1stESt4hashIS1_ENS_18_Mod_range_hashingENS_20_Default_ranged_hashELb0EE15_M_bucket_indexEyy>
   14000d6bb:	48 83 c4 20          	add    rsp,0x20
   14000d6bf:	5d                   	pop    rbp
   14000d6c0:	c3                   	ret
   14000d6c1:	90                   	nop
   14000d6c2:	90                   	nop
   14000d6c3:	90                   	nop
   14000d6c4:	90                   	nop
   14000d6c5:	90                   	nop
   14000d6c6:	90                   	nop
   14000d6c7:	90                   	nop
   14000d6c8:	90                   	nop
   14000d6c9:	90                   	nop
   14000d6ca:	90                   	nop
   14000d6cb:	90                   	nop
   14000d6cc:	90                   	nop
   14000d6cd:	90                   	nop
   14000d6ce:	90                   	nop
   14000d6cf:	90                   	nop

000000014000d6d0 <_ZNKSt10_HashtableIPvSt4pairIKS0_12ucrt_wrapperESaIS4_ENSt8__detail10_Select1stESt8equal_toIS0_ESt4hashIS0_ENS6_18_Mod_range_hashingENS6_20_Default_ranged_hashENS6_20_Prime_rehash_policyENS6_17_Hashtable_traitsILb0ELb0ELb1EEEE19_M_find_before_nodeEyRS2_y>:
   14000d6d0:	55                   	push   rbp
   14000d6d1:	48 89 e5             	mov    rbp,rsp
   14000d6d4:	48 83 ec 30          	sub    rsp,0x30
   14000d6d8:	48 89 4d 10          	mov    QWORD PTR [rbp+0x10],rcx
   14000d6dc:	48 89 55 18          	mov    QWORD PTR [rbp+0x18],rdx
   14000d6e0:	4c 89 45 20          	mov    QWORD PTR [rbp+0x20],r8
   14000d6e4:	4c 89 4d 28          	mov    QWORD PTR [rbp+0x28],r9
   14000d6e8:	48 8b 45 10          	mov    rax,QWORD PTR [rbp+0x10]
   14000d6ec:	48 8b 00             	mov    rax,QWORD PTR [rax]
   14000d6ef:	48 8b 55 18          	mov    rdx,QWORD PTR [rbp+0x18]
   14000d6f3:	48 c1 e2 03          	shl    rdx,0x3
   14000d6f7:	48 01 d0             	add    rax,rdx
   14000d6fa:	48 8b 00             	mov    rax,QWORD PTR [rax]
   14000d6fd:	48 89 45 f8          	mov    QWORD PTR [rbp-0x8],rax
   14000d701:	48 83 7d f8 00       	cmp    QWORD PTR [rbp-0x8],0x0
   14000d706:	75 0a                	jne    14000d712 <_ZNKSt10_HashtableIPvSt4pairIKS0_12ucrt_wrapperESaIS4_ENSt8__detail10_Select1stESt8equal_toIS0_ESt4hashIS0_ENS6_18_Mod_range_hashingENS6_20_Default_ranged_hashENS6_20_Prime_rehash_policyENS6_17_Hashtable_traitsILb0ELb0ELb1EEEE19_M_find_before_nodeEyRS2_y+0x42>
   14000d708:	b8 00 00 00 00       	mov    eax,0x0
   14000d70d:	e9 98 00 00 00       	jmp    14000d7aa <_ZNKSt10_HashtableIPvSt4pairIKS0_12ucrt_wrapperESaIS4_ENSt8__detail10_Select1stESt8equal_toIS0_ESt4hashIS0_ENS6_18_Mod_range_hashingENS6_20_Default_ranged_hashENS6_20_Prime_rehash_policyENS6_17_Hashtable_traitsILb0ELb0ELb1EEEE19_M_find_before_nodeEyRS2_y+0xda>
   14000d712:	48 8b 45 f8          	mov    rax,QWORD PTR [rbp-0x8]
   14000d716:	48 8b 00             	mov    rax,QWORD PTR [rax]
   14000d719:	48 89 45 f0          	mov    QWORD PTR [rbp-0x10],rax
   14000d71d:	48 8b 45 f0          	mov    rax,QWORD PTR [rbp-0x10]
   14000d721:	4c 8d 40 08          	lea    r8,[rax+0x8]
   14000d725:	48 8b 4d 28          	mov    rcx,QWORD PTR [rbp+0x28]
   14000d729:	48 8b 55 20          	mov    rdx,QWORD PTR [rbp+0x20]
   14000d72d:	48 8b 45 10          	mov    rax,QWORD PTR [rbp+0x10]
   14000d731:	4d 89 c1             	mov    r9,r8
   14000d734:	49 89 c8             	mov    r8,rcx
   14000d737:	48 89 c1             	mov    rcx,rax
   14000d73a:	e8 41 03 00 00       	call   14000da80 <_ZNKSt8__detail15_Hashtable_baseIPvSt4pairIKS1_12ucrt_wrapperENS_10_Select1stESt8equal_toIS1_ESt4hashIS1_ENS_18_Mod_range_hashingENS_20_Default_ranged_hashENS_17_Hashtable_traitsILb0ELb0ELb1EEEE9_M_equalsERS3_yRKNS_16_Hash_node_valueIS5_Lb0EEE>
   14000d73f:	84 c0                	test   al,al
   14000d741:	74 06                	je     14000d749 <_ZNKSt10_HashtableIPvSt4pairIKS0_12ucrt_wrapperESaIS4_ENSt8__detail10_Select1stESt8equal_toIS0_ESt4hashIS0_ENS6_18_Mod_range_hashingENS6_20_Default_ranged_hashENS6_20_Prime_rehash_policyENS6_17_Hashtable_traitsILb0ELb0ELb1EEEE19_M_find_before_nodeEyRS2_y+0x79>
   14000d743:	48 8b 45 f8          	mov    rax,QWORD PTR [rbp-0x8]
   14000d747:	eb 61                	jmp    14000d7aa <_ZNKSt10_HashtableIPvSt4pairIKS0_12ucrt_wrapperESaIS4_ENSt8__detail10_Select1stESt8equal_toIS0_ESt4hashIS0_ENS6_18_Mod_range_hashingENS6_20_Default_ranged_hashENS6_20_Prime_rehash_policyENS6_17_Hashtable_traitsILb0ELb0ELb1EEEE19_M_find_before_nodeEyRS2_y+0xda>
   14000d749:	48 8b 45 f0          	mov    rax,QWORD PTR [rbp-0x10]
   14000d74d:	48 8b 00             	mov    rax,QWORD PTR [rax]
   14000d750:	48 85 c0             	test   rax,rax
   14000d753:	74 22                	je     14000d777 <_ZNKSt10_HashtableIPvSt4pairIKS0_12ucrt_wrapperESaIS4_ENSt8__detail10_Select1stESt8equal_toIS0_ESt4hashIS0_ENS6_18_Mod_range_hashingENS6_20_Default_ranged_hashENS6_20_Prime_rehash_policyENS6_17_Hashtable_traitsILb0ELb0ELb1EEEE19_M_find_before_nodeEyRS2_y+0xa7>
   14000d755:	48 8b 45 f0          	mov    rax,QWORD PTR [rbp-0x10]
   14000d759:	48 89 c1             	mov    rcx,rax
   14000d75c:	e8 df 00 00 00       	call   14000d840 <_ZNKSt8__detail10_Hash_nodeISt4pairIKPv12ucrt_wrapperELb0EE7_M_nextEv>
   14000d761:	48 8d 50 08          	lea    rdx,[rax+0x8]
   14000d765:	48 8b 45 10          	mov    rax,QWORD PTR [rbp+0x10]
   14000d769:	48 89 c1             	mov    rcx,rax
   14000d76c:	e8 df fe ff ff       	call   14000d650 <_ZNKSt10_HashtableIPvSt4pairIKS0_12ucrt_wrapperESaIS4_ENSt8__detail10_Select1stESt8equal_toIS0_ESt4hashIS0_ENS6_18_Mod_range_hashingENS6_20_Default_ranged_hashENS6_20_Prime_rehash_policyENS6_17_Hashtable_traitsILb0ELb0ELb1EEEE15_M_bucket_indexERKNS6_16_Hash_node_valueIS4_Lb0EEE>
   14000d771:	48 39 45 18          	cmp    QWORD PTR [rbp+0x18],rax
   14000d775:	74 07                	je     14000d77e <_ZNKSt10_HashtableIPvSt4pairIKS0_12ucrt_wrapperESaIS4_ENSt8__detail10_Select1stESt8equal_toIS0_ESt4hashIS0_ENS6_18_Mod_range_hashingENS6_20_Default_ranged_hashENS6_20_Prime_rehash_policyENS6_17_Hashtable_traitsILb0ELb0ELb1EEEE19_M_find_before_nodeEyRS2_y+0xae>
   14000d777:	b8 01 00 00 00       	mov    eax,0x1
   14000d77c:	eb 05                	jmp    14000d783 <_ZNKSt10_HashtableIPvSt4pairIKS0_12ucrt_wrapperESaIS4_ENSt8__detail10_Select1stESt8equal_toIS0_ESt4hashIS0_ENS6_18_Mod_range_hashingENS6_20_Default_ranged_hashENS6_20_Prime_rehash_policyENS6_17_Hashtable_traitsILb0ELb0ELb1EEEE19_M_find_before_nodeEyRS2_y+0xb3>
   14000d77e:	b8 00 00 00 00       	mov    eax,0x0
   14000d783:	84 c0                	test   al,al
   14000d785:	75 1d                	jne    14000d7a4 <_ZNKSt10_HashtableIPvSt4pairIKS0_12ucrt_wrapperESaIS4_ENSt8__detail10_Select1stESt8equal_toIS0_ESt4hashIS0_ENS6_18_Mod_range_hashingENS6_20_Default_ranged_hashENS6_20_Prime_rehash_policyENS6_17_Hashtable_traitsILb0ELb0ELb1EEEE19_M_find_before_nodeEyRS2_y+0xd4>
   14000d787:	48 8b 45 f0          	mov    rax,QWORD PTR [rbp-0x10]
   14000d78b:	48 89 45 f8          	mov    QWORD PTR [rbp-0x8],rax
   14000d78f:	48 8b 45 f0          	mov    rax,QWORD PTR [rbp-0x10]
   14000d793:	48 89 c1             	mov    rcx,rax
   14000d796:	e8 a5 00 00 00       	call   14000d840 <_ZNKSt8__detail10_Hash_nodeISt4pairIKPv12ucrt_wrapperELb0EE7_M_nextEv>
   14000d79b:	48 89 45 f0          	mov    QWORD PTR [rbp-0x10],rax
   14000d79f:	e9 79 ff ff ff       	jmp    14000d71d <_ZNKSt10_HashtableIPvSt4pairIKS0_12ucrt_wrapperESaIS4_ENSt8__detail10_Select1stESt8equal_toIS0_ESt4hashIS0_ENS6_18_Mod_range_hashingENS6_20_Default_ranged_hashENS6_20_Prime_rehash_policyENS6_17_Hashtable_traitsILb0ELb0ELb1EEEE19_M_find_before_nodeEyRS2_y+0x4d>
   14000d7a4:	90                   	nop
   14000d7a5:	b8 00 00 00 00       	mov    eax,0x0
   14000d7aa:	48 83 c4 30          	add    rsp,0x30
   14000d7ae:	5d                   	pop    rbp
   14000d7af:	c3                   	ret

000000014000d7b0 <_ZNKSt10_HashtableIPvSt4pairIKS0_12ucrt_wrapperESaIS4_ENSt8__detail10_Select1stESt8equal_toIS0_ESt4hashIS0_ENS6_18_Mod_range_hashingENS6_20_Default_ranged_hashENS6_20_Prime_rehash_policyENS6_17_Hashtable_traitsILb0ELb0ELb1EEEE21_M_uses_single_bucketEPPNS6_15_Hash_node_baseE>:
   14000d7b0:	55                   	push   rbp
   14000d7b1:	48 89 e5             	mov    rbp,rsp
   14000d7b4:	48 89 4d 10          	mov    QWORD PTR [rbp+0x10],rcx
   14000d7b8:	48 89 55 18          	mov    QWORD PTR [rbp+0x18],rdx
   14000d7bc:	48 8b 45 10          	mov    rax,QWORD PTR [rbp+0x10]
   14000d7c0:	48 83 c0 30          	add    rax,0x30
   14000d7c4:	48 39 45 18          	cmp    QWORD PTR [rbp+0x18],rax
   14000d7c8:	0f 94 c0             	sete   al
   14000d7cb:	0f b6 c0             	movzx  eax,al
   14000d7ce:	85 c0                	test   eax,eax
   14000d7d0:	0f 95 c0             	setne  al
   14000d7d3:	5d                   	pop    rbp
   14000d7d4:	c3                   	ret
   14000d7d5:	90                   	nop
   14000d7d6:	90                   	nop
   14000d7d7:	90                   	nop
   14000d7d8:	90                   	nop
   14000d7d9:	90                   	nop
   14000d7da:	90                   	nop
   14000d7db:	90                   	nop
   14000d7dc:	90                   	nop
   14000d7dd:	90                   	nop
   14000d7de:	90                   	nop
   14000d7df:	90                   	nop

000000014000d7e0 <_ZNKSt10_HashtableIPvSt4pairIKS0_12ucrt_wrapperESaIS4_ENSt8__detail10_Select1stESt8equal_toIS0_ESt4hashIS0_ENS6_18_Mod_range_hashingENS6_20_Default_ranged_hashENS6_20_Prime_rehash_policyENS6_17_Hashtable_traitsILb0ELb0ELb1EEEE4sizeEv>:
   14000d7e0:	55                   	push   rbp
   14000d7e1:	48 89 e5             	mov    rbp,rsp
   14000d7e4:	48 89 4d 10          	mov    QWORD PTR [rbp+0x10],rcx
   14000d7e8:	48 8b 45 10          	mov    rax,QWORD PTR [rbp+0x10]
   14000d7ec:	48 8b 40 18          	mov    rax,QWORD PTR [rax+0x18]
   14000d7f0:	5d                   	pop    rbp
   14000d7f1:	c3                   	ret
   14000d7f2:	90                   	nop
   14000d7f3:	90                   	nop
   14000d7f4:	90                   	nop
   14000d7f5:	90                   	nop
   14000d7f6:	90                   	nop
   14000d7f7:	90                   	nop
   14000d7f8:	90                   	nop
   14000d7f9:	90                   	nop
   14000d7fa:	90                   	nop
   14000d7fb:	90                   	nop
   14000d7fc:	90                   	nop
   14000d7fd:	90                   	nop
   14000d7fe:	90                   	nop
   14000d7ff:	90                   	nop

000000014000d800 <_ZNKSt10_HashtableIPvSt4pairIKS0_12ucrt_wrapperESaIS4_ENSt8__detail10_Select1stESt8equal_toIS0_ESt4hashIS0_ENS6_18_Mod_range_hashingENS6_20_Default_ranged_hashENS6_20_Prime_rehash_policyENS6_17_Hashtable_traitsILb0ELb0ELb1EEEE8_M_beginEv>:
   14000d800:	55                   	push   rbp
   14000d801:	48 89 e5             	mov    rbp,rsp
   14000d804:	48 89 4d 10          	mov    QWORD PTR [rbp+0x10],rcx
   14000d808:	48 8b 45 10          	mov    rax,QWORD PTR [rbp+0x10]
   14000d80c:	48 8b 40 10          	mov    rax,QWORD PTR [rax+0x10]
   14000d810:	5d                   	pop    rbp
   14000d811:	c3                   	ret
   14000d812:	90                   	nop
   14000d813:	90                   	nop
   14000d814:	90                   	nop
   14000d815:	90                   	nop
   14000d816:	90                   	nop
   14000d817:	90                   	nop
   14000d818:	90                   	nop
   14000d819:	90                   	nop
   14000d81a:	90                   	nop
   14000d81b:	90                   	nop
   14000d81c:	90                   	nop
   14000d81d:	90                   	nop
   14000d81e:	90                   	nop
   14000d81f:	90                   	nop

000000014000d820 <_ZNKSt4hashIPvEclES0_>:
   14000d820:	55                   	push   rbp
   14000d821:	48 89 e5             	mov    rbp,rsp
   14000d824:	48 89 4d 10          	mov    QWORD PTR [rbp+0x10],rcx
   14000d828:	48 89 55 18          	mov    QWORD PTR [rbp+0x18],rdx
   14000d82c:	48 8b 45 18          	mov    rax,QWORD PTR [rbp+0x18]
   14000d830:	5d                   	pop    rbp
   14000d831:	c3                   	ret
   14000d832:	90                   	nop
   14000d833:	90                   	nop
   14000d834:	90                   	nop
   14000d835:	90                   	nop
   14000d836:	90                   	nop
   14000d837:	90                   	nop
   14000d838:	90                   	nop
   14000d839:	90                   	nop
   14000d83a:	90                   	nop
   14000d83b:	90                   	nop
   14000d83c:	90                   	nop
   14000d83d:	90                   	nop
   14000d83e:	90                   	nop
   14000d83f:	90                   	nop

000000014000d840 <_ZNKSt8__detail10_Hash_nodeISt4pairIKPv12ucrt_wrapperELb0EE7_M_nextEv>:
   14000d840:	55                   	push   rbp
   14000d841:	48 89 e5             	mov    rbp,rsp
   14000d844:	48 89 4d 10          	mov    QWORD PTR [rbp+0x10],rcx
   14000d848:	48 8b 45 10          	mov    rax,QWORD PTR [rbp+0x10]
   14000d84c:	48 8b 00             	mov    rax,QWORD PTR [rax]
   14000d84f:	5d                   	pop    rbp
   14000d850:	c3                   	ret
   14000d851:	90                   	nop
   14000d852:	90                   	nop
   14000d853:	90                   	nop
   14000d854:	90                   	nop
   14000d855:	90                   	nop
   14000d856:	90                   	nop
   14000d857:	90                   	nop
   14000d858:	90                   	nop
   14000d859:	90                   	nop
   14000d85a:	90                   	nop
   14000d85b:	90                   	nop
   14000d85c:	90                   	nop
   14000d85d:	90                   	nop
   14000d85e:	90                   	nop
   14000d85f:	90                   	nop

000000014000d860 <_ZNKSt8__detail10_Select1stclIRKSt4pairIKPv12ucrt_wrapperEEEONS0_10__1st_typeIT_E4typeEOSA_>:
   14000d860:	55                   	push   rbp
   14000d861:	48 89 e5             	mov    rbp,rsp
   14000d864:	48 83 ec 20          	sub    rsp,0x20
   14000d868:	48 89 4d 10          	mov    QWORD PTR [rbp+0x10],rcx
   14000d86c:	48 89 55 18          	mov    QWORD PTR [rbp+0x18],rdx
   14000d870:	48 8b 45 18          	mov    rax,QWORD PTR [rbp+0x18]
   14000d874:	48 89 c1             	mov    rcx,rax
   14000d877:	e8 54 19 00 00       	call   14000f1d0 <_ZSt7forwardIRKSt4pairIKPv12ucrt_wrapperEEOT_RNSt16remove_referenceIS7_E4typeE>
   14000d87c:	48 83 c4 20          	add    rsp,0x20
   14000d880:	5d                   	pop    rbp
   14000d881:	c3                   	ret
   14000d882:	90                   	nop
   14000d883:	90                   	nop
   14000d884:	90                   	nop
   14000d885:	90                   	nop
   14000d886:	90                   	nop
   14000d887:	90                   	nop
   14000d888:	90                   	nop
   14000d889:	90                   	nop
   14000d88a:	90                   	nop
   14000d88b:	90                   	nop
   14000d88c:	90                   	nop
   14000d88d:	90                   	nop
   14000d88e:	90                   	nop
   14000d88f:	90                   	nop

000000014000d890 <_ZNKSt8__detail14_Node_iteratorISt4pairIKPv12ucrt_wrapperELb0ELb0EEptEv>:
   14000d890:	55                   	push   rbp
   14000d891:	48 89 e5             	mov    rbp,rsp
   14000d894:	48 83 ec 30          	sub    rsp,0x30
   14000d898:	48 89 4d 10          	mov    QWORD PTR [rbp+0x10],rcx
   14000d89c:	48 8b 45 10          	mov    rax,QWORD PTR [rbp+0x10]
   14000d8a0:	48 8b 00             	mov    rax,QWORD PTR [rax]
   14000d8a3:	48 83 c0 08          	add    rax,0x8
   14000d8a7:	48 89 45 f8          	mov    QWORD PTR [rbp-0x8],rax
   14000d8ab:	48 8b 45 f8          	mov    rax,QWORD PTR [rbp-0x8]
   14000d8af:	48 89 c1             	mov    rcx,rax
   14000d8b2:	e8 d9 fc ff ff       	call   14000d590 <_ZN9__gnu_cxx16__aligned_bufferISt4pairIKPv12ucrt_wrapperEE6_M_ptrEv>
   14000d8b7:	90                   	nop
   14000d8b8:	48 83 c4 30          	add    rsp,0x30
   14000d8bc:	5d                   	pop    rbp
   14000d8bd:	c3                   	ret
   14000d8be:	90                   	nop
   14000d8bf:	90                   	nop

000000014000d8c0 <_ZNKSt8__detail15_Hash_code_baseIPvSt4pairIKS1_12ucrt_wrapperENS_10_Select1stESt4hashIS1_ENS_18_Mod_range_hashingENS_20_Default_ranged_hashELb0EE12_M_hash_codeERS3_>:
   14000d8c0:	55                   	push   rbp
   14000d8c1:	48 89 e5             	mov    rbp,rsp
   14000d8c4:	48 83 ec 20          	sub    rsp,0x20
   14000d8c8:	48 89 4d 10          	mov    QWORD PTR [rbp+0x10],rcx
   14000d8cc:	48 89 55 18          	mov    QWORD PTR [rbp+0x18],rdx
   14000d8d0:	48 8b 45 10          	mov    rax,QWORD PTR [rbp+0x10]
   14000d8d4:	48 89 c1             	mov    rcx,rax
   14000d8d7:	e8 f4 00 00 00       	call   14000d9d0 <_ZNKSt8__detail15_Hash_code_baseIPvSt4pairIKS1_12ucrt_wrapperENS_10_Select1stESt4hashIS1_ENS_18_Mod_range_hashingENS_20_Default_ranged_hashELb0EE7_M_hashEv>
   14000d8dc:	48 89 c1             	mov    rcx,rax
   14000d8df:	48 8b 45 18          	mov    rax,QWORD PTR [rbp+0x18]
   14000d8e3:	48 8b 00             	mov    rax,QWORD PTR [rax]
   14000d8e6:	48 89 c2             	mov    rdx,rax
   14000d8e9:	e8 32 ff ff ff       	call   14000d820 <_ZNKSt4hashIPvEclES0_>
   14000d8ee:	48 83 c4 20          	add    rsp,0x20
   14000d8f2:	5d                   	pop    rbp
   14000d8f3:	c3                   	ret
   14000d8f4:	90                   	nop
   14000d8f5:	90                   	nop
   14000d8f6:	90                   	nop
   14000d8f7:	90                   	nop
   14000d8f8:	90                   	nop
   14000d8f9:	90                   	nop
   14000d8fa:	90                   	nop
   14000d8fb:	90                   	nop
   14000d8fc:	90                   	nop
   14000d8fd:	90                   	nop
   14000d8fe:	90                   	nop
   14000d8ff:	90                   	nop

000000014000d900 <_ZNKSt8__detail15_Hash_code_baseIPvSt4pairIKS1_12ucrt_wrapperENS_10_Select1stESt4hashIS1_ENS_18_Mod_range_hashingENS_20_Default_ranged_hashELb0EE13_M_store_codeERNS_21_Hash_node_code_cacheILb0EEEy>:
   14000d900:	55                   	push   rbp
   14000d901:	48 89 e5             	mov    rbp,rsp
   14000d904:	48 89 4d 10          	mov    QWORD PTR [rbp+0x10],rcx
   14000d908:	48 89 55 18          	mov    QWORD PTR [rbp+0x18],rdx
   14000d90c:	4c 89 45 20          	mov    QWORD PTR [rbp+0x20],r8
   14000d910:	90                   	nop
   14000d911:	5d                   	pop    rbp
   14000d912:	c3                   	ret
   14000d913:	90                   	nop
   14000d914:	90                   	nop
   14000d915:	90                   	nop
   14000d916:	90                   	nop
   14000d917:	90                   	nop
   14000d918:	90                   	nop
   14000d919:	90                   	nop
   14000d91a:	90                   	nop
   14000d91b:	90                   	nop
   14000d91c:	90                   	nop
   14000d91d:	90                   	nop
   14000d91e:	90                   	nop
   14000d91f:	90                   	nop

000000014000d920 <_ZNKSt8__detail15_Hash_code_baseIPvSt4pairIKS1_12ucrt_wrapperENS_10_Select1stESt4hashIS1_ENS_18_Mod_range_hashingENS_20_Default_ranged_hashELb0EE15_M_bucket_indexERKNS_16_Hash_node_valueIS5_Lb0EEEy>:
   14000d920:	55                   	push   rbp
   14000d921:	48 89 e5             	mov    rbp,rsp
   14000d924:	48 83 ec 40          	sub    rsp,0x40
   14000d928:	48 89 4d 10          	mov    QWORD PTR [rbp+0x10],rcx
   14000d92c:	48 89 55 18          	mov    QWORD PTR [rbp+0x18],rdx
   14000d930:	4c 89 45 20          	mov    QWORD PTR [rbp+0x20],r8
   14000d934:	48 8b 45 18          	mov    rax,QWORD PTR [rbp+0x18]
   14000d938:	48 89 45 f8          	mov    QWORD PTR [rbp-0x8],rax
   14000d93c:	48 8b 45 f8          	mov    rax,QWORD PTR [rbp-0x8]
   14000d940:	48 89 45 f0          	mov    QWORD PTR [rbp-0x10],rax
   14000d944:	48 8b 45 f0          	mov    rax,QWORD PTR [rbp-0x10]
   14000d948:	48 89 c1             	mov    rcx,rax
   14000d94b:	e8 70 fc ff ff       	call   14000d5c0 <_ZNK9__gnu_cxx16__aligned_bufferISt4pairIKPv12ucrt_wrapperEE6_M_ptrEv>
   14000d950:	48 89 c2             	mov    rdx,rax
   14000d953:	90                   	nop
   14000d954:	90                   	nop
   14000d955:	48 8d 45 ef          	lea    rax,[rbp-0x11]
   14000d959:	48 89 c1             	mov    rcx,rax
   14000d95c:	e8 ff fe ff ff       	call   14000d860 <_ZNKSt8__detail10_Select1stclIRKSt4pairIKPv12ucrt_wrapperEEEONS0_10__1st_typeIT_E4typeEOSA_>
   14000d961:	48 89 c2             	mov    rdx,rax
   14000d964:	48 8b 45 10          	mov    rax,QWORD PTR [rbp+0x10]
   14000d968:	48 89 c1             	mov    rcx,rax
   14000d96b:	e8 50 ff ff ff       	call   14000d8c0 <_ZNKSt8__detail15_Hash_code_baseIPvSt4pairIKS1_12ucrt_wrapperENS_10_Select1stESt4hashIS1_ENS_18_Mod_range_hashingENS_20_Default_ranged_hashELb0EE12_M_hash_codeERS3_>
   14000d970:	48 89 c2             	mov    rdx,rax
   14000d973:	48 8b 4d 20          	mov    rcx,QWORD PTR [rbp+0x20]
   14000d977:	48 8d 45 ee          	lea    rax,[rbp-0x12]
   14000d97b:	49 89 c8             	mov    r8,rcx
   14000d97e:	48 89 c1             	mov    rcx,rax
   14000d981:	e8 5a 01 00 00       	call   14000dae0 <_ZNKSt8__detail18_Mod_range_hashingclEyy>
   14000d986:	48 83 c4 40          	add    rsp,0x40
   14000d98a:	5d                   	pop    rbp
   14000d98b:	c3                   	ret
   14000d98c:	90                   	nop
   14000d98d:	90                   	nop
   14000d98e:	90                   	nop
   14000d98f:	90                   	nop

000000014000d990 <_ZNKSt8__detail15_Hash_code_baseIPvSt4pairIKS1_12ucrt_wrapperENS_10_Select1stESt4hashIS1_ENS_18_Mod_range_hashingENS_20_Default_ranged_hashELb0EE15_M_bucket_indexEyy>:
   14000d990:	55                   	push   rbp
   14000d991:	48 89 e5             	mov    rbp,rsp
   14000d994:	48 83 ec 30          	sub    rsp,0x30
   14000d998:	48 89 4d 10          	mov    QWORD PTR [rbp+0x10],rcx
   14000d99c:	48 89 55 18          	mov    QWORD PTR [rbp+0x18],rdx
   14000d9a0:	4c 89 45 20          	mov    QWORD PTR [rbp+0x20],r8
   14000d9a4:	48 8b 4d 20          	mov    rcx,QWORD PTR [rbp+0x20]
   14000d9a8:	48 8b 55 18          	mov    rdx,QWORD PTR [rbp+0x18]
   14000d9ac:	48 8d 45 ff          	lea    rax,[rbp-0x1]
   14000d9b0:	49 89 c8             	mov    r8,rcx
   14000d9b3:	48 89 c1             	mov    rcx,rax
   14000d9b6:	e8 25 01 00 00       	call   14000dae0 <_ZNKSt8__detail18_Mod_range_hashingclEyy>
   14000d9bb:	48 83 c4 30          	add    rsp,0x30
   14000d9bf:	5d                   	pop    rbp
   14000d9c0:	c3                   	ret
   14000d9c1:	90                   	nop
   14000d9c2:	90                   	nop
   14000d9c3:	90                   	nop
   14000d9c4:	90                   	nop
   14000d9c5:	90                   	nop
   14000d9c6:	90                   	nop
   14000d9c7:	90                   	nop
   14000d9c8:	90                   	nop
   14000d9c9:	90                   	nop
   14000d9ca:	90                   	nop
   14000d9cb:	90                   	nop
   14000d9cc:	90                   	nop
   14000d9cd:	90                   	nop
   14000d9ce:	90                   	nop
   14000d9cf:	90                   	nop

000000014000d9d0 <_ZNKSt8__detail15_Hash_code_baseIPvSt4pairIKS1_12ucrt_wrapperENS_10_Select1stESt4hashIS1_ENS_18_Mod_range_hashingENS_20_Default_ranged_hashELb0EE7_M_hashEv>:
   14000d9d0:	55                   	push   rbp
   14000d9d1:	48 89 e5             	mov    rbp,rsp
   14000d9d4:	48 83 ec 20          	sub    rsp,0x20
   14000d9d8:	48 89 4d 10          	mov    QWORD PTR [rbp+0x10],rcx
   14000d9dc:	48 8b 45 10          	mov    rax,QWORD PTR [rbp+0x10]
   14000d9e0:	48 89 c1             	mov    rcx,rax
   14000d9e3:	e8 58 01 00 00       	call   14000db40 <_ZNKSt8__detail21_Hashtable_ebo_helperILi1ESt4hashIPvELb1EE7_M_cgetEv>
   14000d9e8:	48 83 c4 20          	add    rsp,0x20
   14000d9ec:	5d                   	pop    rbp
   14000d9ed:	c3                   	ret
   14000d9ee:	90                   	nop
   14000d9ef:	90                   	nop

000000014000d9f0 <_ZNKSt8__detail15_Hashtable_baseIPvSt4pairIKS1_12ucrt_wrapperENS_10_Select1stESt8equal_toIS1_ESt4hashIS1_ENS_18_Mod_range_hashingENS_20_Default_ranged_hashENS_17_Hashtable_traitsILb0ELb0ELb1EEEE13_M_key_equalsERS3_RKNS_16_Hash_node_valueIS5_Lb0EEE>:
   14000d9f0:	55                   	push   rbp
   14000d9f1:	53                   	push   rbx
   14000d9f2:	48 83 ec 48          	sub    rsp,0x48
   14000d9f6:	48 8d 6c 24 40       	lea    rbp,[rsp+0x40]
   14000d9fb:	48 89 4d 20          	mov    QWORD PTR [rbp+0x20],rcx
   14000d9ff:	48 89 55 28          	mov    QWORD PTR [rbp+0x28],rdx
   14000da03:	4c 89 45 30          	mov    QWORD PTR [rbp+0x30],r8
   14000da07:	48 8b 45 20          	mov    rax,QWORD PTR [rbp+0x20]
   14000da0b:	48 89 c1             	mov    rcx,rax
   14000da0e:	e8 4d 00 00 00       	call   14000da60 <_ZNKSt8__detail15_Hashtable_baseIPvSt4pairIKS1_12ucrt_wrapperENS_10_Select1stESt8equal_toIS1_ESt4hashIS1_ENS_18_Mod_range_hashingENS_20_Default_ranged_hashENS_17_Hashtable_traitsILb0ELb0ELb1EEEE5_M_eqEv>
   14000da13:	48 89 c3             	mov    rbx,rax
   14000da16:	48 8b 45 30          	mov    rax,QWORD PTR [rbp+0x30]
   14000da1a:	48 89 45 f8          	mov    QWORD PTR [rbp-0x8],rax
   14000da1e:	48 8b 45 f8          	mov    rax,QWORD PTR [rbp-0x8]
   14000da22:	48 89 45 f0          	mov    QWORD PTR [rbp-0x10],rax
   14000da26:	48 8b 45 f0          	mov    rax,QWORD PTR [rbp-0x10]
   14000da2a:	48 89 c1             	mov    rcx,rax
   14000da2d:	e8 8e fb ff ff       	call   14000d5c0 <_ZNK9__gnu_cxx16__aligned_bufferISt4pairIKPv12ucrt_wrapperEE6_M_ptrEv>
   14000da32:	48 89 c2             	mov    rdx,rax
   14000da35:	90                   	nop
   14000da36:	90                   	nop
   14000da37:	48 8d 45 ef          	lea    rax,[rbp-0x11]
   14000da3b:	48 89 c1             	mov    rcx,rax
   14000da3e:	e8 1d fe ff ff       	call   14000d860 <_ZNKSt8__detail10_Select1stclIRKSt4pairIKPv12ucrt_wrapperEEEONS0_10__1st_typeIT_E4typeEOSA_>
   14000da43:	48 89 c2             	mov    rdx,rax
   14000da46:	48 8b 45 28          	mov    rax,QWORD PTR [rbp+0x28]
   14000da4a:	49 89 d0             	mov    r8,rdx
   14000da4d:	48 89 c2             	mov    rdx,rax
   14000da50:	48 89 d9             	mov    rcx,rbx
   14000da53:	e8 f8 00 00 00       	call   14000db50 <_ZNKSt8equal_toIPvEclERKS0_S3_>
   14000da58:	48 83 c4 48          	add    rsp,0x48
   14000da5c:	5b                   	pop    rbx
   14000da5d:	5d                   	pop    rbp
   14000da5e:	c3                   	ret
   14000da5f:	90                   	nop

000000014000da60 <_ZNKSt8__detail15_Hashtable_baseIPvSt4pairIKS1_12ucrt_wrapperENS_10_Select1stESt8equal_toIS1_ESt4hashIS1_ENS_18_Mod_range_hashingENS_20_Default_ranged_hashENS_17_Hashtable_traitsILb0ELb0ELb1EEEE5_M_eqEv>:
   14000da60:	55                   	push   rbp
   14000da61:	48 89 e5             	mov    rbp,rsp
   14000da64:	48 83 ec 20          	sub    rsp,0x20
   14000da68:	48 89 4d 10          	mov    QWORD PTR [rbp+0x10],rcx
   14000da6c:	48 8b 45 10          	mov    rax,QWORD PTR [rbp+0x10]
   14000da70:	48 89 c1             	mov    rcx,rax
   14000da73:	e8 b8 00 00 00       	call   14000db30 <_ZNKSt8__detail21_Hashtable_ebo_helperILi0ESt8equal_toIPvELb1EE7_M_cgetEv>
   14000da78:	48 83 c4 20          	add    rsp,0x20
   14000da7c:	5d                   	pop    rbp
   14000da7d:	c3                   	ret
   14000da7e:	90                   	nop
   14000da7f:	90                   	nop

000000014000da80 <_ZNKSt8__detail15_Hashtable_baseIPvSt4pairIKS1_12ucrt_wrapperENS_10_Select1stESt8equal_toIS1_ESt4hashIS1_ENS_18_Mod_range_hashingENS_20_Default_ranged_hashENS_17_Hashtable_traitsILb0ELb0ELb1EEEE9_M_equalsERS3_yRKNS_16_Hash_node_valueIS5_Lb0EEE>:
   14000da80:	55                   	push   rbp
   14000da81:	48 89 e5             	mov    rbp,rsp
   14000da84:	48 83 ec 20          	sub    rsp,0x20
   14000da88:	48 89 4d 10          	mov    QWORD PTR [rbp+0x10],rcx
   14000da8c:	48 89 55 18          	mov    QWORD PTR [rbp+0x18],rdx
   14000da90:	4c 89 45 20          	mov    QWORD PTR [rbp+0x20],r8
   14000da94:	4c 89 4d 28          	mov    QWORD PTR [rbp+0x28],r9
   14000da98:	48 8b 55 28          	mov    rdx,QWORD PTR [rbp+0x28]
   14000da9c:	48 8b 45 20          	mov    rax,QWORD PTR [rbp+0x20]
   14000daa0:	48 89 c1             	mov    rcx,rax
   14000daa3:	e8 48 0e 00 00       	call   14000e8f0 <_ZNSt8__detail15_Hashtable_baseIPvSt4pairIKS1_12ucrt_wrapperENS_10_Select1stESt8equal_toIS1_ESt4hashIS1_ENS_18_Mod_range_hashingENS_20_Default_ranged_hashENS_17_Hashtable_traitsILb0ELb0ELb1EEEE9_S_equalsEyRKNS_21_Hash_node_code_cacheILb0EEE>
   14000daa8:	84 c0                	test   al,al
   14000daaa:	74 22                	je     14000dace <_ZNKSt8__detail15_Hashtable_baseIPvSt4pairIKS1_12ucrt_wrapperENS_10_Select1stESt8equal_toIS1_ESt4hashIS1_ENS_18_Mod_range_hashingENS_20_Default_ranged_hashENS_17_Hashtable_traitsILb0ELb0ELb1EEEE9_M_equalsERS3_yRKNS_16_Hash_node_valueIS5_Lb0EEE+0x4e>
   14000daac:	48 8b 4d 28          	mov    rcx,QWORD PTR [rbp+0x28]
   14000dab0:	48 8b 55 18          	mov    rdx,QWORD PTR [rbp+0x18]
   14000dab4:	48 8b 45 10          	mov    rax,QWORD PTR [rbp+0x10]
   14000dab8:	49 89 c8             	mov    r8,rcx
   14000dabb:	48 89 c1             	mov    rcx,rax
   14000dabe:	e8 2d ff ff ff       	call   14000d9f0 <_ZNKSt8__detail15_Hashtable_baseIPvSt4pairIKS1_12ucrt_wrapperENS_10_Select1stESt8equal_toIS1_ESt4hashIS1_ENS_18_Mod_range_hashingENS_20_Default_ranged_hashENS_17_Hashtable_traitsILb0ELb0ELb1EEEE13_M_key_equalsERS3_RKNS_16_Hash_node_valueIS5_Lb0EEE>
   14000dac3:	84 c0                	test   al,al
   14000dac5:	74 07                	je     14000dace <_ZNKSt8__detail15_Hashtable_baseIPvSt4pairIKS1_12ucrt_wrapperENS_10_Select1stESt8equal_toIS1_ESt4hashIS1_ENS_18_Mod_range_hashingENS_20_Default_ranged_hashENS_17_Hashtable_traitsILb0ELb0ELb1EEEE9_M_equalsERS3_yRKNS_16_Hash_node_valueIS5_Lb0EEE+0x4e>
   14000dac7:	b8 01 00 00 00       	mov    eax,0x1
   14000dacc:	eb 05                	jmp    14000dad3 <_ZNKSt8__detail15_Hashtable_baseIPvSt4pairIKS1_12ucrt_wrapperENS_10_Select1stESt8equal_toIS1_ESt4hashIS1_ENS_18_Mod_range_hashingENS_20_Default_ranged_hashENS_17_Hashtable_traitsILb0ELb0ELb1EEEE9_M_equalsERS3_yRKNS_16_Hash_node_valueIS5_Lb0EEE+0x53>
   14000dace:	b8 00 00 00 00       	mov    eax,0x0
   14000dad3:	48 83 c4 20          	add    rsp,0x20
   14000dad7:	5d                   	pop    rbp
   14000dad8:	c3                   	ret
   14000dad9:	90                   	nop
   14000dada:	90                   	nop
   14000dadb:	90                   	nop
   14000dadc:	90                   	nop
   14000dadd:	90                   	nop
   14000dade:	90                   	nop
   14000dadf:	90                   	nop

000000014000dae0 <_ZNKSt8__detail18_Mod_range_hashingclEyy>:
   14000dae0:	55                   	push   rbp
   14000dae1:	48 89 e5             	mov    rbp,rsp
   14000dae4:	48 89 4d 10          	mov    QWORD PTR [rbp+0x10],rcx
   14000dae8:	48 89 55 18          	mov    QWORD PTR [rbp+0x18],rdx
   14000daec:	4c 89 45 20          	mov    QWORD PTR [rbp+0x20],r8
   14000daf0:	48 8b 45 18          	mov    rax,QWORD PTR [rbp+0x18]
   14000daf4:	ba 00 00 00 00       	mov    edx,0x0
   14000daf9:	48 f7 75 20          	div    QWORD PTR [rbp+0x20]
   14000dafd:	48 89 d0             	mov    rax,rdx
   14000db00:	5d                   	pop    rbp
   14000db01:	c3                   	ret
   14000db02:	90                   	nop
   14000db03:	90                   	nop
   14000db04:	90                   	nop
   14000db05:	90                   	nop
   14000db06:	90                   	nop
   14000db07:	90                   	nop
   14000db08:	90                   	nop
   14000db09:	90                   	nop
   14000db0a:	90                   	nop
   14000db0b:	90                   	nop
   14000db0c:	90                   	nop
   14000db0d:	90                   	nop
   14000db0e:	90                   	nop
   14000db0f:	90                   	nop

000000014000db10 <_ZNKSt8__detail20_Prime_rehash_policy8_M_stateEv>:
   14000db10:	55                   	push   rbp
   14000db11:	48 89 e5             	mov    rbp,rsp
   14000db14:	48 89 4d 10          	mov    QWORD PTR [rbp+0x10],rcx
   14000db18:	48 8b 45 10          	mov    rax,QWORD PTR [rbp+0x10]
   14000db1c:	48 8b 40 08          	mov    rax,QWORD PTR [rax+0x8]
   14000db20:	5d                   	pop    rbp
   14000db21:	c3                   	ret
   14000db22:	90                   	nop
   14000db23:	90                   	nop
   14000db24:	90                   	nop
   14000db25:	90                   	nop
   14000db26:	90                   	nop
   14000db27:	90                   	nop
   14000db28:	90                   	nop
   14000db29:	90                   	nop
   14000db2a:	90                   	nop
   14000db2b:	90                   	nop
   14000db2c:	90                   	nop
   14000db2d:	90                   	nop
   14000db2e:	90                   	nop
   14000db2f:	90                   	nop

000000014000db30 <_ZNKSt8__detail21_Hashtable_ebo_helperILi0ESt8equal_toIPvELb1EE7_M_cgetEv>:
   14000db30:	55                   	push   rbp
   14000db31:	48 89 e5             	mov    rbp,rsp
   14000db34:	48 89 4d 10          	mov    QWORD PTR [rbp+0x10],rcx
   14000db38:	48 8b 45 10          	mov    rax,QWORD PTR [rbp+0x10]
   14000db3c:	5d                   	pop    rbp
   14000db3d:	c3                   	ret
   14000db3e:	90                   	nop
   14000db3f:	90                   	nop

000000014000db40 <_ZNKSt8__detail21_Hashtable_ebo_helperILi1ESt4hashIPvELb1EE7_M_cgetEv>:
   14000db40:	55                   	push   rbp
   14000db41:	48 89 e5             	mov    rbp,rsp
   14000db44:	48 89 4d 10          	mov    QWORD PTR [rbp+0x10],rcx
   14000db48:	48 8b 45 10          	mov    rax,QWORD PTR [rbp+0x10]
   14000db4c:	5d                   	pop    rbp
   14000db4d:	c3                   	ret
   14000db4e:	90                   	nop
   14000db4f:	90                   	nop

000000014000db50 <_ZNKSt8equal_toIPvEclERKS0_S3_>:
   14000db50:	55                   	push   rbp
   14000db51:	48 89 e5             	mov    rbp,rsp
   14000db54:	48 89 4d 10          	mov    QWORD PTR [rbp+0x10],rcx
   14000db58:	48 89 55 18          	mov    QWORD PTR [rbp+0x18],rdx
   14000db5c:	4c 89 45 20          	mov    QWORD PTR [rbp+0x20],r8
   14000db60:	48 8b 45 18          	mov    rax,QWORD PTR [rbp+0x18]
   14000db64:	48 8b 10             	mov    rdx,QWORD PTR [rax]
   14000db67:	48 8b 45 20          	mov    rax,QWORD PTR [rbp+0x20]
   14000db6b:	48 8b 00             	mov    rax,QWORD PTR [rax]
   14000db6e:	48 39 c2             	cmp    rdx,rax
   14000db71:	0f 94 c0             	sete   al
   14000db74:	5d                   	pop    rbp
   14000db75:	c3                   	ret
   14000db76:	90                   	nop
   14000db77:	90                   	nop
   14000db78:	90                   	nop
   14000db79:	90                   	nop
   14000db7a:	90                   	nop
   14000db7b:	90                   	nop
   14000db7c:	90                   	nop
   14000db7d:	90                   	nop
   14000db7e:	90                   	nop
   14000db7f:	90                   	nop

000000014000db80 <_ZNSt10_HashtableIPvSt4pairIKS0_12ucrt_wrapperESaIS4_ENSt8__detail10_Select1stESt8equal_toIS0_ESt4hashIS0_ENS6_18_Mod_range_hashingENS6_20_Default_ranged_hashENS6_20_Prime_rehash_policyENS6_17_Hashtable_traitsILb0ELb0ELb1EEEE12_Scoped_nodeC1IJRKSt21piecewise_construct_tSt5tupleIJRS2_EESN_IJEEEEEPNS6_16_Hashtable_allocISaINS6_10_Hash_nodeIS4_Lb0EEEEEEDpOT_>:
   14000db80:	55                   	push   rbp
   14000db81:	57                   	push   rdi
   14000db82:	56                   	push   rsi
   14000db83:	53                   	push   rbx
   14000db84:	48 83 ec 28          	sub    rsp,0x28
   14000db88:	48 8d 6c 24 20       	lea    rbp,[rsp+0x20]
   14000db8d:	48 89 4d 30          	mov    QWORD PTR [rbp+0x30],rcx
   14000db91:	48 89 55 38          	mov    QWORD PTR [rbp+0x38],rdx
   14000db95:	4c 89 45 40          	mov    QWORD PTR [rbp+0x40],r8
   14000db99:	4c 89 4d 48          	mov    QWORD PTR [rbp+0x48],r9
   14000db9d:	48 8b 45 30          	mov    rax,QWORD PTR [rbp+0x30]
   14000dba1:	48 8b 55 38          	mov    rdx,QWORD PTR [rbp+0x38]
   14000dba5:	48 89 10             	mov    QWORD PTR [rax],rdx
   14000dba8:	48 8b 5d 38          	mov    rbx,QWORD PTR [rbp+0x38]
   14000dbac:	48 8b 45 50          	mov    rax,QWORD PTR [rbp+0x50]
   14000dbb0:	48 89 c1             	mov    rcx,rax
   14000dbb3:	e8 28 16 00 00       	call   14000f1e0 <_ZSt7forwardISt5tupleIJEEEOT_RNSt16remove_referenceIS2_E4typeE>
   14000dbb8:	48 89 c7             	mov    rdi,rax
   14000dbbb:	48 8b 45 48          	mov    rax,QWORD PTR [rbp+0x48]
   14000dbbf:	48 89 c1             	mov    rcx,rax
   14000dbc2:	e8 29 16 00 00       	call   14000f1f0 <_ZSt7forwardISt5tupleIJRKPvEEEOT_RNSt16remove_referenceIS5_E4typeE>
   14000dbc7:	48 89 c6             	mov    rsi,rax
   14000dbca:	48 8b 45 40          	mov    rax,QWORD PTR [rbp+0x40]
   14000dbce:	48 89 c1             	mov    rcx,rax
   14000dbd1:	e8 ea 15 00 00       	call   14000f1c0 <_ZSt7forwardIRKSt21piecewise_construct_tEOT_RNSt16remove_referenceIS3_E4typeE>
   14000dbd6:	49 89 f9             	mov    r9,rdi
   14000dbd9:	49 89 f0             	mov    r8,rsi
   14000dbdc:	48 89 c2             	mov    rdx,rax
   14000dbdf:	48 89 d9             	mov    rcx,rbx
   14000dbe2:	e8 59 0d 00 00       	call   14000e940 <_ZNSt8__detail16_Hashtable_allocISaINS_10_Hash_nodeISt4pairIKPv12ucrt_wrapperELb0EEEEE16_M_allocate_nodeIJRKSt21piecewise_construct_tSt5tupleIJRS4_EESE_IJEEEEEPS7_DpOT_>
   14000dbe7:	48 8b 55 30          	mov    rdx,QWORD PTR [rbp+0x30]
   14000dbeb:	48 89 42 08          	mov    QWORD PTR [rdx+0x8],rax
   14000dbef:	90                   	nop
   14000dbf0:	48 83 c4 28          	add    rsp,0x28
   14000dbf4:	5b                   	pop    rbx
   14000dbf5:	5e                   	pop    rsi
   14000dbf6:	5f                   	pop    rdi
   14000dbf7:	5d                   	pop    rbp
   14000dbf8:	c3                   	ret
   14000dbf9:	90                   	nop
   14000dbfa:	90                   	nop
   14000dbfb:	90                   	nop
   14000dbfc:	90                   	nop
   14000dbfd:	90                   	nop
   14000dbfe:	90                   	nop
   14000dbff:	90                   	nop

000000014000dc00 <_ZNSt10_HashtableIPvSt4pairIKS0_12ucrt_wrapperESaIS4_ENSt8__detail10_Select1stESt8equal_toIS0_ESt4hashIS0_ENS6_18_Mod_range_hashingENS6_20_Default_ranged_hashENS6_20_Prime_rehash_policyENS6_17_Hashtable_traitsILb0ELb0ELb1EEEE12_Scoped_nodeD1Ev>:
   14000dc00:	55                   	push   rbp
   14000dc01:	48 89 e5             	mov    rbp,rsp
   14000dc04:	48 83 ec 20          	sub    rsp,0x20
   14000dc08:	48 89 4d 10          	mov    QWORD PTR [rbp+0x10],rcx
   14000dc0c:	48 8b 45 10          	mov    rax,QWORD PTR [rbp+0x10]
   14000dc10:	48 8b 40 08          	mov    rax,QWORD PTR [rax+0x8]
   14000dc14:	48 85 c0             	test   rax,rax
   14000dc17:	74 17                	je     14000dc30 <_ZNSt10_HashtableIPvSt4pairIKS0_12ucrt_wrapperESaIS4_ENSt8__detail10_Select1stESt8equal_toIS0_ESt4hashIS0_ENS6_18_Mod_range_hashingENS6_20_Default_ranged_hashENS6_20_Prime_rehash_policyENS6_17_Hashtable_traitsILb0ELb0ELb1EEEE12_Scoped_nodeD1Ev+0x30>
   14000dc19:	48 8b 45 10          	mov    rax,QWORD PTR [rbp+0x10]
   14000dc1d:	48 8b 00             	mov    rax,QWORD PTR [rax]
   14000dc20:	48 8b 55 10          	mov    rdx,QWORD PTR [rbp+0x10]
   14000dc24:	48 8b 52 08          	mov    rdx,QWORD PTR [rdx+0x8]
   14000dc28:	48 89 c1             	mov    rcx,rax
   14000dc2b:	e8 70 0f 00 00       	call   14000eba0 <_ZNSt8__detail16_Hashtable_allocISaINS_10_Hash_nodeISt4pairIKPv12ucrt_wrapperELb0EEEEE18_M_deallocate_nodeEPS7_>
   14000dc30:	90                   	nop
   14000dc31:	48 83 c4 20          	add    rsp,0x20
   14000dc35:	5d                   	pop    rbp
   14000dc36:	c3                   	ret
   14000dc37:	90                   	nop
   14000dc38:	90                   	nop
   14000dc39:	90                   	nop
   14000dc3a:	90                   	nop
   14000dc3b:	90                   	nop
   14000dc3c:	90                   	nop
   14000dc3d:	90                   	nop
   14000dc3e:	90                   	nop
   14000dc3f:	90                   	nop

000000014000dc40 <_ZNSt10_HashtableIPvSt4pairIKS0_12ucrt_wrapperESaIS4_ENSt8__detail10_Select1stESt8equal_toIS0_ESt4hashIS0_ENS6_18_Mod_range_hashingENS6_20_Default_ranged_hashENS6_20_Prime_rehash_policyENS6_17_Hashtable_traitsILb0ELb0ELb1EEEE13_M_rehash_auxEySt17integral_constantIbLb1EE>:
   14000dc40:	55                   	push   rbp
   14000dc41:	48 89 e5             	mov    rbp,rsp
   14000dc44:	48 83 ec 50          	sub    rsp,0x50
   14000dc48:	48 89 4d 10          	mov    QWORD PTR [rbp+0x10],rcx
   14000dc4c:	48 89 55 18          	mov    QWORD PTR [rbp+0x18],rdx
   14000dc50:	48 8b 55 18          	mov    rdx,QWORD PTR [rbp+0x18]
   14000dc54:	48 8b 45 10          	mov    rax,QWORD PTR [rbp+0x10]
   14000dc58:	48 89 c1             	mov    rcx,rax
   14000dc5b:	e8 60 01 00 00       	call   14000ddc0 <_ZNSt10_HashtableIPvSt4pairIKS0_12ucrt_wrapperESaIS4_ENSt8__detail10_Select1stESt8equal_toIS0_ESt4hashIS0_ENS6_18_Mod_range_hashingENS6_20_Default_ranged_hashENS6_20_Prime_rehash_policyENS6_17_Hashtable_traitsILb0ELb0ELb1EEEE19_M_allocate_bucketsEy>
   14000dc60:	48 89 45 e8          	mov    QWORD PTR [rbp-0x18],rax
   14000dc64:	48 8b 45 10          	mov    rax,QWORD PTR [rbp+0x10]
   14000dc68:	48 89 c1             	mov    rcx,rax
   14000dc6b:	e8 90 fb ff ff       	call   14000d800 <_ZNKSt10_HashtableIPvSt4pairIKS0_12ucrt_wrapperESaIS4_ENSt8__detail10_Select1stESt8equal_toIS0_ESt4hashIS0_ENS6_18_Mod_range_hashingENS6_20_Default_ranged_hashENS6_20_Prime_rehash_policyENS6_17_Hashtable_traitsILb0ELb0ELb1EEEE8_M_beginEv>
   14000dc70:	48 89 45 f8          	mov    QWORD PTR [rbp-0x8],rax
   14000dc74:	48 8b 45 10          	mov    rax,QWORD PTR [rbp+0x10]
   14000dc78:	48 c7 40 10 00 00 00 	mov    QWORD PTR [rax+0x10],0x0
   14000dc7f:	00 
   14000dc80:	48 c7 45 f0 00 00 00 	mov    QWORD PTR [rbp-0x10],0x0
   14000dc87:	00 
   14000dc88:	e9 f8 00 00 00       	jmp    14000dd85 <_ZNSt10_HashtableIPvSt4pairIKS0_12ucrt_wrapperESaIS4_ENSt8__detail10_Select1stESt8equal_toIS0_ESt4hashIS0_ENS6_18_Mod_range_hashingENS6_20_Default_ranged_hashENS6_20_Prime_rehash_policyENS6_17_Hashtable_traitsILb0ELb0ELb1EEEE13_M_rehash_auxEySt17integral_constantIbLb1EE+0x145>
   14000dc8d:	48 8b 45 f8          	mov    rax,QWORD PTR [rbp-0x8]
   14000dc91:	48 89 c1             	mov    rcx,rax
   14000dc94:	e8 a7 fb ff ff       	call   14000d840 <_ZNKSt8__detail10_Hash_nodeISt4pairIKPv12ucrt_wrapperELb0EE7_M_nextEv>
   14000dc99:	48 89 45 e0          	mov    QWORD PTR [rbp-0x20],rax
   14000dc9d:	48 8b 45 f8          	mov    rax,QWORD PTR [rbp-0x8]
   14000dca1:	48 8d 50 08          	lea    rdx,[rax+0x8]
   14000dca5:	48 8b 4d 18          	mov    rcx,QWORD PTR [rbp+0x18]
   14000dca9:	48 8b 45 10          	mov    rax,QWORD PTR [rbp+0x10]
   14000dcad:	49 89 c8             	mov    r8,rcx
   14000dcb0:	48 89 c1             	mov    rcx,rax
   14000dcb3:	e8 68 fc ff ff       	call   14000d920 <_ZNKSt8__detail15_Hash_code_baseIPvSt4pairIKS1_12ucrt_wrapperENS_10_Select1stESt4hashIS1_ENS_18_Mod_range_hashingENS_20_Default_ranged_hashELb0EE15_M_bucket_indexERKNS_16_Hash_node_valueIS5_Lb0EEEy>
   14000dcb8:	48 89 45 d8          	mov    QWORD PTR [rbp-0x28],rax
   14000dcbc:	48 8b 45 d8          	mov    rax,QWORD PTR [rbp-0x28]
   14000dcc0:	48 8d 14 c5 00 00 00 	lea    rdx,[rax*8+0x0]
   14000dcc7:	00 
   14000dcc8:	48 8b 45 e8          	mov    rax,QWORD PTR [rbp-0x18]
   14000dccc:	48 01 d0             	add    rax,rdx
   14000dccf:	48 8b 00             	mov    rax,QWORD PTR [rax]
   14000dcd2:	48 85 c0             	test   rax,rax
   14000dcd5:	75 69                	jne    14000dd40 <_ZNSt10_HashtableIPvSt4pairIKS0_12ucrt_wrapperESaIS4_ENSt8__detail10_Select1stESt8equal_toIS0_ESt4hashIS0_ENS6_18_Mod_range_hashingENS6_20_Default_ranged_hashENS6_20_Prime_rehash_policyENS6_17_Hashtable_traitsILb0ELb0ELb1EEEE13_M_rehash_auxEySt17integral_constantIbLb1EE+0x100>
   14000dcd7:	48 8b 45 10          	mov    rax,QWORD PTR [rbp+0x10]
   14000dcdb:	48 8b 50 10          	mov    rdx,QWORD PTR [rax+0x10]
   14000dcdf:	48 8b 45 f8          	mov    rax,QWORD PTR [rbp-0x8]
   14000dce3:	48 89 10             	mov    QWORD PTR [rax],rdx
   14000dce6:	48 8b 45 10          	mov    rax,QWORD PTR [rbp+0x10]
   14000dcea:	48 8b 55 f8          	mov    rdx,QWORD PTR [rbp-0x8]
   14000dcee:	48 89 50 10          	mov    QWORD PTR [rax+0x10],rdx
   14000dcf2:	48 8b 45 d8          	mov    rax,QWORD PTR [rbp-0x28]
   14000dcf6:	48 8d 14 c5 00 00 00 	lea    rdx,[rax*8+0x0]
   14000dcfd:	00 
   14000dcfe:	48 8b 45 e8          	mov    rax,QWORD PTR [rbp-0x18]
   14000dd02:	48 01 d0             	add    rax,rdx
   14000dd05:	48 8b 55 10          	mov    rdx,QWORD PTR [rbp+0x10]
   14000dd09:	48 83 c2 10          	add    rdx,0x10
   14000dd0d:	48 89 10             	mov    QWORD PTR [rax],rdx
   14000dd10:	48 8b 45 f8          	mov    rax,QWORD PTR [rbp-0x8]
   14000dd14:	48 8b 00             	mov    rax,QWORD PTR [rax]
   14000dd17:	48 85 c0             	test   rax,rax
   14000dd1a:	74 1a                	je     14000dd36 <_ZNSt10_HashtableIPvSt4pairIKS0_12ucrt_wrapperESaIS4_ENSt8__detail10_Select1stESt8equal_toIS0_ESt4hashIS0_ENS6_18_Mod_range_hashingENS6_20_Default_ranged_hashENS6_20_Prime_rehash_policyENS6_17_Hashtable_traitsILb0ELb0ELb1EEEE13_M_rehash_auxEySt17integral_constantIbLb1EE+0xf6>
   14000dd1c:	48 8b 45 f0          	mov    rax,QWORD PTR [rbp-0x10]
   14000dd20:	48 8d 14 c5 00 00 00 	lea    rdx,[rax*8+0x0]
   14000dd27:	00 
   14000dd28:	48 8b 45 e8          	mov    rax,QWORD PTR [rbp-0x18]
   14000dd2c:	48 01 c2             	add    rdx,rax
   14000dd2f:	48 8b 45 f8          	mov    rax,QWORD PTR [rbp-0x8]
   14000dd33:	48 89 02             	mov    QWORD PTR [rdx],rax
   14000dd36:	48 8b 45 d8          	mov    rax,QWORD PTR [rbp-0x28]
   14000dd3a:	48 89 45 f0          	mov    QWORD PTR [rbp-0x10],rax
   14000dd3e:	eb 3d                	jmp    14000dd7d <_ZNSt10_HashtableIPvSt4pairIKS0_12ucrt_wrapperESaIS4_ENSt8__detail10_Select1stESt8equal_toIS0_ESt4hashIS0_ENS6_18_Mod_range_hashingENS6_20_Default_ranged_hashENS6_20_Prime_rehash_policyENS6_17_Hashtable_traitsILb0ELb0ELb1EEEE13_M_rehash_auxEySt17integral_constantIbLb1EE+0x13d>
   14000dd40:	48 8b 45 d8          	mov    rax,QWORD PTR [rbp-0x28]
   14000dd44:	48 8d 14 c5 00 00 00 	lea    rdx,[rax*8+0x0]
   14000dd4b:	00 
   14000dd4c:	48 8b 45 e8          	mov    rax,QWORD PTR [rbp-0x18]
   14000dd50:	48 01 d0             	add    rax,rdx
   14000dd53:	48 8b 00             	mov    rax,QWORD PTR [rax]
   14000dd56:	48 8b 10             	mov    rdx,QWORD PTR [rax]
   14000dd59:	48 8b 45 f8          	mov    rax,QWORD PTR [rbp-0x8]
   14000dd5d:	48 89 10             	mov    QWORD PTR [rax],rdx
   14000dd60:	48 8b 45 d8          	mov    rax,QWORD PTR [rbp-0x28]
   14000dd64:	48 8d 14 c5 00 00 00 	lea    rdx,[rax*8+0x0]
   14000dd6b:	00 
   14000dd6c:	48 8b 45 e8          	mov    rax,QWORD PTR [rbp-0x18]
   14000dd70:	48 01 d0             	add    rax,rdx
   14000dd73:	48 8b 00             	mov    rax,QWORD PTR [rax]
   14000dd76:	48 8b 55 f8          	mov    rdx,QWORD PTR [rbp-0x8]
   14000dd7a:	48 89 10             	mov    QWORD PTR [rax],rdx
   14000dd7d:	48 8b 45 e0          	mov    rax,QWORD PTR [rbp-0x20]
   14000dd81:	48 89 45 f8          	mov    QWORD PTR [rbp-0x8],rax
   14000dd85:	48 83 7d f8 00       	cmp    QWORD PTR [rbp-0x8],0x0
   14000dd8a:	0f 85 fd fe ff ff    	jne    14000dc8d <_ZNSt10_HashtableIPvSt4pairIKS0_12ucrt_wrapperESaIS4_ENSt8__detail10_Select1stESt8equal_toIS0_ESt4hashIS0_ENS6_18_Mod_range_hashingENS6_20_Default_ranged_hashENS6_20_Prime_rehash_policyENS6_17_Hashtable_traitsILb0ELb0ELb1EEEE13_M_rehash_auxEySt17integral_constantIbLb1EE+0x4d>
   14000dd90:	48 8b 45 10          	mov    rax,QWORD PTR [rbp+0x10]
   14000dd94:	48 89 c1             	mov    rcx,rax
   14000dd97:	e8 c4 00 00 00       	call   14000de60 <_ZNSt10_HashtableIPvSt4pairIKS0_12ucrt_wrapperESaIS4_ENSt8__detail10_Select1stESt8equal_toIS0_ESt4hashIS0_ENS6_18_Mod_range_hashingENS6_20_Default_ranged_hashENS6_20_Prime_rehash_policyENS6_17_Hashtable_traitsILb0ELb0ELb1EEEE21_M_deallocate_bucketsEv>
   14000dd9c:	48 8b 45 10          	mov    rax,QWORD PTR [rbp+0x10]
   14000dda0:	48 8b 55 18          	mov    rdx,QWORD PTR [rbp+0x18]
   14000dda4:	48 89 50 08          	mov    QWORD PTR [rax+0x8],rdx
   14000dda8:	48 8b 45 10          	mov    rax,QWORD PTR [rbp+0x10]
   14000ddac:	48 8b 55 e8          	mov    rdx,QWORD PTR [rbp-0x18]
   14000ddb0:	48 89 10             	mov    QWORD PTR [rax],rdx
   14000ddb3:	90                   	nop
   14000ddb4:	48 83 c4 50          	add    rsp,0x50
   14000ddb8:	5d                   	pop    rbp
   14000ddb9:	c3                   	ret
   14000ddba:	90                   	nop
   14000ddbb:	90                   	nop
   14000ddbc:	90                   	nop
   14000ddbd:	90                   	nop
   14000ddbe:	90                   	nop
   14000ddbf:	90                   	nop

000000014000ddc0 <_ZNSt10_HashtableIPvSt4pairIKS0_12ucrt_wrapperESaIS4_ENSt8__detail10_Select1stESt8equal_toIS0_ESt4hashIS0_ENS6_18_Mod_range_hashingENS6_20_Default_ranged_hashENS6_20_Prime_rehash_policyENS6_17_Hashtable_traitsILb0ELb0ELb1EEEE19_M_allocate_bucketsEy>:
   14000ddc0:	55                   	push   rbp
   14000ddc1:	48 89 e5             	mov    rbp,rsp
   14000ddc4:	48 83 ec 20          	sub    rsp,0x20
   14000ddc8:	48 89 4d 10          	mov    QWORD PTR [rbp+0x10],rcx
   14000ddcc:	48 89 55 18          	mov    QWORD PTR [rbp+0x18],rdx
   14000ddd0:	48 83 7d 18 01       	cmp    QWORD PTR [rbp+0x18],0x1
   14000ddd5:	0f 94 c0             	sete   al
   14000ddd8:	0f b6 c0             	movzx  eax,al
   14000dddb:	85 c0                	test   eax,eax
   14000dddd:	74 16                	je     14000ddf5 <_ZNSt10_HashtableIPvSt4pairIKS0_12ucrt_wrapperESaIS4_ENSt8__detail10_Select1stESt8equal_toIS0_ESt4hashIS0_ENS6_18_Mod_range_hashingENS6_20_Default_ranged_hashENS6_20_Prime_rehash_policyENS6_17_Hashtable_traitsILb0ELb0ELb1EEEE19_M_allocate_bucketsEy+0x35>
   14000dddf:	48 8b 45 10          	mov    rax,QWORD PTR [rbp+0x10]
   14000dde3:	48 c7 40 30 00 00 00 	mov    QWORD PTR [rax+0x30],0x0
   14000ddea:	00 
   14000ddeb:	48 8b 45 10          	mov    rax,QWORD PTR [rbp+0x10]
   14000ddef:	48 83 c0 30          	add    rax,0x30
   14000ddf3:	eb 11                	jmp    14000de06 <_ZNSt10_HashtableIPvSt4pairIKS0_12ucrt_wrapperESaIS4_ENSt8__detail10_Select1stESt8equal_toIS0_ESt4hashIS0_ENS6_18_Mod_range_hashingENS6_20_Default_ranged_hashENS6_20_Prime_rehash_policyENS6_17_Hashtable_traitsILb0ELb0ELb1EEEE19_M_allocate_bucketsEy+0x46>
   14000ddf5:	48 8b 55 18          	mov    rdx,QWORD PTR [rbp+0x18]
   14000ddf9:	48 8b 45 10          	mov    rax,QWORD PTR [rbp+0x10]
   14000ddfd:	48 89 c1             	mov    rcx,rax
   14000de00:	e8 0b 0e 00 00       	call   14000ec10 <_ZNSt8__detail16_Hashtable_allocISaINS_10_Hash_nodeISt4pairIKPv12ucrt_wrapperELb0EEEEE19_M_allocate_bucketsEy>
   14000de05:	90                   	nop
   14000de06:	48 83 c4 20          	add    rsp,0x20
   14000de0a:	5d                   	pop    rbp
   14000de0b:	c3                   	ret
   14000de0c:	90                   	nop
   14000de0d:	90                   	nop
   14000de0e:	90                   	nop
   14000de0f:	90                   	nop

000000014000de10 <_ZNSt10_HashtableIPvSt4pairIKS0_12ucrt_wrapperESaIS4_ENSt8__detail10_Select1stESt8equal_toIS0_ESt4hashIS0_ENS6_18_Mod_range_hashingENS6_20_Default_ranged_hashENS6_20_Prime_rehash_policyENS6_17_Hashtable_traitsILb0ELb0ELb1EEEE21_M_deallocate_bucketsEPPNS6_15_Hash_node_baseEy>:
   14000de10:	55                   	push   rbp
   14000de11:	48 89 e5             	mov    rbp,rsp
   14000de14:	48 83 ec 20          	sub    rsp,0x20
   14000de18:	48 89 4d 10          	mov    QWORD PTR [rbp+0x10],rcx
   14000de1c:	48 89 55 18          	mov    QWORD PTR [rbp+0x18],rdx
   14000de20:	4c 89 45 20          	mov    QWORD PTR [rbp+0x20],r8
   14000de24:	48 8b 55 18          	mov    rdx,QWORD PTR [rbp+0x18]
   14000de28:	48 8b 45 10          	mov    rax,QWORD PTR [rbp+0x10]
   14000de2c:	48 89 c1             	mov    rcx,rax
   14000de2f:	e8 7c f9 ff ff       	call   14000d7b0 <_ZNKSt10_HashtableIPvSt4pairIKS0_12ucrt_wrapperESaIS4_ENSt8__detail10_Select1stESt8equal_toIS0_ESt4hashIS0_ENS6_18_Mod_range_hashingENS6_20_Default_ranged_hashENS6_20_Prime_rehash_policyENS6_17_Hashtable_traitsILb0ELb0ELb1EEEE21_M_uses_single_bucketEPPNS6_15_Hash_node_baseE>
   14000de34:	84 c0                	test   al,al
   14000de36:	75 19                	jne    14000de51 <_ZNSt10_HashtableIPvSt4pairIKS0_12ucrt_wrapperESaIS4_ENSt8__detail10_Select1stESt8equal_toIS0_ESt4hashIS0_ENS6_18_Mod_range_hashingENS6_20_Default_ranged_hashENS6_20_Prime_rehash_policyENS6_17_Hashtable_traitsILb0ELb0ELb1EEEE21_M_deallocate_bucketsEPPNS6_15_Hash_node_baseEy+0x41>
   14000de38:	48 8b 4d 20          	mov    rcx,QWORD PTR [rbp+0x20]
   14000de3c:	48 8b 55 18          	mov    rdx,QWORD PTR [rbp+0x18]
   14000de40:	48 8b 45 10          	mov    rax,QWORD PTR [rbp+0x10]
   14000de44:	49 89 c8             	mov    r8,rcx
   14000de47:	48 89 c1             	mov    rcx,rax
   14000de4a:	e8 d1 0e 00 00       	call   14000ed20 <_ZNSt8__detail16_Hashtable_allocISaINS_10_Hash_nodeISt4pairIKPv12ucrt_wrapperELb0EEEEE21_M_deallocate_bucketsEPPNS_15_Hash_node_baseEy>
   14000de4f:	eb 01                	jmp    14000de52 <_ZNSt10_HashtableIPvSt4pairIKS0_12ucrt_wrapperESaIS4_ENSt8__detail10_Select1stESt8equal_toIS0_ESt4hashIS0_ENS6_18_Mod_range_hashingENS6_20_Default_ranged_hashENS6_20_Prime_rehash_policyENS6_17_Hashtable_traitsILb0ELb0ELb1EEEE21_M_deallocate_bucketsEPPNS6_15_Hash_node_baseEy+0x42>
   14000de51:	90                   	nop
   14000de52:	48 83 c4 20          	add    rsp,0x20
   14000de56:	5d                   	pop    rbp
   14000de57:	c3                   	ret
   14000de58:	90                   	nop
   14000de59:	90                   	nop
   14000de5a:	90                   	nop
   14000de5b:	90                   	nop
   14000de5c:	90                   	nop
   14000de5d:	90                   	nop
   14000de5e:	90                   	nop
   14000de5f:	90                   	nop

000000014000de60 <_ZNSt10_HashtableIPvSt4pairIKS0_12ucrt_wrapperESaIS4_ENSt8__detail10_Select1stESt8equal_toIS0_ESt4hashIS0_ENS6_18_Mod_range_hashingENS6_20_Default_ranged_hashENS6_20_Prime_rehash_policyENS6_17_Hashtable_traitsILb0ELb0ELb1EEEE21_M_deallocate_bucketsEv>:
   14000de60:	55                   	push   rbp
   14000de61:	48 89 e5             	mov    rbp,rsp
   14000de64:	48 83 ec 20          	sub    rsp,0x20
   14000de68:	48 89 4d 10          	mov    QWORD PTR [rbp+0x10],rcx
   14000de6c:	48 8b 45 10          	mov    rax,QWORD PTR [rbp+0x10]
   14000de70:	48 8b 48 08          	mov    rcx,QWORD PTR [rax+0x8]
   14000de74:	48 8b 45 10          	mov    rax,QWORD PTR [rbp+0x10]
   14000de78:	48 8b 10             	mov    rdx,QWORD PTR [rax]
   14000de7b:	48 8b 45 10          	mov    rax,QWORD PTR [rbp+0x10]
   14000de7f:	49 89 c8             	mov    r8,rcx
   14000de82:	48 89 c1             	mov    rcx,rax
   14000de85:	e8 86 ff ff ff       	call   14000de10 <_ZNSt10_HashtableIPvSt4pairIKS0_12ucrt_wrapperESaIS4_ENSt8__detail10_Select1stESt8equal_toIS0_ESt4hashIS0_ENS6_18_Mod_range_hashingENS6_20_Default_ranged_hashENS6_20_Prime_rehash_policyENS6_17_Hashtable_traitsILb0ELb0ELb1EEEE21_M_deallocate_bucketsEPPNS6_15_Hash_node_baseEy>
   14000de8a:	90                   	nop
   14000de8b:	48 83 c4 20          	add    rsp,0x20
   14000de8f:	5d                   	pop    rbp
   14000de90:	c3                   	ret
   14000de91:	90                   	nop
   14000de92:	90                   	nop
   14000de93:	90                   	nop
   14000de94:	90                   	nop
   14000de95:	90                   	nop
   14000de96:	90                   	nop
   14000de97:	90                   	nop
   14000de98:	90                   	nop
   14000de99:	90                   	nop
   14000de9a:	90                   	nop
   14000de9b:	90                   	nop
   14000de9c:	90                   	nop
   14000de9d:	90                   	nop
   14000de9e:	90                   	nop
   14000de9f:	90                   	nop

000000014000dea0 <_ZNSt10_HashtableIPvSt4pairIKS0_12ucrt_wrapperESaIS4_ENSt8__detail10_Select1stESt8equal_toIS0_ESt4hashIS0_ENS6_18_Mod_range_hashingENS6_20_Default_ranged_hashENS6_20_Prime_rehash_policyENS6_17_Hashtable_traitsILb0ELb0ELb1EEEE21_M_insert_unique_nodeEyyPNS6_10_Hash_nodeIS4_Lb0EEEy>:
   14000dea0:	55                   	push   rbp
   14000dea1:	48 89 e5             	mov    rbp,rsp
   14000dea4:	48 83 ec 60          	sub    rsp,0x60
   14000dea8:	48 89 4d 10          	mov    QWORD PTR [rbp+0x10],rcx
   14000deac:	48 89 55 18          	mov    QWORD PTR [rbp+0x18],rdx
   14000deb0:	4c 89 45 20          	mov    QWORD PTR [rbp+0x20],r8
   14000deb4:	4c 89 4d 28          	mov    QWORD PTR [rbp+0x28],r9
   14000deb8:	48 8b 45 10          	mov    rax,QWORD PTR [rbp+0x10]
   14000debc:	48 83 c0 20          	add    rax,0x20
   14000dec0:	48 89 c1             	mov    rcx,rax
   14000dec3:	e8 48 fc ff ff       	call   14000db10 <_ZNKSt8__detail20_Prime_rehash_policy8_M_stateEv>
   14000dec8:	48 89 45 e8          	mov    QWORD PTR [rbp-0x18],rax
   14000decc:	48 8d 45 e8          	lea    rax,[rbp-0x18]
   14000ded0:	48 89 45 f8          	mov    QWORD PTR [rbp-0x8],rax
   14000ded4:	48 8b 45 10          	mov    rax,QWORD PTR [rbp+0x10]
   14000ded8:	48 8d 50 20          	lea    rdx,[rax+0x20]
   14000dedc:	48 8b 45 10          	mov    rax,QWORD PTR [rbp+0x10]
   14000dee0:	4c 8b 48 18          	mov    r9,QWORD PTR [rax+0x18]
   14000dee4:	48 8b 45 10          	mov    rax,QWORD PTR [rbp+0x10]
   14000dee8:	4c 8b 40 08          	mov    r8,QWORD PTR [rax+0x8]
   14000deec:	48 8d 45 d0          	lea    rax,[rbp-0x30]
   14000def0:	48 8b 4d 30          	mov    rcx,QWORD PTR [rbp+0x30]
   14000def4:	48 89 4c 24 20       	mov    QWORD PTR [rsp+0x20],rcx
   14000def9:	48 89 c1             	mov    rcx,rax
   14000defc:	e8 f7 e1 ff ff       	call   14000c0f8 <_ZNKSt8__detail20_Prime_rehash_policy14_M_need_rehashEyyy>
   14000df01:	0f b6 45 d0          	movzx  eax,BYTE PTR [rbp-0x30]
   14000df05:	84 c0                	test   al,al
   14000df07:	74 2b                	je     14000df34 <_ZNSt10_HashtableIPvSt4pairIKS0_12ucrt_wrapperESaIS4_ENSt8__detail10_Select1stESt8equal_toIS0_ESt4hashIS0_ENS6_18_Mod_range_hashingENS6_20_Default_ranged_hashENS6_20_Prime_rehash_policyENS6_17_Hashtable_traitsILb0ELb0ELb1EEEE21_M_insert_unique_nodeEyyPNS6_10_Hash_nodeIS4_Lb0EEEy+0x94>
   14000df09:	48 8b 55 d8          	mov    rdx,QWORD PTR [rbp-0x28]
   14000df0d:	48 8b 4d f8          	mov    rcx,QWORD PTR [rbp-0x8]
   14000df11:	48 8b 45 10          	mov    rax,QWORD PTR [rbp+0x10]
   14000df15:	49 89 c8             	mov    r8,rcx
   14000df18:	48 89 c1             	mov    rcx,rax
   14000df1b:	e8 80 03 00 00       	call   14000e2a0 <_ZNSt10_HashtableIPvSt4pairIKS0_12ucrt_wrapperESaIS4_ENSt8__detail10_Select1stESt8equal_toIS0_ESt4hashIS0_ENS6_18_Mod_range_hashingENS6_20_Default_ranged_hashENS6_20_Prime_rehash_policyENS6_17_Hashtable_traitsILb0ELb0ELb1EEEE9_M_rehashEyRKy>
   14000df20:	48 8b 55 20          	mov    rdx,QWORD PTR [rbp+0x20]
   14000df24:	48 8b 45 10          	mov    rax,QWORD PTR [rbp+0x10]
   14000df28:	48 89 c1             	mov    rcx,rax
   14000df2b:	e8 60 f7 ff ff       	call   14000d690 <_ZNKSt10_HashtableIPvSt4pairIKS0_12ucrt_wrapperESaIS4_ENSt8__detail10_Select1stESt8equal_toIS0_ESt4hashIS0_ENS6_18_Mod_range_hashingENS6_20_Default_ranged_hashENS6_20_Prime_rehash_policyENS6_17_Hashtable_traitsILb0ELb0ELb1EEEE15_M_bucket_indexEy>
   14000df30:	48 89 45 18          	mov    QWORD PTR [rbp+0x18],rax
   14000df34:	48 8b 45 28          	mov    rax,QWORD PTR [rbp+0x28]
   14000df38:	48 8d 50 08          	lea    rdx,[rax+0x8]
   14000df3c:	48 8b 4d 20          	mov    rcx,QWORD PTR [rbp+0x20]
   14000df40:	48 8b 45 10          	mov    rax,QWORD PTR [rbp+0x10]
   14000df44:	49 89 c8             	mov    r8,rcx
   14000df47:	48 89 c1             	mov    rcx,rax
   14000df4a:	e8 b1 f9 ff ff       	call   14000d900 <_ZNKSt8__detail15_Hash_code_baseIPvSt4pairIKS1_12ucrt_wrapperENS_10_Select1stESt4hashIS1_ENS_18_Mod_range_hashingENS_20_Default_ranged_hashELb0EE13_M_store_codeERNS_21_Hash_node_code_cacheILb0EEEy>
   14000df4f:	48 8b 4d 28          	mov    rcx,QWORD PTR [rbp+0x28]
   14000df53:	48 8b 55 18          	mov    rdx,QWORD PTR [rbp+0x18]
   14000df57:	48 8b 45 10          	mov    rax,QWORD PTR [rbp+0x10]
   14000df5b:	49 89 c8             	mov    r8,rcx
   14000df5e:	48 89 c1             	mov    rcx,rax
   14000df61:	e8 3a 00 00 00       	call   14000dfa0 <_ZNSt10_HashtableIPvSt4pairIKS0_12ucrt_wrapperESaIS4_ENSt8__detail10_Select1stESt8equal_toIS0_ESt4hashIS0_ENS6_18_Mod_range_hashingENS6_20_Default_ranged_hashENS6_20_Prime_rehash_policyENS6_17_Hashtable_traitsILb0ELb0ELb1EEEE22_M_insert_bucket_beginEyPNS6_10_Hash_nodeIS4_Lb0EEE>
   14000df66:	48 8b 45 10          	mov    rax,QWORD PTR [rbp+0x10]
   14000df6a:	48 8b 40 18          	mov    rax,QWORD PTR [rax+0x18]
   14000df6e:	48 8d 50 01          	lea    rdx,[rax+0x1]
   14000df72:	48 8b 45 10          	mov    rax,QWORD PTR [rbp+0x10]
   14000df76:	48 89 50 18          	mov    QWORD PTR [rax+0x18],rdx
   14000df7a:	48 8b 55 28          	mov    rdx,QWORD PTR [rbp+0x28]
   14000df7e:	48 8d 45 f0          	lea    rax,[rbp-0x10]
   14000df82:	48 89 c1             	mov    rcx,rax
   14000df85:	e8 a6 08 00 00       	call   14000e830 <_ZNSt8__detail14_Node_iteratorISt4pairIKPv12ucrt_wrapperELb0ELb0EEC1EPNS_10_Hash_nodeIS5_Lb0EEE>
   14000df8a:	48 8b 45 f0          	mov    rax,QWORD PTR [rbp-0x10]
   14000df8e:	48 83 c4 60          	add    rsp,0x60
   14000df92:	5d                   	pop    rbp
   14000df93:	c3                   	ret
   14000df94:	90                   	nop
   14000df95:	90                   	nop
   14000df96:	90                   	nop
   14000df97:	90                   	nop
   14000df98:	90                   	nop
   14000df99:	90                   	nop
   14000df9a:	90                   	nop
   14000df9b:	90                   	nop
   14000df9c:	90                   	nop
   14000df9d:	90                   	nop
   14000df9e:	90                   	nop
   14000df9f:	90                   	nop

000000014000dfa0 <_ZNSt10_HashtableIPvSt4pairIKS0_12ucrt_wrapperESaIS4_ENSt8__detail10_Select1stESt8equal_toIS0_ESt4hashIS0_ENS6_18_Mod_range_hashingENS6_20_Default_ranged_hashENS6_20_Prime_rehash_policyENS6_17_Hashtable_traitsILb0ELb0ELb1EEEE22_M_insert_bucket_beginEyPNS6_10_Hash_nodeIS4_Lb0EEE>:
   14000dfa0:	55                   	push   rbp
   14000dfa1:	56                   	push   rsi
   14000dfa2:	53                   	push   rbx
   14000dfa3:	48 83 ec 20          	sub    rsp,0x20
   14000dfa7:	48 8d 6c 24 20       	lea    rbp,[rsp+0x20]
   14000dfac:	48 89 4d 20          	mov    QWORD PTR [rbp+0x20],rcx
   14000dfb0:	48 89 55 28          	mov    QWORD PTR [rbp+0x28],rdx
   14000dfb4:	4c 89 45 30          	mov    QWORD PTR [rbp+0x30],r8
   14000dfb8:	48 8b 45 20          	mov    rax,QWORD PTR [rbp+0x20]
   14000dfbc:	48 8b 00             	mov    rax,QWORD PTR [rax]
   14000dfbf:	48 8b 55 28          	mov    rdx,QWORD PTR [rbp+0x28]
   14000dfc3:	48 c1 e2 03          	shl    rdx,0x3
   14000dfc7:	48 01 d0             	add    rax,rdx
   14000dfca:	48 8b 00             	mov    rax,QWORD PTR [rax]
   14000dfcd:	48 85 c0             	test   rax,rax
   14000dfd0:	74 3d                	je     14000e00f <_ZNSt10_HashtableIPvSt4pairIKS0_12ucrt_wrapperESaIS4_ENSt8__detail10_Select1stESt8equal_toIS0_ESt4hashIS0_ENS6_18_Mod_range_hashingENS6_20_Default_ranged_hashENS6_20_Prime_rehash_policyENS6_17_Hashtable_traitsILb0ELb0ELb1EEEE22_M_insert_bucket_beginEyPNS6_10_Hash_nodeIS4_Lb0EEE+0x6f>
   14000dfd2:	48 8b 45 20          	mov    rax,QWORD PTR [rbp+0x20]
   14000dfd6:	48 8b 00             	mov    rax,QWORD PTR [rax]
   14000dfd9:	48 8b 55 28          	mov    rdx,QWORD PTR [rbp+0x28]
   14000dfdd:	48 c1 e2 03          	shl    rdx,0x3
   14000dfe1:	48 01 d0             	add    rax,rdx
   14000dfe4:	48 8b 00             	mov    rax,QWORD PTR [rax]
   14000dfe7:	48 8b 10             	mov    rdx,QWORD PTR [rax]
   14000dfea:	48 8b 45 30          	mov    rax,QWORD PTR [rbp+0x30]
   14000dfee:	48 89 10             	mov    QWORD PTR [rax],rdx
   14000dff1:	48 8b 45 20          	mov    rax,QWORD PTR [rbp+0x20]
   14000dff5:	48 8b 00             	mov    rax,QWORD PTR [rax]
   14000dff8:	48 8b 55 28          	mov    rdx,QWORD PTR [rbp+0x28]
   14000dffc:	48 c1 e2 03          	shl    rdx,0x3
   14000e000:	48 01 d0             	add    rax,rdx
   14000e003:	48 8b 00             	mov    rax,QWORD PTR [rax]
   14000e006:	48 8b 55 30          	mov    rdx,QWORD PTR [rbp+0x30]
   14000e00a:	48 89 10             	mov    QWORD PTR [rax],rdx
   14000e00d:	eb 75                	jmp    14000e084 <_ZNSt10_HashtableIPvSt4pairIKS0_12ucrt_wrapperESaIS4_ENSt8__detail10_Select1stESt8equal_toIS0_ESt4hashIS0_ENS6_18_Mod_range_hashingENS6_20_Default_ranged_hashENS6_20_Prime_rehash_policyENS6_17_Hashtable_traitsILb0ELb0ELb1EEEE22_M_insert_bucket_beginEyPNS6_10_Hash_nodeIS4_Lb0EEE+0xe4>
   14000e00f:	48 8b 45 20          	mov    rax,QWORD PTR [rbp+0x20]
   14000e013:	48 8b 50 10          	mov    rdx,QWORD PTR [rax+0x10]
   14000e017:	48 8b 45 30          	mov    rax,QWORD PTR [rbp+0x30]
   14000e01b:	48 89 10             	mov    QWORD PTR [rax],rdx
   14000e01e:	48 8b 45 20          	mov    rax,QWORD PTR [rbp+0x20]
   14000e022:	48 8b 55 30          	mov    rdx,QWORD PTR [rbp+0x30]
   14000e026:	48 89 50 10          	mov    QWORD PTR [rax+0x10],rdx
   14000e02a:	48 8b 45 30          	mov    rax,QWORD PTR [rbp+0x30]
   14000e02e:	48 8b 00             	mov    rax,QWORD PTR [rax]
   14000e031:	48 85 c0             	test   rax,rax
   14000e034:	74 31                	je     14000e067 <_ZNSt10_HashtableIPvSt4pairIKS0_12ucrt_wrapperESaIS4_ENSt8__detail10_Select1stESt8equal_toIS0_ESt4hashIS0_ENS6_18_Mod_range_hashingENS6_20_Default_ranged_hashENS6_20_Prime_rehash_policyENS6_17_Hashtable_traitsILb0ELb0ELb1EEEE22_M_insert_bucket_beginEyPNS6_10_Hash_nodeIS4_Lb0EEE+0xc7>
   14000e036:	48 8b 5d 30          	mov    rbx,QWORD PTR [rbp+0x30]
   14000e03a:	48 8b 45 20          	mov    rax,QWORD PTR [rbp+0x20]
   14000e03e:	48 8b 30             	mov    rsi,QWORD PTR [rax]
   14000e041:	48 8b 45 30          	mov    rax,QWORD PTR [rbp+0x30]
   14000e045:	48 89 c1             	mov    rcx,rax
   14000e048:	e8 f3 f7 ff ff       	call   14000d840 <_ZNKSt8__detail10_Hash_nodeISt4pairIKPv12ucrt_wrapperELb0EE7_M_nextEv>
   14000e04d:	48 8d 50 08          	lea    rdx,[rax+0x8]
   14000e051:	48 8b 45 20          	mov    rax,QWORD PTR [rbp+0x20]
   14000e055:	48 89 c1             	mov    rcx,rax
   14000e058:	e8 f3 f5 ff ff       	call   14000d650 <_ZNKSt10_HashtableIPvSt4pairIKS0_12ucrt_wrapperESaIS4_ENSt8__detail10_Select1stESt8equal_toIS0_ESt4hashIS0_ENS6_18_Mod_range_hashingENS6_20_Default_ranged_hashENS6_20_Prime_rehash_policyENS6_17_Hashtable_traitsILb0ELb0ELb1EEEE15_M_bucket_indexERKNS6_16_Hash_node_valueIS4_Lb0EEE>
   14000e05d:	48 c1 e0 03          	shl    rax,0x3
   14000e061:	48 01 f0             	add    rax,rsi
   14000e064:	48 89 18             	mov    QWORD PTR [rax],rbx
   14000e067:	48 8b 45 20          	mov    rax,QWORD PTR [rbp+0x20]
   14000e06b:	48 8b 00             	mov    rax,QWORD PTR [rax]
   14000e06e:	48 8b 55 28          	mov    rdx,QWORD PTR [rbp+0x28]
   14000e072:	48 c1 e2 03          	shl    rdx,0x3
   14000e076:	48 01 d0             	add    rax,rdx
   14000e079:	48 8b 55 20          	mov    rdx,QWORD PTR [rbp+0x20]
   14000e07d:	48 83 c2 10          	add    rdx,0x10
   14000e081:	48 89 10             	mov    QWORD PTR [rax],rdx
   14000e084:	90                   	nop
   14000e085:	48 83 c4 20          	add    rsp,0x20
   14000e089:	5b                   	pop    rbx
   14000e08a:	5e                   	pop    rsi
   14000e08b:	5d                   	pop    rbp
   14000e08c:	c3                   	ret
   14000e08d:	90                   	nop
   14000e08e:	90                   	nop
   14000e08f:	90                   	nop

000000014000e090 <_ZNSt10_HashtableIPvSt4pairIKS0_12ucrt_wrapperESaIS4_ENSt8__detail10_Select1stESt8equal_toIS0_ESt4hashIS0_ENS6_18_Mod_range_hashingENS6_20_Default_ranged_hashENS6_20_Prime_rehash_policyENS6_17_Hashtable_traitsILb0ELb0ELb1EEEE22__small_size_thresholdEv>:
   14000e090:	55                   	push   rbp
   14000e091:	48 89 e5             	mov    rbp,rsp
   14000e094:	48 83 ec 20          	sub    rsp,0x20
   14000e098:	e8 d3 0e 00 00       	call   14000ef70 <_ZNSt8__detail22_Hashtable_hash_traitsISt4hashIPvEE22__small_size_thresholdEv>
   14000e09d:	48 83 c4 20          	add    rsp,0x20
   14000e0a1:	5d                   	pop    rbp
   14000e0a2:	c3                   	ret
   14000e0a3:	90                   	nop
   14000e0a4:	90                   	nop
   14000e0a5:	90                   	nop
   14000e0a6:	90                   	nop
   14000e0a7:	90                   	nop
   14000e0a8:	90                   	nop
   14000e0a9:	90                   	nop
   14000e0aa:	90                   	nop
   14000e0ab:	90                   	nop
   14000e0ac:	90                   	nop
   14000e0ad:	90                   	nop
   14000e0ae:	90                   	nop
   14000e0af:	90                   	nop

000000014000e0b0 <_ZNSt10_HashtableIPvSt4pairIKS0_12ucrt_wrapperESaIS4_ENSt8__detail10_Select1stESt8equal_toIS0_ESt4hashIS0_ENS6_18_Mod_range_hashingENS6_20_Default_ranged_hashENS6_20_Prime_rehash_policyENS6_17_Hashtable_traitsILb0ELb0ELb1EEEE3endEv>:
   14000e0b0:	55                   	push   rbp
   14000e0b1:	48 89 e5             	mov    rbp,rsp
   14000e0b4:	48 83 ec 30          	sub    rsp,0x30
   14000e0b8:	48 89 4d 10          	mov    QWORD PTR [rbp+0x10],rcx
   14000e0bc:	48 8d 45 f8          	lea    rax,[rbp-0x8]
   14000e0c0:	ba 00 00 00 00       	mov    edx,0x0
   14000e0c5:	48 89 c1             	mov    rcx,rax
   14000e0c8:	e8 63 07 00 00       	call   14000e830 <_ZNSt8__detail14_Node_iteratorISt4pairIKPv12ucrt_wrapperELb0ELb0EEC1EPNS_10_Hash_nodeIS5_Lb0EEE>
   14000e0cd:	48 8b 45 f8          	mov    rax,QWORD PTR [rbp-0x8]
   14000e0d1:	48 83 c4 30          	add    rsp,0x30
   14000e0d5:	5d                   	pop    rbp
   14000e0d6:	c3                   	ret
   14000e0d7:	90                   	nop
   14000e0d8:	90                   	nop
   14000e0d9:	90                   	nop
   14000e0da:	90                   	nop
   14000e0db:	90                   	nop
   14000e0dc:	90                   	nop
   14000e0dd:	90                   	nop
   14000e0de:	90                   	nop
   14000e0df:	90                   	nop

000000014000e0e0 <_ZNSt10_HashtableIPvSt4pairIKS0_12ucrt_wrapperESaIS4_ENSt8__detail10_Select1stESt8equal_toIS0_ESt4hashIS0_ENS6_18_Mod_range_hashingENS6_20_Default_ranged_hashENS6_20_Prime_rehash_policyENS6_17_Hashtable_traitsILb0ELb0ELb1EEEE4findERS2_>:
   14000e0e0:	55                   	push   rbp
   14000e0e1:	53                   	push   rbx
   14000e0e2:	48 83 ec 58          	sub    rsp,0x58
   14000e0e6:	48 8d 6c 24 50       	lea    rbp,[rsp+0x50]
   14000e0eb:	48 89 4d 20          	mov    QWORD PTR [rbp+0x20],rcx
   14000e0ef:	48 89 55 28          	mov    QWORD PTR [rbp+0x28],rdx
   14000e0f3:	48 8b 45 20          	mov    rax,QWORD PTR [rbp+0x20]
   14000e0f7:	48 89 c1             	mov    rcx,rax
   14000e0fa:	e8 e1 f6 ff ff       	call   14000d7e0 <_ZNKSt10_HashtableIPvSt4pairIKS0_12ucrt_wrapperESaIS4_ENSt8__detail10_Select1stESt8equal_toIS0_ESt4hashIS0_ENS6_18_Mod_range_hashingENS6_20_Default_ranged_hashENS6_20_Prime_rehash_policyENS6_17_Hashtable_traitsILb0ELb0ELb1EEEE4sizeEv>
   14000e0ff:	48 89 c3             	mov    rbx,rax
   14000e102:	e8 89 ff ff ff       	call   14000e090 <_ZNSt10_HashtableIPvSt4pairIKS0_12ucrt_wrapperESaIS4_ENSt8__detail10_Select1stESt8equal_toIS0_ESt4hashIS0_ENS6_18_Mod_range_hashingENS6_20_Default_ranged_hashENS6_20_Prime_rehash_policyENS6_17_Hashtable_traitsILb0ELb0ELb1EEEE22__small_size_thresholdEv>
   14000e107:	48 39 d8             	cmp    rax,rbx
   14000e10a:	0f 93 c0             	setae  al
   14000e10d:	84 c0                	test   al,al
   14000e10f:	74 78                	je     14000e189 <_ZNSt10_HashtableIPvSt4pairIKS0_12ucrt_wrapperESaIS4_ENSt8__detail10_Select1stESt8equal_toIS0_ESt4hashIS0_ENS6_18_Mod_range_hashingENS6_20_Default_ranged_hashENS6_20_Prime_rehash_policyENS6_17_Hashtable_traitsILb0ELb0ELb1EEEE4findERS2_+0xa9>
   14000e111:	48 8b 45 20          	mov    rax,QWORD PTR [rbp+0x20]
   14000e115:	48 89 c1             	mov    rcx,rax
   14000e118:	e8 d3 00 00 00       	call   14000e1f0 <_ZNSt10_HashtableIPvSt4pairIKS0_12ucrt_wrapperESaIS4_ENSt8__detail10_Select1stESt8equal_toIS0_ESt4hashIS0_ENS6_18_Mod_range_hashingENS6_20_Default_ranged_hashENS6_20_Prime_rehash_policyENS6_17_Hashtable_traitsILb0ELb0ELb1EEEE5beginEv>
   14000e11d:	48 89 45 d8          	mov    QWORD PTR [rbp-0x28],rax
   14000e121:	eb 34                	jmp    14000e157 <_ZNSt10_HashtableIPvSt4pairIKS0_12ucrt_wrapperESaIS4_ENSt8__detail10_Select1stESt8equal_toIS0_ESt4hashIS0_ENS6_18_Mod_range_hashingENS6_20_Default_ranged_hashENS6_20_Prime_rehash_policyENS6_17_Hashtable_traitsILb0ELb0ELb1EEEE4findERS2_+0x77>
   14000e123:	48 8b 45 d8          	mov    rax,QWORD PTR [rbp-0x28]
   14000e127:	48 8d 48 08          	lea    rcx,[rax+0x8]
   14000e12b:	48 8b 55 28          	mov    rdx,QWORD PTR [rbp+0x28]
   14000e12f:	48 8b 45 20          	mov    rax,QWORD PTR [rbp+0x20]
   14000e133:	49 89 c8             	mov    r8,rcx
   14000e136:	48 89 c1             	mov    rcx,rax
   14000e139:	e8 b2 f8 ff ff       	call   14000d9f0 <_ZNKSt8__detail15_Hashtable_baseIPvSt4pairIKS1_12ucrt_wrapperENS_10_Select1stESt8equal_toIS1_ESt4hashIS1_ENS_18_Mod_range_hashingENS_20_Default_ranged_hashENS_17_Hashtable_traitsILb0ELb0ELb1EEEE13_M_key_equalsERS3_RKNS_16_Hash_node_valueIS5_Lb0EEE>
   14000e13e:	84 c0                	test   al,al
   14000e140:	74 09                	je     14000e14b <_ZNSt10_HashtableIPvSt4pairIKS0_12ucrt_wrapperESaIS4_ENSt8__detail10_Select1stESt8equal_toIS0_ESt4hashIS0_ENS6_18_Mod_range_hashingENS6_20_Default_ranged_hashENS6_20_Prime_rehash_policyENS6_17_Hashtable_traitsILb0ELb0ELb1EEEE4findERS2_+0x6b>
   14000e142:	48 8b 45 d8          	mov    rax,QWORD PTR [rbp-0x28]
   14000e146:	e9 97 00 00 00       	jmp    14000e1e2 <_ZNSt10_HashtableIPvSt4pairIKS0_12ucrt_wrapperESaIS4_ENSt8__detail10_Select1stESt8equal_toIS0_ESt4hashIS0_ENS6_18_Mod_range_hashingENS6_20_Default_ranged_hashENS6_20_Prime_rehash_policyENS6_17_Hashtable_traitsILb0ELb0ELb1EEEE4findERS2_+0x102>
   14000e14b:	48 8d 45 d8          	lea    rax,[rbp-0x28]
   14000e14f:	48 89 c1             	mov    rcx,rax
   14000e152:	e8 09 07 00 00       	call   14000e860 <_ZNSt8__detail14_Node_iteratorISt4pairIKPv12ucrt_wrapperELb0ELb0EEppEv>
   14000e157:	48 8b 45 20          	mov    rax,QWORD PTR [rbp+0x20]
   14000e15b:	48 89 c1             	mov    rcx,rax
   14000e15e:	e8 4d ff ff ff       	call   14000e0b0 <_ZNSt10_HashtableIPvSt4pairIKS0_12ucrt_wrapperESaIS4_ENSt8__detail10_Select1stESt8equal_toIS0_ESt4hashIS0_ENS6_18_Mod_range_hashingENS6_20_Default_ranged_hashENS6_20_Prime_rehash_policyENS6_17_Hashtable_traitsILb0ELb0ELb1EEEE3endEv>
   14000e163:	48 89 45 e0          	mov    QWORD PTR [rbp-0x20],rax
   14000e167:	48 8d 55 e0          	lea    rdx,[rbp-0x20]
   14000e16b:	48 8d 45 d8          	lea    rax,[rbp-0x28]
   14000e16f:	48 89 c1             	mov    rcx,rax
   14000e172:	e8 89 0f 00 00       	call   14000f100 <_ZNSt8__detailneERKNS_19_Node_iterator_baseISt4pairIKPv12ucrt_wrapperELb0EEES8_>
   14000e177:	84 c0                	test   al,al
   14000e179:	75 a8                	jne    14000e123 <_ZNSt10_HashtableIPvSt4pairIKS0_12ucrt_wrapperESaIS4_ENSt8__detail10_Select1stESt8equal_toIS0_ESt4hashIS0_ENS6_18_Mod_range_hashingENS6_20_Default_ranged_hashENS6_20_Prime_rehash_policyENS6_17_Hashtable_traitsILb0ELb0ELb1EEEE4findERS2_+0x43>
   14000e17b:	48 8b 45 20          	mov    rax,QWORD PTR [rbp+0x20]
   14000e17f:	48 89 c1             	mov    rcx,rax
   14000e182:	e8 29 ff ff ff       	call   14000e0b0 <_ZNSt10_HashtableIPvSt4pairIKS0_12ucrt_wrapperESaIS4_ENSt8__detail10_Select1stESt8equal_toIS0_ESt4hashIS0_ENS6_18_Mod_range_hashingENS6_20_Default_ranged_hashENS6_20_Prime_rehash_policyENS6_17_Hashtable_traitsILb0ELb0ELb1EEEE3endEv>
   14000e187:	eb 59                	jmp    14000e1e2 <_ZNSt10_HashtableIPvSt4pairIKS0_12ucrt_wrapperESaIS4_ENSt8__detail10_Select1stESt8equal_toIS0_ESt4hashIS0_ENS6_18_Mod_range_hashingENS6_20_Default_ranged_hashENS6_20_Prime_rehash_policyENS6_17_Hashtable_traitsILb0ELb0ELb1EEEE4findERS2_+0x102>
   14000e189:	48 8b 55 28          	mov    rdx,QWORD PTR [rbp+0x28]
   14000e18d:	48 8b 45 20          	mov    rax,QWORD PTR [rbp+0x20]
   14000e191:	48 89 c1             	mov    rcx,rax
   14000e194:	e8 27 f7 ff ff       	call   14000d8c0 <_ZNKSt8__detail15_Hash_code_baseIPvSt4pairIKS1_12ucrt_wrapperENS_10_Select1stESt4hashIS1_ENS_18_Mod_range_hashingENS_20_Default_ranged_hashELb0EE12_M_hash_codeERS3_>
   14000e199:	48 89 45 f8          	mov    QWORD PTR [rbp-0x8],rax
   14000e19d:	48 8b 55 f8          	mov    rdx,QWORD PTR [rbp-0x8]
   14000e1a1:	48 8b 45 20          	mov    rax,QWORD PTR [rbp+0x20]
   14000e1a5:	48 89 c1             	mov    rcx,rax
   14000e1a8:	e8 e3 f4 ff ff       	call   14000d690 <_ZNKSt10_HashtableIPvSt4pairIKS0_12ucrt_wrapperESaIS4_ENSt8__detail10_Select1stESt8equal_toIS0_ESt4hashIS0_ENS6_18_Mod_range_hashingENS6_20_Default_ranged_hashENS6_20_Prime_rehash_policyENS6_17_Hashtable_traitsILb0ELb0ELb1EEEE15_M_bucket_indexEy>
   14000e1ad:	48 89 45 f0          	mov    QWORD PTR [rbp-0x10],rax
   14000e1b1:	4c 8b 45 f8          	mov    r8,QWORD PTR [rbp-0x8]
   14000e1b5:	48 8b 4d 28          	mov    rcx,QWORD PTR [rbp+0x28]
   14000e1b9:	48 8b 55 f0          	mov    rdx,QWORD PTR [rbp-0x10]
   14000e1bd:	48 8b 45 20          	mov    rax,QWORD PTR [rbp+0x20]
   14000e1c1:	4d 89 c1             	mov    r9,r8
   14000e1c4:	49 89 c8             	mov    r8,rcx
   14000e1c7:	48 89 c1             	mov    rcx,rax
   14000e1ca:	e8 21 f4 ff ff       	call   14000d5f0 <_ZNKSt10_HashtableIPvSt4pairIKS0_12ucrt_wrapperESaIS4_ENSt8__detail10_Select1stESt8equal_toIS0_ESt4hashIS0_ENS6_18_Mod_range_hashingENS6_20_Default_ranged_hashENS6_20_Prime_rehash_policyENS6_17_Hashtable_traitsILb0ELb0ELb1EEEE12_M_find_nodeEyRS2_y>
   14000e1cf:	48 89 c2             	mov    rdx,rax
   14000e1d2:	48 8d 45 e8          	lea    rax,[rbp-0x18]
   14000e1d6:	48 89 c1             	mov    rcx,rax
   14000e1d9:	e8 52 06 00 00       	call   14000e830 <_ZNSt8__detail14_Node_iteratorISt4pairIKPv12ucrt_wrapperELb0ELb0EEC1EPNS_10_Hash_nodeIS5_Lb0EEE>
   14000e1de:	48 8b 45 e8          	mov    rax,QWORD PTR [rbp-0x18]
   14000e1e2:	48 83 c4 58          	add    rsp,0x58
   14000e1e6:	5b                   	pop    rbx
   14000e1e7:	5d                   	pop    rbp
   14000e1e8:	c3                   	ret
   14000e1e9:	90                   	nop
   14000e1ea:	90                   	nop
   14000e1eb:	90                   	nop
   14000e1ec:	90                   	nop
   14000e1ed:	90                   	nop
   14000e1ee:	90                   	nop
   14000e1ef:	90                   	nop

000000014000e1f0 <_ZNSt10_HashtableIPvSt4pairIKS0_12ucrt_wrapperESaIS4_ENSt8__detail10_Select1stESt8equal_toIS0_ESt4hashIS0_ENS6_18_Mod_range_hashingENS6_20_Default_ranged_hashENS6_20_Prime_rehash_policyENS6_17_Hashtable_traitsILb0ELb0ELb1EEEE5beginEv>:
   14000e1f0:	55                   	push   rbp
   14000e1f1:	48 89 e5             	mov    rbp,rsp
   14000e1f4:	48 83 ec 30          	sub    rsp,0x30
   14000e1f8:	48 89 4d 10          	mov    QWORD PTR [rbp+0x10],rcx
   14000e1fc:	48 8b 45 10          	mov    rax,QWORD PTR [rbp+0x10]
   14000e200:	48 89 c1             	mov    rcx,rax
   14000e203:	e8 f8 f5 ff ff       	call   14000d800 <_ZNKSt10_HashtableIPvSt4pairIKS0_12ucrt_wrapperESaIS4_ENSt8__detail10_Select1stESt8equal_toIS0_ESt4hashIS0_ENS6_18_Mod_range_hashingENS6_20_Default_ranged_hashENS6_20_Prime_rehash_policyENS6_17_Hashtable_traitsILb0ELb0ELb1EEEE8_M_beginEv>
   14000e208:	48 89 c2             	mov    rdx,rax
   14000e20b:	48 8d 45 f8          	lea    rax,[rbp-0x8]
   14000e20f:	48 89 c1             	mov    rcx,rax
   14000e212:	e8 19 06 00 00       	call   14000e830 <_ZNSt8__detail14_Node_iteratorISt4pairIKPv12ucrt_wrapperELb0ELb0EEC1EPNS_10_Hash_nodeIS5_Lb0EEE>
   14000e217:	48 8b 45 f8          	mov    rax,QWORD PTR [rbp-0x8]
   14000e21b:	48 83 c4 30          	add    rsp,0x30
   14000e21f:	5d                   	pop    rbp
   14000e220:	c3                   	ret
   14000e221:	90                   	nop
   14000e222:	90                   	nop
   14000e223:	90                   	nop
   14000e224:	90                   	nop
   14000e225:	90                   	nop
   14000e226:	90                   	nop
   14000e227:	90                   	nop
   14000e228:	90                   	nop
   14000e229:	90                   	nop
   14000e22a:	90                   	nop
   14000e22b:	90                   	nop
   14000e22c:	90                   	nop
   14000e22d:	90                   	nop
   14000e22e:	90                   	nop
   14000e22f:	90                   	nop

000000014000e230 <_ZNSt10_HashtableIPvSt4pairIKS0_12ucrt_wrapperESaIS4_ENSt8__detail10_Select1stESt8equal_toIS0_ESt4hashIS0_ENS6_18_Mod_range_hashingENS6_20_Default_ranged_hashENS6_20_Prime_rehash_policyENS6_17_Hashtable_traitsILb0ELb0ELb1EEEE5clearEv>:
   14000e230:	55                   	push   rbp
   14000e231:	48 89 e5             	mov    rbp,rsp
   14000e234:	48 83 ec 20          	sub    rsp,0x20
   14000e238:	48 89 4d 10          	mov    QWORD PTR [rbp+0x10],rcx
   14000e23c:	48 8b 45 10          	mov    rax,QWORD PTR [rbp+0x10]
   14000e240:	48 89 c1             	mov    rcx,rax
   14000e243:	e8 b8 f5 ff ff       	call   14000d800 <_ZNKSt10_HashtableIPvSt4pairIKS0_12ucrt_wrapperESaIS4_ENSt8__detail10_Select1stESt8equal_toIS0_ESt4hashIS0_ENS6_18_Mod_range_hashingENS6_20_Default_ranged_hashENS6_20_Prime_rehash_policyENS6_17_Hashtable_traitsILb0ELb0ELb1EEEE8_M_beginEv>
   14000e248:	48 89 c2             	mov    rdx,rax
   14000e24b:	48 8b 45 10          	mov    rax,QWORD PTR [rbp+0x10]
   14000e24f:	48 89 c1             	mov    rcx,rax
   14000e252:	e8 79 0a 00 00       	call   14000ecd0 <_ZNSt8__detail16_Hashtable_allocISaINS_10_Hash_nodeISt4pairIKPv12ucrt_wrapperELb0EEEEE19_M_deallocate_nodesEPS7_>
   14000e257:	48 8b 45 10          	mov    rax,QWORD PTR [rbp+0x10]
   14000e25b:	48 8b 40 08          	mov    rax,QWORD PTR [rax+0x8]
   14000e25f:	48 8d 14 c5 00 00 00 	lea    rdx,[rax*8+0x0]
   14000e266:	00 
   14000e267:	48 8b 45 10          	mov    rax,QWORD PTR [rbp+0x10]
   14000e26b:	48 8b 00             	mov    rax,QWORD PTR [rax]
   14000e26e:	49 89 d0             	mov    r8,rdx
   14000e271:	ba 00 00 00 00       	mov    edx,0x0
   14000e276:	48 89 c1             	mov    rcx,rax
   14000e279:	e8 9a f0 ff ff       	call   14000d318 <memset>
   14000e27e:	48 8b 45 10          	mov    rax,QWORD PTR [rbp+0x10]
   14000e282:	48 c7 40 18 00 00 00 	mov    QWORD PTR [rax+0x18],0x0
   14000e289:	00 
   14000e28a:	48 8b 45 10          	mov    rax,QWORD PTR [rbp+0x10]
   14000e28e:	48 c7 40 10 00 00 00 	mov    QWORD PTR [rax+0x10],0x0
   14000e295:	00 
   14000e296:	90                   	nop
   14000e297:	48 83 c4 20          	add    rsp,0x20
   14000e29b:	5d                   	pop    rbp
   14000e29c:	c3                   	ret
   14000e29d:	90                   	nop
   14000e29e:	90                   	nop
   14000e29f:	90                   	nop

000000014000e2a0 <_ZNSt10_HashtableIPvSt4pairIKS0_12ucrt_wrapperESaIS4_ENSt8__detail10_Select1stESt8equal_toIS0_ESt4hashIS0_ENS6_18_Mod_range_hashingENS6_20_Default_ranged_hashENS6_20_Prime_rehash_policyENS6_17_Hashtable_traitsILb0ELb0ELb1EEEE9_M_rehashEyRKy>:
   14000e2a0:	55                   	push   rbp
   14000e2a1:	53                   	push   rbx
   14000e2a2:	48 83 ec 28          	sub    rsp,0x28
   14000e2a6:	48 8d 6c 24 20       	lea    rbp,[rsp+0x20]
   14000e2ab:	48 89 4d 20          	mov    QWORD PTR [rbp+0x20],rcx
   14000e2af:	48 89 55 28          	mov    QWORD PTR [rbp+0x28],rdx
   14000e2b3:	4c 89 45 30          	mov    QWORD PTR [rbp+0x30],r8
   14000e2b7:	48 8b 55 28          	mov    rdx,QWORD PTR [rbp+0x28]
   14000e2bb:	48 8b 45 20          	mov    rax,QWORD PTR [rbp+0x20]
   14000e2bf:	45 89 c8             	mov    r8d,r9d
   14000e2c2:	48 89 c1             	mov    rcx,rax
   14000e2c5:	e8 76 f9 ff ff       	call   14000dc40 <_ZNSt10_HashtableIPvSt4pairIKS0_12ucrt_wrapperESaIS4_ENSt8__detail10_Select1stESt8equal_toIS0_ESt4hashIS0_ENS6_18_Mod_range_hashingENS6_20_Default_ranged_hashENS6_20_Prime_rehash_policyENS6_17_Hashtable_traitsILb0ELb0ELb1EEEE13_M_rehash_auxEySt17integral_constantIbLb1EE>
   14000e2ca:	eb 38                	jmp    14000e304 <_ZNSt10_HashtableIPvSt4pairIKS0_12ucrt_wrapperESaIS4_ENSt8__detail10_Select1stESt8equal_toIS0_ESt4hashIS0_ENS6_18_Mod_range_hashingENS6_20_Default_ranged_hashENS6_20_Prime_rehash_policyENS6_17_Hashtable_traitsILb0ELb0ELb1EEEE9_M_rehashEyRKy+0x64>
   14000e2cc:	48 89 c1             	mov    rcx,rax
   14000e2cf:	e8 fc dd ff ff       	call   14000c0d0 <__cxa_begin_catch>
   14000e2d4:	48 8b 45 20          	mov    rax,QWORD PTR [rbp+0x20]
   14000e2d8:	48 8d 48 20          	lea    rcx,[rax+0x20]
   14000e2dc:	48 8b 45 30          	mov    rax,QWORD PTR [rbp+0x30]
   14000e2e0:	48 8b 00             	mov    rax,QWORD PTR [rax]
   14000e2e3:	48 89 c2             	mov    rdx,rax
   14000e2e6:	e8 a5 0b 00 00       	call   14000ee90 <_ZNSt8__detail20_Prime_rehash_policy8_M_resetEy>
   14000e2eb:	e8 b8 dd ff ff       	call   14000c0a8 <__cxa_rethrow>
   14000e2f0:	48 89 c3             	mov    rbx,rax
   14000e2f3:	e8 d0 dd ff ff       	call   14000c0c8 <__cxa_end_catch>
   14000e2f8:	48 89 d8             	mov    rax,rbx
   14000e2fb:	48 89 c1             	mov    rcx,rax
   14000e2fe:	e8 cd ee ff ff       	call   14000d1d0 <_Unwind_Resume>
   14000e303:	90                   	nop
   14000e304:	48 83 c4 28          	add    rsp,0x28
   14000e308:	5b                   	pop    rbx
   14000e309:	5d                   	pop    rbp
   14000e30a:	c3                   	ret
   14000e30b:	90                   	nop
   14000e30c:	90                   	nop
   14000e30d:	90                   	nop
   14000e30e:	90                   	nop
   14000e30f:	90                   	nop

000000014000e310 <_ZNSt10_HashtableIPvSt4pairIKS0_12ucrt_wrapperESaIS4_ENSt8__detail10_Select1stESt8equal_toIS0_ESt4hashIS0_ENS6_18_Mod_range_hashingENS6_20_Default_ranged_hashENS6_20_Prime_rehash_policyENS6_17_Hashtable_traitsILb0ELb0ELb1EEEEC1Ev>:
   14000e310:	55                   	push   rbp
   14000e311:	48 89 e5             	mov    rbp,rsp
   14000e314:	48 83 ec 20          	sub    rsp,0x20
   14000e318:	48 89 4d 10          	mov    QWORD PTR [rbp+0x10],rcx
   14000e31c:	48 8b 45 10          	mov    rax,QWORD PTR [rbp+0x10]
   14000e320:	48 89 c1             	mov    rcx,rax
   14000e323:	e8 e8 05 00 00       	call   14000e910 <_ZNSt8__detail15_Hashtable_baseIPvSt4pairIKS1_12ucrt_wrapperENS_10_Select1stESt8equal_toIS1_ESt4hashIS1_ENS_18_Mod_range_hashingENS_20_Default_ranged_hashENS_17_Hashtable_traitsILb0ELb0ELb1EEEEC2Ev>
   14000e328:	48 8b 45 10          	mov    rax,QWORD PTR [rbp+0x10]
   14000e32c:	48 89 c1             	mov    rcx,rax
   14000e32f:	e8 cc 0a 00 00       	call   14000ee00 <_ZNSt8__detail16_Hashtable_allocISaINS_10_Hash_nodeISt4pairIKPv12ucrt_wrapperELb0EEEEEC2Ev>
   14000e334:	48 8b 45 10          	mov    rax,QWORD PTR [rbp+0x10]
   14000e338:	48 8d 50 30          	lea    rdx,[rax+0x30]
   14000e33c:	48 8b 45 10          	mov    rax,QWORD PTR [rbp+0x10]
   14000e340:	48 89 10             	mov    QWORD PTR [rax],rdx
   14000e343:	48 8b 45 10          	mov    rax,QWORD PTR [rbp+0x10]
   14000e347:	48 c7 40 08 01 00 00 	mov    QWORD PTR [rax+0x8],0x1
   14000e34e:	00 
   14000e34f:	48 8b 45 10          	mov    rax,QWORD PTR [rbp+0x10]
   14000e353:	48 83 c0 10          	add    rax,0x10
   14000e357:	48 89 c1             	mov    rcx,rax
   14000e35a:	e8 51 05 00 00       	call   14000e8b0 <_ZNSt8__detail15_Hash_node_baseC1Ev>
   14000e35f:	48 8b 45 10          	mov    rax,QWORD PTR [rbp+0x10]
   14000e363:	48 c7 40 18 00 00 00 	mov    QWORD PTR [rax+0x18],0x0
   14000e36a:	00 
   14000e36b:	48 8b 45 10          	mov    rax,QWORD PTR [rbp+0x10]
   14000e36f:	48 83 c0 20          	add    rax,0x20
   14000e373:	f3 0f 10 0d 39 35 00 	movss  xmm1,DWORD PTR [rip+0x3539]        # 1400118b4 <_ZL14dispatch_table+0x3b4>
   14000e37a:	00 
   14000e37b:	48 89 c1             	mov    rcx,rax
   14000e37e:	e8 2d 0b 00 00       	call   14000eeb0 <_ZNSt8__detail20_Prime_rehash_policyC1Ef>
   14000e383:	48 8b 45 10          	mov    rax,QWORD PTR [rbp+0x10]
   14000e387:	48 c7 40 30 00 00 00 	mov    QWORD PTR [rax+0x30],0x0
   14000e38e:	00 
   14000e38f:	90                   	nop
   14000e390:	48 83 c4 20          	add    rsp,0x20
   14000e394:	5d                   	pop    rbp
   14000e395:	c3                   	ret
   14000e396:	90                   	nop
   14000e397:	90                   	nop
   14000e398:	90                   	nop
   14000e399:	90                   	nop
   14000e39a:	90                   	nop
   14000e39b:	90                   	nop
   14000e39c:	90                   	nop
   14000e39d:	90                   	nop
   14000e39e:	90                   	nop
   14000e39f:	90                   	nop

000000014000e3a0 <_ZNSt10_HashtableIPvSt4pairIKS0_12ucrt_wrapperESaIS4_ENSt8__detail10_Select1stESt8equal_toIS0_ESt4hashIS0_ENS6_18_Mod_range_hashingENS6_20_Default_ranged_hashENS6_20_Prime_rehash_policyENS6_17_Hashtable_traitsILb0ELb0ELb1EEEED1Ev>:
   14000e3a0:	55                   	push   rbp
   14000e3a1:	48 89 e5             	mov    rbp,rsp
   14000e3a4:	48 83 ec 20          	sub    rsp,0x20
   14000e3a8:	48 89 4d 10          	mov    QWORD PTR [rbp+0x10],rcx
   14000e3ac:	48 8b 45 10          	mov    rax,QWORD PTR [rbp+0x10]
   14000e3b0:	48 89 c1             	mov    rcx,rax
   14000e3b3:	e8 78 fe ff ff       	call   14000e230 <_ZNSt10_HashtableIPvSt4pairIKS0_12ucrt_wrapperESaIS4_ENSt8__detail10_Select1stESt8equal_toIS0_ESt4hashIS0_ENS6_18_Mod_range_hashingENS6_20_Default_ranged_hashENS6_20_Prime_rehash_policyENS6_17_Hashtable_traitsILb0ELb0ELb1EEEE5clearEv>
   14000e3b8:	48 8b 45 10          	mov    rax,QWORD PTR [rbp+0x10]
   14000e3bc:	48 89 c1             	mov    rcx,rax
   14000e3bf:	e8 9c fa ff ff       	call   14000de60 <_ZNSt10_HashtableIPvSt4pairIKS0_12ucrt_wrapperESaIS4_ENSt8__detail10_Select1stESt8equal_toIS0_ESt4hashIS0_ENS6_18_Mod_range_hashingENS6_20_Default_ranged_hashENS6_20_Prime_rehash_policyENS6_17_Hashtable_traitsILb0ELb0ELb1EEEE21_M_deallocate_bucketsEv>
   14000e3c4:	48 8b 45 10          	mov    rax,QWORD PTR [rbp+0x10]
   14000e3c8:	48 89 c1             	mov    rcx,rax
   14000e3cb:	e8 50 0a 00 00       	call   14000ee20 <_ZNSt8__detail16_Hashtable_allocISaINS_10_Hash_nodeISt4pairIKPv12ucrt_wrapperELb0EEEEED2Ev>
   14000e3d0:	90                   	nop
   14000e3d1:	48 83 c4 20          	add    rsp,0x20
   14000e3d5:	5d                   	pop    rbp
   14000e3d6:	c3                   	ret
   14000e3d7:	90                   	nop
   14000e3d8:	90                   	nop
   14000e3d9:	90                   	nop
   14000e3da:	90                   	nop
   14000e3db:	90                   	nop
   14000e3dc:	90                   	nop
   14000e3dd:	90                   	nop
   14000e3de:	90                   	nop
   14000e3df:	90                   	nop

000000014000e3e0 <_ZNSt10_Head_baseILy0ERKPvLb0EE7_M_headERS3_>:
   14000e3e0:	55                   	push   rbp
   14000e3e1:	48 89 e5             	mov    rbp,rsp
   14000e3e4:	48 89 4d 10          	mov    QWORD PTR [rbp+0x10],rcx
   14000e3e8:	48 8b 45 10          	mov    rax,QWORD PTR [rbp+0x10]
   14000e3ec:	48 8b 00             	mov    rax,QWORD PTR [rax]
   14000e3ef:	5d                   	pop    rbp
   14000e3f0:	c3                   	ret
   14000e3f1:	90                   	nop
   14000e3f2:	90                   	nop
   14000e3f3:	90                   	nop
   14000e3f4:	90                   	nop
   14000e3f5:	90                   	nop
   14000e3f6:	90                   	nop
   14000e3f7:	90                   	nop
   14000e3f8:	90                   	nop
   14000e3f9:	90                   	nop
   14000e3fa:	90                   	nop
   14000e3fb:	90                   	nop
   14000e3fc:	90                   	nop
   14000e3fd:	90                   	nop
   14000e3fe:	90                   	nop
   14000e3ff:	90                   	nop

000000014000e400 <_ZNSt10_Head_baseILy0ERKPvLb0EEC2ES2_>:
   14000e400:	55                   	push   rbp
   14000e401:	48 89 e5             	mov    rbp,rsp
   14000e404:	48 89 4d 10          	mov    QWORD PTR [rbp+0x10],rcx
   14000e408:	48 89 55 18          	mov    QWORD PTR [rbp+0x18],rdx
   14000e40c:	48 8b 45 10          	mov    rax,QWORD PTR [rbp+0x10]
   14000e410:	48 8b 55 18          	mov    rdx,QWORD PTR [rbp+0x18]
   14000e414:	48 89 10             	mov    QWORD PTR [rax],rdx
   14000e417:	90                   	nop
   14000e418:	5d                   	pop    rbp
   14000e419:	c3                   	ret
   14000e41a:	90                   	nop
   14000e41b:	90                   	nop
   14000e41c:	90                   	nop
   14000e41d:	90                   	nop
   14000e41e:	90                   	nop
   14000e41f:	90                   	nop

000000014000e420 <_ZNSt11_Tuple_implILy0EJRKPvEE7_M_headERS3_>:
   14000e420:	55                   	push   rbp
   14000e421:	48 89 e5             	mov    rbp,rsp
   14000e424:	48 83 ec 20          	sub    rsp,0x20
   14000e428:	48 89 4d 10          	mov    QWORD PTR [rbp+0x10],rcx
   14000e42c:	48 8b 45 10          	mov    rax,QWORD PTR [rbp+0x10]
   14000e430:	48 89 c1             	mov    rcx,rax
   14000e433:	e8 a8 ff ff ff       	call   14000e3e0 <_ZNSt10_Head_baseILy0ERKPvLb0EE7_M_headERS3_>
   14000e438:	48 83 c4 20          	add    rsp,0x20
   14000e43c:	5d                   	pop    rbp
   14000e43d:	c3                   	ret
   14000e43e:	90                   	nop
   14000e43f:	90                   	nop

000000014000e440 <_ZNSt11_Tuple_implILy0EJRKPvEEC2EOS3_>:
   14000e440:	55                   	push   rbp
   14000e441:	48 89 e5             	mov    rbp,rsp
   14000e444:	48 89 4d 10          	mov    QWORD PTR [rbp+0x10],rcx
   14000e448:	48 89 55 18          	mov    QWORD PTR [rbp+0x18],rdx
   14000e44c:	48 8b 45 10          	mov    rax,QWORD PTR [rbp+0x10]
   14000e450:	48 8b 55 18          	mov    rdx,QWORD PTR [rbp+0x18]
   14000e454:	48 8b 12             	mov    rdx,QWORD PTR [rdx]
   14000e457:	48 89 10             	mov    QWORD PTR [rax],rdx
   14000e45a:	90                   	nop
   14000e45b:	5d                   	pop    rbp
   14000e45c:	c3                   	ret
   14000e45d:	90                   	nop
   14000e45e:	90                   	nop
   14000e45f:	90                   	nop

000000014000e460 <_ZNSt11_Tuple_implILy0EJRKPvEEC2ES2_>:
   14000e460:	55                   	push   rbp
   14000e461:	48 89 e5             	mov    rbp,rsp
   14000e464:	48 83 ec 20          	sub    rsp,0x20
   14000e468:	48 89 4d 10          	mov    QWORD PTR [rbp+0x10],rcx
   14000e46c:	48 89 55 18          	mov    QWORD PTR [rbp+0x18],rdx
   14000e470:	48 8b 45 10          	mov    rax,QWORD PTR [rbp+0x10]
   14000e474:	48 8b 55 18          	mov    rdx,QWORD PTR [rbp+0x18]
   14000e478:	48 89 c1             	mov    rcx,rax
   14000e47b:	e8 80 ff ff ff       	call   14000e400 <_ZNSt10_Head_baseILy0ERKPvLb0EEC2ES2_>
   14000e480:	90                   	nop
   14000e481:	48 83 c4 20          	add    rsp,0x20
   14000e485:	5d                   	pop    rbp
   14000e486:	c3                   	ret
   14000e487:	90                   	nop
   14000e488:	90                   	nop
   14000e489:	90                   	nop
   14000e48a:	90                   	nop
   14000e48b:	90                   	nop
   14000e48c:	90                   	nop
   14000e48d:	90                   	nop
   14000e48e:	90                   	nop
   14000e48f:	90                   	nop

000000014000e490 <_ZNSt13unordered_mapIPv12ucrt_wrapperSt4hashIS0_ESt8equal_toIS0_ESaISt4pairIKS0_S1_EEE3endEv>:
   14000e490:	55                   	push   rbp
   14000e491:	48 89 e5             	mov    rbp,rsp
   14000e494:	48 83 ec 20          	sub    rsp,0x20
   14000e498:	48 89 4d 10          	mov    QWORD PTR [rbp+0x10],rcx
   14000e49c:	48 8b 45 10          	mov    rax,QWORD PTR [rbp+0x10]
   14000e4a0:	48 89 c1             	mov    rcx,rax
   14000e4a3:	e8 08 fc ff ff       	call   14000e0b0 <_ZNSt10_HashtableIPvSt4pairIKS0_12ucrt_wrapperESaIS4_ENSt8__detail10_Select1stESt8equal_toIS0_ESt4hashIS0_ENS6_18_Mod_range_hashingENS6_20_Default_ranged_hashENS6_20_Prime_rehash_policyENS6_17_Hashtable_traitsILb0ELb0ELb1EEEE3endEv>
   14000e4a8:	48 83 c4 20          	add    rsp,0x20
   14000e4ac:	5d                   	pop    rbp
   14000e4ad:	c3                   	ret
   14000e4ae:	90                   	nop
   14000e4af:	90                   	nop

000000014000e4b0 <_ZNSt13unordered_mapIPv12ucrt_wrapperSt4hashIS0_ESt8equal_toIS0_ESaISt4pairIKS0_S1_EEE4findERS7_>:
   14000e4b0:	55                   	push   rbp
   14000e4b1:	48 89 e5             	mov    rbp,rsp
   14000e4b4:	48 83 ec 20          	sub    rsp,0x20
   14000e4b8:	48 89 4d 10          	mov    QWORD PTR [rbp+0x10],rcx
   14000e4bc:	48 89 55 18          	mov    QWORD PTR [rbp+0x18],rdx
   14000e4c0:	48 8b 45 10          	mov    rax,QWORD PTR [rbp+0x10]
   14000e4c4:	48 8b 55 18          	mov    rdx,QWORD PTR [rbp+0x18]
   14000e4c8:	48 89 c1             	mov    rcx,rax
   14000e4cb:	e8 10 fc ff ff       	call   14000e0e0 <_ZNSt10_HashtableIPvSt4pairIKS0_12ucrt_wrapperESaIS4_ENSt8__detail10_Select1stESt8equal_toIS0_ESt4hashIS0_ENS6_18_Mod_range_hashingENS6_20_Default_ranged_hashENS6_20_Prime_rehash_policyENS6_17_Hashtable_traitsILb0ELb0ELb1EEEE4findERS2_>
   14000e4d0:	48 83 c4 20          	add    rsp,0x20
   14000e4d4:	5d                   	pop    rbp
   14000e4d5:	c3                   	ret
   14000e4d6:	90                   	nop
   14000e4d7:	90                   	nop
   14000e4d8:	90                   	nop
   14000e4d9:	90                   	nop
   14000e4da:	90                   	nop
   14000e4db:	90                   	nop
   14000e4dc:	90                   	nop
   14000e4dd:	90                   	nop
   14000e4de:	90                   	nop
   14000e4df:	90                   	nop

000000014000e4e0 <_ZNSt13unordered_mapIPv12ucrt_wrapperSt4hashIS0_ESt8equal_toIS0_ESaISt4pairIKS0_S1_EEEC1Ev>:
   14000e4e0:	55                   	push   rbp
   14000e4e1:	48 89 e5             	mov    rbp,rsp
   14000e4e4:	48 83 ec 20          	sub    rsp,0x20
   14000e4e8:	48 89 4d 10          	mov    QWORD PTR [rbp+0x10],rcx
   14000e4ec:	48 8b 45 10          	mov    rax,QWORD PTR [rbp+0x10]
   14000e4f0:	48 89 c1             	mov    rcx,rax
   14000e4f3:	e8 18 fe ff ff       	call   14000e310 <_ZNSt10_HashtableIPvSt4pairIKS0_12ucrt_wrapperESaIS4_ENSt8__detail10_Select1stESt8equal_toIS0_ESt4hashIS0_ENS6_18_Mod_range_hashingENS6_20_Default_ranged_hashENS6_20_Prime_rehash_policyENS6_17_Hashtable_traitsILb0ELb0ELb1EEEEC1Ev>
   14000e4f8:	90                   	nop
   14000e4f9:	48 83 c4 20          	add    rsp,0x20
   14000e4fd:	5d                   	pop    rbp
   14000e4fe:	c3                   	ret
   14000e4ff:	90                   	nop

000000014000e500 <_ZNSt13unordered_mapIPv12ucrt_wrapperSt4hashIS0_ESt8equal_toIS0_ESaISt4pairIKS0_S1_EEED1Ev>:
   14000e500:	55                   	push   rbp
   14000e501:	48 89 e5             	mov    rbp,rsp
   14000e504:	48 83 ec 20          	sub    rsp,0x20
   14000e508:	48 89 4d 10          	mov    QWORD PTR [rbp+0x10],rcx
   14000e50c:	48 8b 45 10          	mov    rax,QWORD PTR [rbp+0x10]
   14000e510:	48 89 c1             	mov    rcx,rax
   14000e513:	e8 88 fe ff ff       	call   14000e3a0 <_ZNSt10_HashtableIPvSt4pairIKS0_12ucrt_wrapperESaIS4_ENSt8__detail10_Select1stESt8equal_toIS0_ESt4hashIS0_ENS6_18_Mod_range_hashingENS6_20_Default_ranged_hashENS6_20_Prime_rehash_policyENS6_17_Hashtable_traitsILb0ELb0ELb1EEEED1Ev>
   14000e518:	90                   	nop
   14000e519:	48 83 c4 20          	add    rsp,0x20
   14000e51d:	5d                   	pop    rbp
   14000e51e:	c3                   	ret
   14000e51f:	90                   	nop

000000014000e520 <_ZNSt13unordered_mapIPv12ucrt_wrapperSt4hashIS0_ESt8equal_toIS0_ESaISt4pairIKS0_S1_EEEixERS7_>:
   14000e520:	55                   	push   rbp
   14000e521:	48 89 e5             	mov    rbp,rsp
   14000e524:	48 83 ec 20          	sub    rsp,0x20
   14000e528:	48 89 4d 10          	mov    QWORD PTR [rbp+0x10],rcx
   14000e52c:	48 89 55 18          	mov    QWORD PTR [rbp+0x18],rdx
   14000e530:	48 8b 45 10          	mov    rax,QWORD PTR [rbp+0x10]
   14000e534:	48 8b 55 18          	mov    rdx,QWORD PTR [rbp+0x18]
   14000e538:	48 89 c1             	mov    rcx,rax
   14000e53b:	e8 40 0a 00 00       	call   14000ef80 <_ZNSt8__detail9_Map_baseIPvSt4pairIKS1_12ucrt_wrapperESaIS5_ENS_10_Select1stESt8equal_toIS1_ESt4hashIS1_ENS_18_Mod_range_hashingENS_20_Default_ranged_hashENS_20_Prime_rehash_policyENS_17_Hashtable_traitsILb0ELb0ELb1EEELb1EEixERS3_>
   14000e540:	48 83 c4 20          	add    rsp,0x20
   14000e544:	5d                   	pop    rbp
   14000e545:	c3                   	ret
   14000e546:	90                   	nop
   14000e547:	90                   	nop
   14000e548:	90                   	nop
   14000e549:	90                   	nop
   14000e54a:	90                   	nop
   14000e54b:	90                   	nop
   14000e54c:	90                   	nop
   14000e54d:	90                   	nop
   14000e54e:	90                   	nop
   14000e54f:	90                   	nop

000000014000e550 <_ZNSt15__new_allocatorINSt8__detail10_Hash_nodeISt4pairIKPv12ucrt_wrapperELb0EEEE10deallocateEPS7_y>:
   14000e550:	55                   	push   rbp
   14000e551:	48 89 e5             	mov    rbp,rsp
   14000e554:	48 83 ec 20          	sub    rsp,0x20
   14000e558:	48 89 4d 10          	mov    QWORD PTR [rbp+0x10],rcx
   14000e55c:	48 89 55 18          	mov    QWORD PTR [rbp+0x18],rdx
   14000e560:	4c 89 45 20          	mov    QWORD PTR [rbp+0x20],r8
   14000e564:	48 8b 55 20          	mov    rdx,QWORD PTR [rbp+0x20]
   14000e568:	48 89 d0             	mov    rax,rdx
   14000e56b:	48 c1 e0 02          	shl    rax,0x2
   14000e56f:	48 01 d0             	add    rax,rdx
   14000e572:	48 c1 e0 03          	shl    rax,0x3
   14000e576:	48 89 c2             	mov    rdx,rax
   14000e579:	48 8b 45 18          	mov    rax,QWORD PTR [rbp+0x18]
   14000e57d:	48 89 c1             	mov    rcx,rax
   14000e580:	e8 5b db ff ff       	call   14000c0e0 <_ZdlPvy>
   14000e585:	90                   	nop
   14000e586:	48 83 c4 20          	add    rsp,0x20
   14000e58a:	5d                   	pop    rbp
   14000e58b:	c3                   	ret
   14000e58c:	90                   	nop
   14000e58d:	90                   	nop
   14000e58e:	90                   	nop
   14000e58f:	90                   	nop

000000014000e590 <_ZNSt15__new_allocatorINSt8__detail10_Hash_nodeISt4pairIKPv12ucrt_wrapperELb0EEEE8allocateEyPKv>:
   14000e590:	55                   	push   rbp
   14000e591:	48 89 e5             	mov    rbp,rsp
   14000e594:	48 83 ec 30          	sub    rsp,0x30
   14000e598:	48 89 4d 10          	mov    QWORD PTR [rbp+0x10],rcx
   14000e59c:	48 89 55 18          	mov    QWORD PTR [rbp+0x18],rdx
   14000e5a0:	4c 89 45 20          	mov    QWORD PTR [rbp+0x20],r8
   14000e5a4:	48 8b 45 10          	mov    rax,QWORD PTR [rbp+0x10]
   14000e5a8:	48 89 45 f8          	mov    QWORD PTR [rbp-0x8],rax
   14000e5ac:	48 b8 33 33 33 33 33 	movabs rax,0x333333333333333
   14000e5b3:	33 33 03 
   14000e5b6:	48 3b 45 18          	cmp    rax,QWORD PTR [rbp+0x18]
   14000e5ba:	0f 92 c0             	setb   al
   14000e5bd:	0f b6 c0             	movzx  eax,al
   14000e5c0:	85 c0                	test   eax,eax
   14000e5c2:	0f 95 c0             	setne  al
   14000e5c5:	84 c0                	test   al,al
   14000e5c7:	74 1a                	je     14000e5e3 <_ZNSt15__new_allocatorINSt8__detail10_Hash_nodeISt4pairIKPv12ucrt_wrapperELb0EEEE8allocateEyPKv+0x53>
   14000e5c9:	48 b8 66 66 66 66 66 	movabs rax,0x666666666666666
   14000e5d0:	66 66 06 
   14000e5d3:	48 3b 45 18          	cmp    rax,QWORD PTR [rbp+0x18]
   14000e5d7:	73 05                	jae    14000e5de <_ZNSt15__new_allocatorINSt8__detail10_Hash_nodeISt4pairIKPv12ucrt_wrapperELb0EEEE8allocateEyPKv+0x4e>
   14000e5d9:	e8 0a db ff ff       	call   14000c0e8 <_ZSt28__throw_bad_array_new_lengthv>
   14000e5de:	e8 0d db ff ff       	call   14000c0f0 <_ZSt17__throw_bad_allocv>
   14000e5e3:	48 8b 55 18          	mov    rdx,QWORD PTR [rbp+0x18]
   14000e5e7:	48 89 d0             	mov    rax,rdx
   14000e5ea:	48 c1 e0 02          	shl    rax,0x2
   14000e5ee:	48 01 d0             	add    rax,rdx
   14000e5f1:	48 c1 e0 03          	shl    rax,0x3
   14000e5f5:	48 89 c1             	mov    rcx,rax
   14000e5f8:	e8 db da ff ff       	call   14000c0d8 <_Znwy>
   14000e5fd:	90                   	nop
   14000e5fe:	48 83 c4 30          	add    rsp,0x30
   14000e602:	5d                   	pop    rbp
   14000e603:	c3                   	ret
   14000e604:	90                   	nop
   14000e605:	90                   	nop
   14000e606:	90                   	nop
   14000e607:	90                   	nop
   14000e608:	90                   	nop
   14000e609:	90                   	nop
   14000e60a:	90                   	nop
   14000e60b:	90                   	nop
   14000e60c:	90                   	nop
   14000e60d:	90                   	nop
   14000e60e:	90                   	nop
   14000e60f:	90                   	nop

000000014000e610 <_ZNSt15__new_allocatorINSt8__detail10_Hash_nodeISt4pairIKPv12ucrt_wrapperELb0EEEED2Ev>:
   14000e610:	55                   	push   rbp
   14000e611:	48 89 e5             	mov    rbp,rsp
   14000e614:	48 89 4d 10          	mov    QWORD PTR [rbp+0x10],rcx
   14000e618:	90                   	nop
   14000e619:	5d                   	pop    rbp
   14000e61a:	c3                   	ret
   14000e61b:	90                   	nop
   14000e61c:	90                   	nop
   14000e61d:	90                   	nop
   14000e61e:	90                   	nop
   14000e61f:	90                   	nop

000000014000e620 <_ZNSt15__new_allocatorIPNSt8__detail15_Hash_node_baseEE10deallocateEPS2_y>:
   14000e620:	55                   	push   rbp
   14000e621:	48 89 e5             	mov    rbp,rsp
   14000e624:	48 83 ec 20          	sub    rsp,0x20
   14000e628:	48 89 4d 10          	mov    QWORD PTR [rbp+0x10],rcx
   14000e62c:	48 89 55 18          	mov    QWORD PTR [rbp+0x18],rdx
   14000e630:	4c 89 45 20          	mov    QWORD PTR [rbp+0x20],r8
   14000e634:	48 8b 45 20          	mov    rax,QWORD PTR [rbp+0x20]
   14000e638:	48 8d 14 c5 00 00 00 	lea    rdx,[rax*8+0x0]
   14000e63f:	00 
   14000e640:	48 8b 45 18          	mov    rax,QWORD PTR [rbp+0x18]
   14000e644:	48 89 c1             	mov    rcx,rax
   14000e647:	e8 94 da ff ff       	call   14000c0e0 <_ZdlPvy>
   14000e64c:	90                   	nop
   14000e64d:	48 83 c4 20          	add    rsp,0x20
   14000e651:	5d                   	pop    rbp
   14000e652:	c3                   	ret
   14000e653:	90                   	nop
   14000e654:	90                   	nop
   14000e655:	90                   	nop
   14000e656:	90                   	nop
   14000e657:	90                   	nop
   14000e658:	90                   	nop
   14000e659:	90                   	nop
   14000e65a:	90                   	nop
   14000e65b:	90                   	nop
   14000e65c:	90                   	nop
   14000e65d:	90                   	nop
   14000e65e:	90                   	nop
   14000e65f:	90                   	nop

000000014000e660 <_ZNSt15__new_allocatorIPNSt8__detail15_Hash_node_baseEE8allocateEyPKv>:
   14000e660:	55                   	push   rbp
   14000e661:	48 89 e5             	mov    rbp,rsp
   14000e664:	48 83 ec 30          	sub    rsp,0x30
   14000e668:	48 89 4d 10          	mov    QWORD PTR [rbp+0x10],rcx
   14000e66c:	48 89 55 18          	mov    QWORD PTR [rbp+0x18],rdx
   14000e670:	4c 89 45 20          	mov    QWORD PTR [rbp+0x20],r8
   14000e674:	48 8b 45 10          	mov    rax,QWORD PTR [rbp+0x10]
   14000e678:	48 89 45 f8          	mov    QWORD PTR [rbp-0x8],rax
   14000e67c:	48 b8 ff ff ff ff ff 	movabs rax,0xfffffffffffffff
   14000e683:	ff ff 0f 
   14000e686:	48 3b 45 18          	cmp    rax,QWORD PTR [rbp+0x18]
   14000e68a:	0f 92 c0             	setb   al
   14000e68d:	0f b6 c0             	movzx  eax,al
   14000e690:	85 c0                	test   eax,eax
   14000e692:	0f 95 c0             	setne  al
   14000e695:	84 c0                	test   al,al
   14000e697:	74 1a                	je     14000e6b3 <_ZNSt15__new_allocatorIPNSt8__detail15_Hash_node_baseEE8allocateEyPKv+0x53>
   14000e699:	48 b8 ff ff ff ff ff 	movabs rax,0x1fffffffffffffff
   14000e6a0:	ff ff 1f 
   14000e6a3:	48 3b 45 18          	cmp    rax,QWORD PTR [rbp+0x18]
   14000e6a7:	73 05                	jae    14000e6ae <_ZNSt15__new_allocatorIPNSt8__detail15_Hash_node_baseEE8allocateEyPKv+0x4e>
   14000e6a9:	e8 3a da ff ff       	call   14000c0e8 <_ZSt28__throw_bad_array_new_lengthv>
   14000e6ae:	e8 3d da ff ff       	call   14000c0f0 <_ZSt17__throw_bad_allocv>
   14000e6b3:	48 8b 45 18          	mov    rax,QWORD PTR [rbp+0x18]
   14000e6b7:	48 c1 e0 03          	shl    rax,0x3
   14000e6bb:	48 89 c1             	mov    rcx,rax
   14000e6be:	e8 15 da ff ff       	call   14000c0d8 <_Znwy>
   14000e6c3:	90                   	nop
   14000e6c4:	48 83 c4 30          	add    rsp,0x30
   14000e6c8:	5d                   	pop    rbp
   14000e6c9:	c3                   	ret
   14000e6ca:	90                   	nop
   14000e6cb:	90                   	nop
   14000e6cc:	90                   	nop
   14000e6cd:	90                   	nop
   14000e6ce:	90                   	nop
   14000e6cf:	90                   	nop

000000014000e6d0 <_ZNSt15__new_allocatorIPNSt8__detail15_Hash_node_baseEED2Ev>:
   14000e6d0:	55                   	push   rbp
   14000e6d1:	48 89 e5             	mov    rbp,rsp
   14000e6d4:	48 89 4d 10          	mov    QWORD PTR [rbp+0x10],rcx
   14000e6d8:	90                   	nop
   14000e6d9:	5d                   	pop    rbp
   14000e6da:	c3                   	ret
   14000e6db:	90                   	nop
   14000e6dc:	90                   	nop
   14000e6dd:	90                   	nop
   14000e6de:	90                   	nop
   14000e6df:	90                   	nop

000000014000e6e0 <_ZNSt19__ptr_traits_ptr_toIPNSt8__detail10_Hash_nodeISt4pairIKPv12ucrt_wrapperELb0EEES7_Lb0EE10pointer_toERS7_>:
   14000e6e0:	55                   	push   rbp
   14000e6e1:	48 89 e5             	mov    rbp,rsp
   14000e6e4:	48 83 ec 20          	sub    rsp,0x20
   14000e6e8:	48 89 4d 10          	mov    QWORD PTR [rbp+0x10],rcx
   14000e6ec:	48 8b 45 10          	mov    rax,QWORD PTR [rbp+0x10]
   14000e6f0:	48 89 c1             	mov    rcx,rax
   14000e6f3:	e8 08 0b 00 00       	call   14000f200 <_ZSt9addressofINSt8__detail10_Hash_nodeISt4pairIKPv12ucrt_wrapperELb0EEEEPT_RS8_>
   14000e6f8:	48 83 c4 20          	add    rsp,0x20
   14000e6fc:	5d                   	pop    rbp
   14000e6fd:	c3                   	ret
   14000e6fe:	90                   	nop
   14000e6ff:	90                   	nop

000000014000e700 <_ZNSt19__ptr_traits_ptr_toIPPNSt8__detail15_Hash_node_baseES2_Lb0EE10pointer_toERS2_>:
   14000e700:	55                   	push   rbp
   14000e701:	48 89 e5             	mov    rbp,rsp
   14000e704:	48 83 ec 20          	sub    rsp,0x20
   14000e708:	48 89 4d 10          	mov    QWORD PTR [rbp+0x10],rcx
   14000e70c:	48 8b 45 10          	mov    rax,QWORD PTR [rbp+0x10]
   14000e710:	48 89 c1             	mov    rcx,rax
   14000e713:	e8 08 0b 00 00       	call   14000f220 <_ZSt9addressofIPNSt8__detail15_Hash_node_baseEEPT_RS3_>
   14000e718:	48 83 c4 20          	add    rsp,0x20
   14000e71c:	5d                   	pop    rbp
   14000e71d:	c3                   	ret
   14000e71e:	90                   	nop
   14000e71f:	90                   	nop

000000014000e720 <_ZNSt4pairIKPv12ucrt_wrapperEC1IJRS1_EJEEESt21piecewise_construct_tSt5tupleIJDpT_EES7_IJDpT0_EE>:
   14000e720:	55                   	push   rbp
   14000e721:	48 89 e5             	mov    rbp,rsp
   14000e724:	48 83 ec 20          	sub    rsp,0x20
   14000e728:	48 89 4d 10          	mov    QWORD PTR [rbp+0x10],rcx
   14000e72c:	4c 89 45 18          	mov    QWORD PTR [rbp+0x18],r8
   14000e730:	48 8d 4d 20          	lea    rcx,[rbp+0x20]
   14000e734:	48 8b 55 18          	mov    rdx,QWORD PTR [rbp+0x18]
   14000e738:	48 8b 45 10          	mov    rax,QWORD PTR [rbp+0x10]
   14000e73c:	49 89 c8             	mov    r8,rcx
   14000e73f:	48 89 c1             	mov    rcx,rax
   14000e742:	e8 09 00 00 00       	call   14000e750 <_ZNSt4pairIKPv12ucrt_wrapperEC1IJRS1_EJLy0EEJEJEEERSt5tupleIJDpT_EERS6_IJDpT1_EESt12_Index_tupleIJXspT0_EEESF_IJXspT2_EEE>
   14000e747:	90                   	nop
   14000e748:	48 83 c4 20          	add    rsp,0x20
   14000e74c:	5d                   	pop    rbp
   14000e74d:	c3                   	ret
   14000e74e:	90                   	nop
   14000e74f:	90                   	nop

000000014000e750 <_ZNSt4pairIKPv12ucrt_wrapperEC1IJRS1_EJLy0EEJEJEEERSt5tupleIJDpT_EERS6_IJDpT1_EESt12_Index_tupleIJXspT0_EEESF_IJXspT2_EEE>:
   14000e750:	55                   	push   rbp
   14000e751:	48 89 e5             	mov    rbp,rsp
   14000e754:	48 83 ec 20          	sub    rsp,0x20
   14000e758:	48 89 4d 10          	mov    QWORD PTR [rbp+0x10],rcx
   14000e75c:	48 89 55 18          	mov    QWORD PTR [rbp+0x18],rdx
   14000e760:	4c 89 45 20          	mov    QWORD PTR [rbp+0x20],r8
   14000e764:	48 8b 45 18          	mov    rax,QWORD PTR [rbp+0x18]
   14000e768:	48 89 c1             	mov    rcx,rax
   14000e76b:	e8 20 0a 00 00       	call   14000f190 <_ZSt3getILy0EJRKPvEERNSt13tuple_elementIXT_ESt5tupleIJDpT0_EEE4typeERS7_>
   14000e770:	48 89 c1             	mov    rcx,rax
   14000e773:	e8 38 0a 00 00       	call   14000f1b0 <_ZSt7forwardIRKPvEOT_RNSt16remove_referenceIS3_E4typeE>
   14000e778:	48 8b 10             	mov    rdx,QWORD PTR [rax]
   14000e77b:	48 8b 45 10          	mov    rax,QWORD PTR [rbp+0x10]
   14000e77f:	48 89 10             	mov    QWORD PTR [rax],rdx
   14000e782:	48 8b 45 10          	mov    rax,QWORD PTR [rbp+0x10]
   14000e786:	48 c7 40 08 00 00 00 	mov    QWORD PTR [rax+0x8],0x0
   14000e78d:	00 
   14000e78e:	48 8b 45 10          	mov    rax,QWORD PTR [rbp+0x10]
   14000e792:	c7 40 10 00 00 00 00 	mov    DWORD PTR [rax+0x10],0x0
   14000e799:	48 8b 45 10          	mov    rax,QWORD PTR [rbp+0x10]
   14000e79d:	48 c7 40 18 00 00 00 	mov    QWORD PTR [rax+0x18],0x0
   14000e7a4:	00 
   14000e7a5:	90                   	nop
   14000e7a6:	48 83 c4 20          	add    rsp,0x20
   14000e7aa:	5d                   	pop    rbp
   14000e7ab:	c3                   	ret
   14000e7ac:	90                   	nop
   14000e7ad:	90                   	nop
   14000e7ae:	90                   	nop
   14000e7af:	90                   	nop

000000014000e7b0 <_ZNSt5tupleIJRKPvEEC1EOS3_>:
   14000e7b0:	55                   	push   rbp
   14000e7b1:	48 89 e5             	mov    rbp,rsp
   14000e7b4:	48 83 ec 20          	sub    rsp,0x20
   14000e7b8:	48 89 4d 10          	mov    QWORD PTR [rbp+0x10],rcx
   14000e7bc:	48 89 55 18          	mov    QWORD PTR [rbp+0x18],rdx
   14000e7c0:	48 8b 45 10          	mov    rax,QWORD PTR [rbp+0x10]
   14000e7c4:	48 8b 55 18          	mov    rdx,QWORD PTR [rbp+0x18]
   14000e7c8:	48 89 c1             	mov    rcx,rax
   14000e7cb:	e8 70 fc ff ff       	call   14000e440 <_ZNSt11_Tuple_implILy0EJRKPvEEC2EOS3_>
   14000e7d0:	90                   	nop
   14000e7d1:	48 83 c4 20          	add    rsp,0x20
   14000e7d5:	5d                   	pop    rbp
   14000e7d6:	c3                   	ret
   14000e7d7:	90                   	nop
   14000e7d8:	90                   	nop
   14000e7d9:	90                   	nop
   14000e7da:	90                   	nop
   14000e7db:	90                   	nop
   14000e7dc:	90                   	nop
   14000e7dd:	90                   	nop
   14000e7de:	90                   	nop
   14000e7df:	90                   	nop

000000014000e7e0 <_ZNSt5tupleIJRKPvEEC1ILb1ELb1EEES2_>:
   14000e7e0:	55                   	push   rbp
   14000e7e1:	48 89 e5             	mov    rbp,rsp
   14000e7e4:	48 83 ec 20          	sub    rsp,0x20
   14000e7e8:	48 89 4d 10          	mov    QWORD PTR [rbp+0x10],rcx
   14000e7ec:	48 89 55 18          	mov    QWORD PTR [rbp+0x18],rdx
   14000e7f0:	48 8b 45 10          	mov    rax,QWORD PTR [rbp+0x10]
   14000e7f4:	48 8b 55 18          	mov    rdx,QWORD PTR [rbp+0x18]
   14000e7f8:	48 89 c1             	mov    rcx,rax
   14000e7fb:	e8 60 fc ff ff       	call   14000e460 <_ZNSt11_Tuple_implILy0EJRKPvEEC2ES2_>
   14000e800:	90                   	nop
   14000e801:	48 83 c4 20          	add    rsp,0x20
   14000e805:	5d                   	pop    rbp
   14000e806:	c3                   	ret
   14000e807:	90                   	nop
   14000e808:	90                   	nop
   14000e809:	90                   	nop
   14000e80a:	90                   	nop
   14000e80b:	90                   	nop
   14000e80c:	90                   	nop
   14000e80d:	90                   	nop
   14000e80e:	90                   	nop
   14000e80f:	90                   	nop

000000014000e810 <_ZNSt8__detail10_Hash_nodeISt4pairIKPv12ucrt_wrapperELb0EEC1Ev>:
   14000e810:	55                   	push   rbp
   14000e811:	48 89 e5             	mov    rbp,rsp
   14000e814:	48 83 ec 20          	sub    rsp,0x20
   14000e818:	48 89 4d 10          	mov    QWORD PTR [rbp+0x10],rcx
   14000e81c:	48 8b 45 10          	mov    rax,QWORD PTR [rbp+0x10]
   14000e820:	48 89 c1             	mov    rcx,rax
   14000e823:	e8 a8 00 00 00       	call   14000e8d0 <_ZNSt8__detail15_Hash_node_baseC2Ev>
   14000e828:	90                   	nop
   14000e829:	48 83 c4 20          	add    rsp,0x20
   14000e82d:	5d                   	pop    rbp
   14000e82e:	c3                   	ret
   14000e82f:	90                   	nop

000000014000e830 <_ZNSt8__detail14_Node_iteratorISt4pairIKPv12ucrt_wrapperELb0ELb0EEC1EPNS_10_Hash_nodeIS5_Lb0EEE>:
   14000e830:	55                   	push   rbp
   14000e831:	48 89 e5             	mov    rbp,rsp
   14000e834:	48 83 ec 20          	sub    rsp,0x20
   14000e838:	48 89 4d 10          	mov    QWORD PTR [rbp+0x10],rcx
   14000e83c:	48 89 55 18          	mov    QWORD PTR [rbp+0x18],rdx
   14000e840:	48 8b 45 10          	mov    rax,QWORD PTR [rbp+0x10]
   14000e844:	48 8b 55 18          	mov    rdx,QWORD PTR [rbp+0x18]
   14000e848:	48 89 c1             	mov    rcx,rax
   14000e84b:	e8 20 06 00 00       	call   14000ee70 <_ZNSt8__detail19_Node_iterator_baseISt4pairIKPv12ucrt_wrapperELb0EEC2EPNS_10_Hash_nodeIS5_Lb0EEE>
   14000e850:	90                   	nop
   14000e851:	48 83 c4 20          	add    rsp,0x20
   14000e855:	5d                   	pop    rbp
   14000e856:	c3                   	ret
   14000e857:	90                   	nop
   14000e858:	90                   	nop
   14000e859:	90                   	nop
   14000e85a:	90                   	nop
   14000e85b:	90                   	nop
   14000e85c:	90                   	nop
   14000e85d:	90                   	nop
   14000e85e:	90                   	nop
   14000e85f:	90                   	nop

000000014000e860 <_ZNSt8__detail14_Node_iteratorISt4pairIKPv12ucrt_wrapperELb0ELb0EEppEv>:
   14000e860:	55                   	push   rbp
   14000e861:	48 89 e5             	mov    rbp,rsp
   14000e864:	48 83 ec 20          	sub    rsp,0x20
   14000e868:	48 89 4d 10          	mov    QWORD PTR [rbp+0x10],rcx
   14000e86c:	48 8b 45 10          	mov    rax,QWORD PTR [rbp+0x10]
   14000e870:	48 89 c1             	mov    rcx,rax
   14000e873:	e8 c8 05 00 00       	call   14000ee40 <_ZNSt8__detail19_Node_iterator_baseISt4pairIKPv12ucrt_wrapperELb0EE7_M_incrEv>
   14000e878:	48 8b 45 10          	mov    rax,QWORD PTR [rbp+0x10]
   14000e87c:	48 83 c4 20          	add    rsp,0x20
   14000e880:	5d                   	pop    rbp
   14000e881:	c3                   	ret
   14000e882:	90                   	nop
   14000e883:	90                   	nop
   14000e884:	90                   	nop
   14000e885:	90                   	nop
   14000e886:	90                   	nop
   14000e887:	90                   	nop
   14000e888:	90                   	nop
   14000e889:	90                   	nop
   14000e88a:	90                   	nop
   14000e88b:	90                   	nop
   14000e88c:	90                   	nop
   14000e88d:	90                   	nop
   14000e88e:	90                   	nop
   14000e88f:	90                   	nop

000000014000e890 <_ZNSt8__detail15_Hash_code_baseIPvSt4pairIKS1_12ucrt_wrapperENS_10_Select1stESt4hashIS1_ENS_18_Mod_range_hashingENS_20_Default_ranged_hashELb0EEC2Ev>:
   14000e890:	55                   	push   rbp
   14000e891:	48 89 e5             	mov    rbp,rsp
   14000e894:	48 83 ec 20          	sub    rsp,0x20
   14000e898:	48 89 4d 10          	mov    QWORD PTR [rbp+0x10],rcx
   14000e89c:	48 8b 45 10          	mov    rax,QWORD PTR [rbp+0x10]
   14000e8a0:	48 89 c1             	mov    rcx,rax
   14000e8a3:	e8 b8 06 00 00       	call   14000ef60 <_ZNSt8__detail21_Hashtable_ebo_helperILi1ESt4hashIPvELb1EEC2Ev>
   14000e8a8:	90                   	nop
   14000e8a9:	48 83 c4 20          	add    rsp,0x20
   14000e8ad:	5d                   	pop    rbp
   14000e8ae:	c3                   	ret
   14000e8af:	90                   	nop

000000014000e8b0 <_ZNSt8__detail15_Hash_node_baseC1Ev>:
   14000e8b0:	55                   	push   rbp
   14000e8b1:	48 89 e5             	mov    rbp,rsp
   14000e8b4:	48 89 4d 10          	mov    QWORD PTR [rbp+0x10],rcx
   14000e8b8:	48 8b 45 10          	mov    rax,QWORD PTR [rbp+0x10]
   14000e8bc:	48 c7 00 00 00 00 00 	mov    QWORD PTR [rax],0x0
   14000e8c3:	90                   	nop
   14000e8c4:	5d                   	pop    rbp
   14000e8c5:	c3                   	ret
   14000e8c6:	90                   	nop
   14000e8c7:	90                   	nop
   14000e8c8:	90                   	nop
   14000e8c9:	90                   	nop
   14000e8ca:	90                   	nop
   14000e8cb:	90                   	nop
   14000e8cc:	90                   	nop
   14000e8cd:	90                   	nop
   14000e8ce:	90                   	nop
   14000e8cf:	90                   	nop

000000014000e8d0 <_ZNSt8__detail15_Hash_node_baseC2Ev>:
   14000e8d0:	55                   	push   rbp
   14000e8d1:	48 89 e5             	mov    rbp,rsp
   14000e8d4:	48 89 4d 10          	mov    QWORD PTR [rbp+0x10],rcx
   14000e8d8:	48 8b 45 10          	mov    rax,QWORD PTR [rbp+0x10]
   14000e8dc:	48 c7 00 00 00 00 00 	mov    QWORD PTR [rax],0x0
   14000e8e3:	90                   	nop
   14000e8e4:	5d                   	pop    rbp
   14000e8e5:	c3                   	ret
   14000e8e6:	90                   	nop
   14000e8e7:	90                   	nop
   14000e8e8:	90                   	nop
   14000e8e9:	90                   	nop
   14000e8ea:	90                   	nop
   14000e8eb:	90                   	nop
   14000e8ec:	90                   	nop
   14000e8ed:	90                   	nop
   14000e8ee:	90                   	nop
   14000e8ef:	90                   	nop

000000014000e8f0 <_ZNSt8__detail15_Hashtable_baseIPvSt4pairIKS1_12ucrt_wrapperENS_10_Select1stESt8equal_toIS1_ESt4hashIS1_ENS_18_Mod_range_hashingENS_20_Default_ranged_hashENS_17_Hashtable_traitsILb0ELb0ELb1EEEE9_S_equalsEyRKNS_21_Hash_node_code_cacheILb0EEE>:
   14000e8f0:	55                   	push   rbp
   14000e8f1:	48 89 e5             	mov    rbp,rsp
   14000e8f4:	48 89 4d 10          	mov    QWORD PTR [rbp+0x10],rcx
   14000e8f8:	48 89 55 18          	mov    QWORD PTR [rbp+0x18],rdx
   14000e8fc:	b8 01 00 00 00       	mov    eax,0x1
   14000e901:	5d                   	pop    rbp
   14000e902:	c3                   	ret
   14000e903:	90                   	nop
   14000e904:	90                   	nop
   14000e905:	90                   	nop
   14000e906:	90                   	nop
   14000e907:	90                   	nop
   14000e908:	90                   	nop
   14000e909:	90                   	nop
   14000e90a:	90                   	nop
   14000e90b:	90                   	nop
   14000e90c:	90                   	nop
   14000e90d:	90                   	nop
   14000e90e:	90                   	nop
   14000e90f:	90                   	nop

000000014000e910 <_ZNSt8__detail15_Hashtable_baseIPvSt4pairIKS1_12ucrt_wrapperENS_10_Select1stESt8equal_toIS1_ESt4hashIS1_ENS_18_Mod_range_hashingENS_20_Default_ranged_hashENS_17_Hashtable_traitsILb0ELb0ELb1EEEEC2Ev>:
   14000e910:	55                   	push   rbp
   14000e911:	48 89 e5             	mov    rbp,rsp
   14000e914:	48 83 ec 20          	sub    rsp,0x20
   14000e918:	48 89 4d 10          	mov    QWORD PTR [rbp+0x10],rcx
   14000e91c:	48 8b 45 10          	mov    rax,QWORD PTR [rbp+0x10]
   14000e920:	48 89 c1             	mov    rcx,rax
   14000e923:	e8 68 ff ff ff       	call   14000e890 <_ZNSt8__detail15_Hash_code_baseIPvSt4pairIKS1_12ucrt_wrapperENS_10_Select1stESt4hashIS1_ENS_18_Mod_range_hashingENS_20_Default_ranged_hashELb0EEC2Ev>
   14000e928:	48 8b 45 10          	mov    rax,QWORD PTR [rbp+0x10]
   14000e92c:	48 89 c1             	mov    rcx,rax
   14000e92f:	e8 1c 06 00 00       	call   14000ef50 <_ZNSt8__detail21_Hashtable_ebo_helperILi0ESt8equal_toIPvELb1EEC2Ev>
   14000e934:	90                   	nop
   14000e935:	48 83 c4 20          	add    rsp,0x20
   14000e939:	5d                   	pop    rbp
   14000e93a:	c3                   	ret
   14000e93b:	90                   	nop
   14000e93c:	90                   	nop
   14000e93d:	90                   	nop
   14000e93e:	90                   	nop
   14000e93f:	90                   	nop

000000014000e940 <_ZNSt8__detail16_Hashtable_allocISaINS_10_Hash_nodeISt4pairIKPv12ucrt_wrapperELb0EEEEE16_M_allocate_nodeIJRKSt21piecewise_construct_tSt5tupleIJRS4_EESE_IJEEEEEPS7_DpOT_>:
   14000e940:	55                   	push   rbp
   14000e941:	41 56                	push   r14
   14000e943:	41 55                	push   r13
   14000e945:	41 54                	push   r12
   14000e947:	57                   	push   rdi
   14000e948:	56                   	push   rsi
   14000e949:	53                   	push   rbx
   14000e94a:	48 81 ec c0 00 00 00 	sub    rsp,0xc0
   14000e951:	48 8d ac 24 c0 00 00 	lea    rbp,[rsp+0xc0]
   14000e958:	00 
   14000e959:	48 89 4d 40          	mov    QWORD PTR [rbp+0x40],rcx
   14000e95d:	48 89 55 48          	mov    QWORD PTR [rbp+0x48],rdx
   14000e961:	4c 89 45 50          	mov    QWORD PTR [rbp+0x50],r8
   14000e965:	4c 89 4d 58          	mov    QWORD PTR [rbp+0x58],r9
   14000e969:	48 8b 45 40          	mov    rax,QWORD PTR [rbp+0x40]
   14000e96d:	48 89 c1             	mov    rcx,rax
   14000e970:	e8 0b 02 00 00       	call   14000eb80 <_ZNSt8__detail16_Hashtable_allocISaINS_10_Hash_nodeISt4pairIKPv12ucrt_wrapperELb0EEEEE17_M_node_allocatorEv>
   14000e975:	48 89 45 e0          	mov    QWORD PTR [rbp-0x20],rax
   14000e979:	48 c7 45 d8 01 00 00 	mov    QWORD PTR [rbp-0x28],0x1
   14000e980:	00 
   14000e981:	48 8b 55 d8          	mov    rdx,QWORD PTR [rbp-0x28]
   14000e985:	48 8b 45 e0          	mov    rax,QWORD PTR [rbp-0x20]
   14000e989:	41 b8 00 00 00 00    	mov    r8d,0x0
   14000e98f:	48 89 c1             	mov    rcx,rax
   14000e992:	e8 f9 fb ff ff       	call   14000e590 <_ZNSt15__new_allocatorINSt8__detail10_Hash_nodeISt4pairIKPv12ucrt_wrapperELb0EEEE8allocateEyPKv>
   14000e997:	90                   	nop
   14000e998:	48 89 45 f8          	mov    QWORD PTR [rbp-0x8],rax
   14000e99c:	48 8b 45 f8          	mov    rax,QWORD PTR [rbp-0x8]
   14000e9a0:	48 89 c1             	mov    rcx,rax
   14000e9a3:	e8 c8 07 00 00       	call   14000f170 <_ZSt12__to_addressINSt8__detail10_Hash_nodeISt4pairIKPv12ucrt_wrapperELb0EEEEPT_S9_>
   14000e9a8:	48 89 45 f0          	mov    QWORD PTR [rbp-0x10],rax
   14000e9ac:	48 8b 45 f0          	mov    rax,QWORD PTR [rbp-0x10]
   14000e9b0:	48 89 c2             	mov    rdx,rax
   14000e9b3:	b9 28 00 00 00       	mov    ecx,0x28
   14000e9b8:	e8 93 08 00 00       	call   14000f250 <_ZnwyPv>
   14000e9bd:	48 89 c1             	mov    rcx,rax
   14000e9c0:	e8 4b fe ff ff       	call   14000e810 <_ZNSt8__detail10_Hash_nodeISt4pairIKPv12ucrt_wrapperELb0EEC1Ev>
   14000e9c5:	48 8b 45 58          	mov    rax,QWORD PTR [rbp+0x58]
   14000e9c9:	48 89 c1             	mov    rcx,rax
   14000e9cc:	e8 0f 08 00 00       	call   14000f1e0 <_ZSt7forwardISt5tupleIJEEEOT_RNSt16remove_referenceIS2_E4typeE>
   14000e9d1:	48 89 c3             	mov    rbx,rax
   14000e9d4:	48 8b 45 50          	mov    rax,QWORD PTR [rbp+0x50]
   14000e9d8:	48 89 c1             	mov    rcx,rax
   14000e9db:	e8 10 08 00 00       	call   14000f1f0 <_ZSt7forwardISt5tupleIJRKPvEEEOT_RNSt16remove_referenceIS5_E4typeE>
   14000e9e0:	48 89 c6             	mov    rsi,rax
   14000e9e3:	48 8b 45 48          	mov    rax,QWORD PTR [rbp+0x48]
   14000e9e7:	48 89 c1             	mov    rcx,rax
   14000e9ea:	e8 d1 07 00 00       	call   14000f1c0 <_ZSt7forwardIRKSt21piecewise_construct_tEOT_RNSt16remove_referenceIS3_E4typeE>
   14000e9ef:	48 89 c7             	mov    rdi,rax
   14000e9f2:	48 8b 45 f0          	mov    rax,QWORD PTR [rbp-0x10]
   14000e9f6:	48 83 c0 08          	add    rax,0x8
   14000e9fa:	48 89 45 e8          	mov    QWORD PTR [rbp-0x18],rax
   14000e9fe:	48 8b 45 e8          	mov    rax,QWORD PTR [rbp-0x18]
   14000ea02:	48 89 c1             	mov    rcx,rax
   14000ea05:	e8 86 eb ff ff       	call   14000d590 <_ZN9__gnu_cxx16__aligned_bufferISt4pairIKPv12ucrt_wrapperEE6_M_ptrEv>
   14000ea0a:	49 89 c4             	mov    r12,rax
   14000ea0d:	90                   	nop
   14000ea0e:	48 8b 45 40          	mov    rax,QWORD PTR [rbp+0x40]
   14000ea12:	48 89 c1             	mov    rcx,rax
   14000ea15:	e8 66 01 00 00       	call   14000eb80 <_ZNSt8__detail16_Hashtable_allocISaINS_10_Hash_nodeISt4pairIKPv12ucrt_wrapperELb0EEEEE17_M_node_allocatorEv>
   14000ea1a:	48 89 45 d0          	mov    QWORD PTR [rbp-0x30],rax
   14000ea1e:	4c 89 65 c8          	mov    QWORD PTR [rbp-0x38],r12
   14000ea22:	48 89 7d c0          	mov    QWORD PTR [rbp-0x40],rdi
   14000ea26:	48 89 75 b8          	mov    QWORD PTR [rbp-0x48],rsi
   14000ea2a:	48 89 5d b0          	mov    QWORD PTR [rbp-0x50],rbx
   14000ea2e:	48 8b 45 b0          	mov    rax,QWORD PTR [rbp-0x50]
   14000ea32:	48 89 c1             	mov    rcx,rax
   14000ea35:	e8 a6 07 00 00       	call   14000f1e0 <_ZSt7forwardISt5tupleIJEEEOT_RNSt16remove_referenceIS2_E4typeE>
   14000ea3a:	48 89 c3             	mov    rbx,rax
   14000ea3d:	48 8b 45 b8          	mov    rax,QWORD PTR [rbp-0x48]
   14000ea41:	48 89 c1             	mov    rcx,rax
   14000ea44:	e8 a7 07 00 00       	call   14000f1f0 <_ZSt7forwardISt5tupleIJRKPvEEEOT_RNSt16remove_referenceIS5_E4typeE>
   14000ea49:	48 89 c6             	mov    rsi,rax
   14000ea4c:	48 8b 45 c0          	mov    rax,QWORD PTR [rbp-0x40]
   14000ea50:	48 89 c1             	mov    rcx,rax
   14000ea53:	e8 68 07 00 00       	call   14000f1c0 <_ZSt7forwardIRKSt21piecewise_construct_tEOT_RNSt16remove_referenceIS3_E4typeE>
   14000ea58:	48 8b 55 d0          	mov    rdx,QWORD PTR [rbp-0x30]
   14000ea5c:	48 89 55 a8          	mov    QWORD PTR [rbp-0x58],rdx
   14000ea60:	48 8b 55 c8          	mov    rdx,QWORD PTR [rbp-0x38]
   14000ea64:	48 89 55 a0          	mov    QWORD PTR [rbp-0x60],rdx
   14000ea68:	48 89 45 98          	mov    QWORD PTR [rbp-0x68],rax
   14000ea6c:	48 89 75 90          	mov    QWORD PTR [rbp-0x70],rsi
   14000ea70:	48 89 5d 88          	mov    QWORD PTR [rbp-0x78],rbx
   14000ea74:	48 8b 5d a0          	mov    rbx,QWORD PTR [rbp-0x60]
   14000ea78:	48 89 da             	mov    rdx,rbx
   14000ea7b:	b9 20 00 00 00       	mov    ecx,0x20
   14000ea80:	e8 cb 07 00 00       	call   14000f250 <_ZnwyPv>
   14000ea85:	48 89 c6             	mov    rsi,rax
   14000ea88:	41 bc 01 00 00 00    	mov    r12d,0x1
   14000ea8e:	48 8b 45 88          	mov    rax,QWORD PTR [rbp-0x78]
   14000ea92:	48 89 c1             	mov    rcx,rax
   14000ea95:	e8 46 07 00 00       	call   14000f1e0 <_ZSt7forwardISt5tupleIJEEEOT_RNSt16remove_referenceIS2_E4typeE>
   14000ea9a:	48 8b 45 90          	mov    rax,QWORD PTR [rbp-0x70]
   14000ea9e:	48 89 c1             	mov    rcx,rax
   14000eaa1:	e8 4a 07 00 00       	call   14000f1f0 <_ZSt7forwardISt5tupleIJRKPvEEEOT_RNSt16remove_referenceIS5_E4typeE>
   14000eaa6:	48 89 c2             	mov    rdx,rax
   14000eaa9:	48 8d 85 68 ff ff ff 	lea    rax,[rbp-0x98]
   14000eab0:	48 89 c1             	mov    rcx,rax
   14000eab3:	e8 f8 fc ff ff       	call   14000e7b0 <_ZNSt5tupleIJRKPvEEC1EOS3_>
   14000eab8:	48 8b 45 98          	mov    rax,QWORD PTR [rbp-0x68]
   14000eabc:	48 89 c1             	mov    rcx,rax
   14000eabf:	e8 fc 06 00 00       	call   14000f1c0 <_ZSt7forwardIRKSt21piecewise_construct_tEOT_RNSt16remove_referenceIS3_E4typeE>
   14000eac4:	48 8d 85 68 ff ff ff 	lea    rax,[rbp-0x98]
   14000eacb:	45 89 f1             	mov    r9d,r14d
   14000eace:	49 89 c0             	mov    r8,rax
   14000ead1:	44 89 ea             	mov    edx,r13d
   14000ead4:	48 89 f1             	mov    rcx,rsi
   14000ead7:	e8 44 fc ff ff       	call   14000e720 <_ZNSt4pairIKPv12ucrt_wrapperEC1IJRS1_EJEEESt21piecewise_construct_tSt5tupleIJDpT_EES7_IJDpT0_EE>
   14000eadc:	90                   	nop
   14000eadd:	90                   	nop
   14000eade:	48 8b 45 f0          	mov    rax,QWORD PTR [rbp-0x10]
   14000eae2:	eb 7c                	jmp    14000eb60 <_ZNSt8__detail16_Hashtable_allocISaINS_10_Hash_nodeISt4pairIKPv12ucrt_wrapperELb0EEEEE16_M_allocate_nodeIJRKSt21piecewise_construct_tSt5tupleIJRS4_EESE_IJEEEEEPS7_DpOT_+0x220>
   14000eae4:	48 89 c7             	mov    rdi,rax
   14000eae7:	45 84 e4             	test   r12b,r12b
   14000eaea:	74 0b                	je     14000eaf7 <_ZNSt8__detail16_Hashtable_allocISaINS_10_Hash_nodeISt4pairIKPv12ucrt_wrapperELb0EEEEE16_M_allocate_nodeIJRKSt21piecewise_construct_tSt5tupleIJRS4_EESE_IJEEEEEPS7_DpOT_+0x1b7>
   14000eaec:	48 89 da             	mov    rdx,rbx
   14000eaef:	48 89 f1             	mov    rcx,rsi
   14000eaf2:	e8 49 07 00 00       	call   14000f240 <_ZdlPvS_>
   14000eaf7:	48 89 f8             	mov    rax,rdi
   14000eafa:	eb 00                	jmp    14000eafc <_ZNSt8__detail16_Hashtable_allocISaINS_10_Hash_nodeISt4pairIKPv12ucrt_wrapperELb0EEEEE16_M_allocate_nodeIJRKSt21piecewise_construct_tSt5tupleIJRS4_EESE_IJEEEEEPS7_DpOT_+0x1bc>
   14000eafc:	48 89 c1             	mov    rcx,rax
   14000eaff:	e8 cc d5 ff ff       	call   14000c0d0 <__cxa_begin_catch>
   14000eb04:	48 8b 45 40          	mov    rax,QWORD PTR [rbp+0x40]
   14000eb08:	48 89 c1             	mov    rcx,rax
   14000eb0b:	e8 70 00 00 00       	call   14000eb80 <_ZNSt8__detail16_Hashtable_allocISaINS_10_Hash_nodeISt4pairIKPv12ucrt_wrapperELb0EEEEE17_M_node_allocatorEv>
   14000eb10:	48 89 45 80          	mov    QWORD PTR [rbp-0x80],rax
   14000eb14:	48 8b 45 f8          	mov    rax,QWORD PTR [rbp-0x8]
   14000eb18:	48 89 85 78 ff ff ff 	mov    QWORD PTR [rbp-0x88],rax
   14000eb1f:	48 c7 85 70 ff ff ff 	mov    QWORD PTR [rbp-0x90],0x1
   14000eb26:	01 00 00 00 
   14000eb2a:	48 8b 8d 70 ff ff ff 	mov    rcx,QWORD PTR [rbp-0x90]
   14000eb31:	48 8b 95 78 ff ff ff 	mov    rdx,QWORD PTR [rbp-0x88]
   14000eb38:	48 8b 45 80          	mov    rax,QWORD PTR [rbp-0x80]
   14000eb3c:	49 89 c8             	mov    r8,rcx
   14000eb3f:	48 89 c1             	mov    rcx,rax
   14000eb42:	e8 09 fa ff ff       	call   14000e550 <_ZNSt15__new_allocatorINSt8__detail10_Hash_nodeISt4pairIKPv12ucrt_wrapperELb0EEEE10deallocateEPS7_y>
   14000eb47:	90                   	nop
   14000eb48:	e8 5b d5 ff ff       	call   14000c0a8 <__cxa_rethrow>
   14000eb4d:	48 89 c3             	mov    rbx,rax
   14000eb50:	e8 73 d5 ff ff       	call   14000c0c8 <__cxa_end_catch>
   14000eb55:	48 89 d8             	mov    rax,rbx
   14000eb58:	48 89 c1             	mov    rcx,rax
   14000eb5b:	e8 70 e6 ff ff       	call   14000d1d0 <_Unwind_Resume>
   14000eb60:	48 81 c4 c0 00 00 00 	add    rsp,0xc0
   14000eb67:	5b                   	pop    rbx
   14000eb68:	5e                   	pop    rsi
   14000eb69:	5f                   	pop    rdi
   14000eb6a:	41 5c                	pop    r12
   14000eb6c:	41 5d                	pop    r13
   14000eb6e:	41 5e                	pop    r14
   14000eb70:	5d                   	pop    rbp
   14000eb71:	c3                   	ret
   14000eb72:	90                   	nop
   14000eb73:	90                   	nop
   14000eb74:	90                   	nop
   14000eb75:	90                   	nop
   14000eb76:	90                   	nop
   14000eb77:	90                   	nop
   14000eb78:	90                   	nop
   14000eb79:	90                   	nop
   14000eb7a:	90                   	nop
   14000eb7b:	90                   	nop
   14000eb7c:	90                   	nop
   14000eb7d:	90                   	nop
   14000eb7e:	90                   	nop
   14000eb7f:	90                   	nop

000000014000eb80 <_ZNSt8__detail16_Hashtable_allocISaINS_10_Hash_nodeISt4pairIKPv12ucrt_wrapperELb0EEEEE17_M_node_allocatorEv>:
   14000eb80:	55                   	push   rbp
   14000eb81:	48 89 e5             	mov    rbp,rsp
   14000eb84:	48 83 ec 20          	sub    rsp,0x20
   14000eb88:	48 89 4d 10          	mov    QWORD PTR [rbp+0x10],rcx
   14000eb8c:	48 8b 45 10          	mov    rax,QWORD PTR [rbp+0x10]
   14000eb90:	48 89 c1             	mov    rcx,rax
   14000eb93:	e8 48 03 00 00       	call   14000eee0 <_ZNSt8__detail21_Hashtable_ebo_helperILi0ESaINS_10_Hash_nodeISt4pairIKPv12ucrt_wrapperELb0EEEELb1EE6_M_getEv>
   14000eb98:	48 83 c4 20          	add    rsp,0x20
   14000eb9c:	5d                   	pop    rbp
   14000eb9d:	c3                   	ret
   14000eb9e:	90                   	nop
   14000eb9f:	90                   	nop

000000014000eba0 <_ZNSt8__detail16_Hashtable_allocISaINS_10_Hash_nodeISt4pairIKPv12ucrt_wrapperELb0EEEEE18_M_deallocate_nodeEPS7_>:
   14000eba0:	55                   	push   rbp
   14000eba1:	53                   	push   rbx
   14000eba2:	48 83 ec 58          	sub    rsp,0x58
   14000eba6:	48 8d 6c 24 50       	lea    rbp,[rsp+0x50]
   14000ebab:	48 89 4d 20          	mov    QWORD PTR [rbp+0x20],rcx
   14000ebaf:	48 89 55 28          	mov    QWORD PTR [rbp+0x28],rdx
   14000ebb3:	48 8b 45 28          	mov    rax,QWORD PTR [rbp+0x28]
   14000ebb7:	48 83 c0 08          	add    rax,0x8
   14000ebbb:	48 89 45 d8          	mov    QWORD PTR [rbp-0x28],rax
   14000ebbf:	48 8b 45 d8          	mov    rax,QWORD PTR [rbp-0x28]
   14000ebc3:	48 89 c1             	mov    rcx,rax
   14000ebc6:	e8 c5 e9 ff ff       	call   14000d590 <_ZN9__gnu_cxx16__aligned_bufferISt4pairIKPv12ucrt_wrapperEE6_M_ptrEv>
   14000ebcb:	48 89 c3             	mov    rbx,rax
   14000ebce:	90                   	nop
   14000ebcf:	48 8b 45 20          	mov    rax,QWORD PTR [rbp+0x20]
   14000ebd3:	48 89 c1             	mov    rcx,rax
   14000ebd6:	e8 a5 ff ff ff       	call   14000eb80 <_ZNSt8__detail16_Hashtable_allocISaINS_10_Hash_nodeISt4pairIKPv12ucrt_wrapperELb0EEEEE17_M_node_allocatorEv>
   14000ebdb:	48 89 45 f8          	mov    QWORD PTR [rbp-0x8],rax
   14000ebdf:	48 89 5d f0          	mov    QWORD PTR [rbp-0x10],rbx
   14000ebe3:	48 8b 45 f8          	mov    rax,QWORD PTR [rbp-0x8]
   14000ebe7:	48 89 45 e8          	mov    QWORD PTR [rbp-0x18],rax
   14000ebeb:	48 8b 45 f0          	mov    rax,QWORD PTR [rbp-0x10]
   14000ebef:	48 89 45 e0          	mov    QWORD PTR [rbp-0x20],rax
   14000ebf3:	90                   	nop
   14000ebf4:	90                   	nop
   14000ebf5:	48 8b 55 28          	mov    rdx,QWORD PTR [rbp+0x28]
   14000ebf9:	48 8b 45 20          	mov    rax,QWORD PTR [rbp+0x20]
   14000ebfd:	48 89 c1             	mov    rcx,rax
   14000ec00:	e8 9b 01 00 00       	call   14000eda0 <_ZNSt8__detail16_Hashtable_allocISaINS_10_Hash_nodeISt4pairIKPv12ucrt_wrapperELb0EEEEE22_M_deallocate_node_ptrEPS7_>
   14000ec05:	90                   	nop
   14000ec06:	48 83 c4 58          	add    rsp,0x58
   14000ec0a:	5b                   	pop    rbx
   14000ec0b:	5d                   	pop    rbp
   14000ec0c:	c3                   	ret
   14000ec0d:	90                   	nop
   14000ec0e:	90                   	nop
   14000ec0f:	90                   	nop

000000014000ec10 <_ZNSt8__detail16_Hashtable_allocISaINS_10_Hash_nodeISt4pairIKPv12ucrt_wrapperELb0EEEEE19_M_allocate_bucketsEy>:
   14000ec10:	55                   	push   rbp
   14000ec11:	53                   	push   rbx
   14000ec12:	48 83 ec 58          	sub    rsp,0x58
   14000ec16:	48 8d 6c 24 50       	lea    rbp,[rsp+0x50]
   14000ec1b:	48 89 4d 20          	mov    QWORD PTR [rbp+0x20],rcx
   14000ec1f:	48 89 55 28          	mov    QWORD PTR [rbp+0x28],rdx
   14000ec23:	48 8b 45 20          	mov    rax,QWORD PTR [rbp+0x20]
   14000ec27:	48 89 c1             	mov    rcx,rax
   14000ec2a:	e8 51 ff ff ff       	call   14000eb80 <_ZNSt8__detail16_Hashtable_allocISaINS_10_Hash_nodeISt4pairIKPv12ucrt_wrapperELb0EEEEE17_M_node_allocatorEv>
   14000ec2f:	48 89 45 e0          	mov    QWORD PTR [rbp-0x20],rax
   14000ec33:	48 8d 45 d7          	lea    rax,[rbp-0x29]
   14000ec37:	48 89 45 d8          	mov    QWORD PTR [rbp-0x28],rax
   14000ec3b:	90                   	nop
   14000ec3c:	90                   	nop
   14000ec3d:	48 8b 45 28          	mov    rax,QWORD PTR [rbp+0x28]
   14000ec41:	48 89 45 e8          	mov    QWORD PTR [rbp-0x18],rax
   14000ec45:	48 8b 55 e8          	mov    rdx,QWORD PTR [rbp-0x18]
   14000ec49:	48 8d 45 d7          	lea    rax,[rbp-0x29]
   14000ec4d:	41 b8 00 00 00 00    	mov    r8d,0x0
   14000ec53:	48 89 c1             	mov    rcx,rax
   14000ec56:	e8 05 fa ff ff       	call   14000e660 <_ZNSt15__new_allocatorIPNSt8__detail15_Hash_node_baseEE8allocateEyPKv>
   14000ec5b:	90                   	nop
   14000ec5c:	48 89 45 f8          	mov    QWORD PTR [rbp-0x8],rax
   14000ec60:	48 8b 45 f8          	mov    rax,QWORD PTR [rbp-0x8]
   14000ec64:	48 89 c1             	mov    rcx,rax
   14000ec67:	e8 14 05 00 00       	call   14000f180 <_ZSt12__to_addressIPNSt8__detail15_Hash_node_baseEEPT_S4_>
   14000ec6c:	48 89 45 f0          	mov    QWORD PTR [rbp-0x10],rax
   14000ec70:	48 8b 45 28          	mov    rax,QWORD PTR [rbp+0x28]
   14000ec74:	48 8d 14 c5 00 00 00 	lea    rdx,[rax*8+0x0]
   14000ec7b:	00 
   14000ec7c:	48 8b 45 f0          	mov    rax,QWORD PTR [rbp-0x10]
   14000ec80:	49 89 d0             	mov    r8,rdx
   14000ec83:	ba 00 00 00 00       	mov    edx,0x0
   14000ec88:	48 89 c1             	mov    rcx,rax
   14000ec8b:	e8 88 e6 ff ff       	call   14000d318 <memset>
   14000ec90:	48 8b 5d f0          	mov    rbx,QWORD PTR [rbp-0x10]
   14000ec94:	48 8d 45 d7          	lea    rax,[rbp-0x29]
   14000ec98:	48 89 c1             	mov    rcx,rax
   14000ec9b:	e8 30 fa ff ff       	call   14000e6d0 <_ZNSt15__new_allocatorIPNSt8__detail15_Hash_node_baseEED2Ev>
   14000eca0:	90                   	nop
   14000eca1:	48 89 d8             	mov    rax,rbx
   14000eca4:	eb 1b                	jmp    14000ecc1 <_ZNSt8__detail16_Hashtable_allocISaINS_10_Hash_nodeISt4pairIKPv12ucrt_wrapperELb0EEEEE19_M_allocate_bucketsEy+0xb1>
   14000eca6:	48 89 c3             	mov    rbx,rax
   14000eca9:	48 8d 45 d7          	lea    rax,[rbp-0x29]
   14000ecad:	48 89 c1             	mov    rcx,rax
   14000ecb0:	e8 1b fa ff ff       	call   14000e6d0 <_ZNSt15__new_allocatorIPNSt8__detail15_Hash_node_baseEED2Ev>
   14000ecb5:	90                   	nop
   14000ecb6:	48 89 d8             	mov    rax,rbx
   14000ecb9:	48 89 c1             	mov    rcx,rax
   14000ecbc:	e8 0f e5 ff ff       	call   14000d1d0 <_Unwind_Resume>
   14000ecc1:	48 83 c4 58          	add    rsp,0x58
   14000ecc5:	5b                   	pop    rbx
   14000ecc6:	5d                   	pop    rbp
   14000ecc7:	c3                   	ret
   14000ecc8:	90                   	nop
   14000ecc9:	90                   	nop
   14000ecca:	90                   	nop
   14000eccb:	90                   	nop
   14000eccc:	90                   	nop
   14000eccd:	90                   	nop
   14000ecce:	90                   	nop
   14000eccf:	90                   	nop

000000014000ecd0 <_ZNSt8__detail16_Hashtable_allocISaINS_10_Hash_nodeISt4pairIKPv12ucrt_wrapperELb0EEEEE19_M_deallocate_nodesEPS7_>:
   14000ecd0:	55                   	push   rbp
   14000ecd1:	48 89 e5             	mov    rbp,rsp
   14000ecd4:	48 83 ec 30          	sub    rsp,0x30
   14000ecd8:	48 89 4d 10          	mov    QWORD PTR [rbp+0x10],rcx
   14000ecdc:	48 89 55 18          	mov    QWORD PTR [rbp+0x18],rdx
   14000ece0:	eb 28                	jmp    14000ed0a <_ZNSt8__detail16_Hashtable_allocISaINS_10_Hash_nodeISt4pairIKPv12ucrt_wrapperELb0EEEEE19_M_deallocate_nodesEPS7_+0x3a>
   14000ece2:	48 8b 45 18          	mov    rax,QWORD PTR [rbp+0x18]
   14000ece6:	48 89 45 f8          	mov    QWORD PTR [rbp-0x8],rax
   14000ecea:	48 8b 45 18          	mov    rax,QWORD PTR [rbp+0x18]
   14000ecee:	48 89 c1             	mov    rcx,rax
   14000ecf1:	e8 4a eb ff ff       	call   14000d840 <_ZNKSt8__detail10_Hash_nodeISt4pairIKPv12ucrt_wrapperELb0EE7_M_nextEv>
   14000ecf6:	48 89 45 18          	mov    QWORD PTR [rbp+0x18],rax
   14000ecfa:	48 8b 55 f8          	mov    rdx,QWORD PTR [rbp-0x8]
   14000ecfe:	48 8b 45 10          	mov    rax,QWORD PTR [rbp+0x10]
   14000ed02:	48 89 c1             	mov    rcx,rax
   14000ed05:	e8 96 fe ff ff       	call   14000eba0 <_ZNSt8__detail16_Hashtable_allocISaINS_10_Hash_nodeISt4pairIKPv12ucrt_wrapperELb0EEEEE18_M_deallocate_nodeEPS7_>
   14000ed0a:	48 83 7d 18 00       	cmp    QWORD PTR [rbp+0x18],0x0
   14000ed0f:	75 d1                	jne    14000ece2 <_ZNSt8__detail16_Hashtable_allocISaINS_10_Hash_nodeISt4pairIKPv12ucrt_wrapperELb0EEEEE19_M_deallocate_nodesEPS7_+0x12>
   14000ed11:	90                   	nop
   14000ed12:	90                   	nop
   14000ed13:	48 83 c4 30          	add    rsp,0x30
   14000ed17:	5d                   	pop    rbp
   14000ed18:	c3                   	ret
   14000ed19:	90                   	nop
   14000ed1a:	90                   	nop
   14000ed1b:	90                   	nop
   14000ed1c:	90                   	nop
   14000ed1d:	90                   	nop
   14000ed1e:	90                   	nop
   14000ed1f:	90                   	nop

000000014000ed20 <_ZNSt8__detail16_Hashtable_allocISaINS_10_Hash_nodeISt4pairIKPv12ucrt_wrapperELb0EEEEE21_M_deallocate_bucketsEPPNS_15_Hash_node_baseEy>:
   14000ed20:	55                   	push   rbp
   14000ed21:	48 89 e5             	mov    rbp,rsp
   14000ed24:	48 83 ec 50          	sub    rsp,0x50
   14000ed28:	48 89 4d 10          	mov    QWORD PTR [rbp+0x10],rcx
   14000ed2c:	48 89 55 18          	mov    QWORD PTR [rbp+0x18],rdx
   14000ed30:	4c 89 45 20          	mov    QWORD PTR [rbp+0x20],r8
   14000ed34:	48 8b 45 18          	mov    rax,QWORD PTR [rbp+0x18]
   14000ed38:	48 89 c1             	mov    rcx,rax
   14000ed3b:	e8 c0 f9 ff ff       	call   14000e700 <_ZNSt19__ptr_traits_ptr_toIPPNSt8__detail15_Hash_node_baseES2_Lb0EE10pointer_toERS2_>
   14000ed40:	48 89 45 f8          	mov    QWORD PTR [rbp-0x8],rax
   14000ed44:	48 8b 45 10          	mov    rax,QWORD PTR [rbp+0x10]
   14000ed48:	48 89 c1             	mov    rcx,rax
   14000ed4b:	e8 30 fe ff ff       	call   14000eb80 <_ZNSt8__detail16_Hashtable_allocISaINS_10_Hash_nodeISt4pairIKPv12ucrt_wrapperELb0EEEEE17_M_node_allocatorEv>
   14000ed50:	48 89 45 e0          	mov    QWORD PTR [rbp-0x20],rax
   14000ed54:	48 8d 45 d7          	lea    rax,[rbp-0x29]
   14000ed58:	48 89 45 d8          	mov    QWORD PTR [rbp-0x28],rax
   14000ed5c:	90                   	nop
   14000ed5d:	90                   	nop
   14000ed5e:	48 8b 45 f8          	mov    rax,QWORD PTR [rbp-0x8]
   14000ed62:	48 89 45 f0          	mov    QWORD PTR [rbp-0x10],rax
   14000ed66:	48 8b 45 20          	mov    rax,QWORD PTR [rbp+0x20]
   14000ed6a:	48 89 45 e8          	mov    QWORD PTR [rbp-0x18],rax
   14000ed6e:	48 8b 4d e8          	mov    rcx,QWORD PTR [rbp-0x18]
   14000ed72:	48 8b 55 f0          	mov    rdx,QWORD PTR [rbp-0x10]
   14000ed76:	48 8d 45 d7          	lea    rax,[rbp-0x29]
   14000ed7a:	49 89 c8             	mov    r8,rcx
   14000ed7d:	48 89 c1             	mov    rcx,rax
   14000ed80:	e8 9b f8 ff ff       	call   14000e620 <_ZNSt15__new_allocatorIPNSt8__detail15_Hash_node_baseEE10deallocateEPS2_y>
   14000ed85:	90                   	nop
   14000ed86:	48 8d 45 d7          	lea    rax,[rbp-0x29]
   14000ed8a:	48 89 c1             	mov    rcx,rax
   14000ed8d:	e8 3e f9 ff ff       	call   14000e6d0 <_ZNSt15__new_allocatorIPNSt8__detail15_Hash_node_baseEED2Ev>
   14000ed92:	90                   	nop
   14000ed93:	90                   	nop
   14000ed94:	48 83 c4 50          	add    rsp,0x50
   14000ed98:	5d                   	pop    rbp
   14000ed99:	c3                   	ret
   14000ed9a:	90                   	nop
   14000ed9b:	90                   	nop
   14000ed9c:	90                   	nop
   14000ed9d:	90                   	nop
   14000ed9e:	90                   	nop
   14000ed9f:	90                   	nop

000000014000eda0 <_ZNSt8__detail16_Hashtable_allocISaINS_10_Hash_nodeISt4pairIKPv12ucrt_wrapperELb0EEEEE22_M_deallocate_node_ptrEPS7_>:
   14000eda0:	55                   	push   rbp
   14000eda1:	48 89 e5             	mov    rbp,rsp
   14000eda4:	48 83 ec 40          	sub    rsp,0x40
   14000eda8:	48 89 4d 10          	mov    QWORD PTR [rbp+0x10],rcx
   14000edac:	48 89 55 18          	mov    QWORD PTR [rbp+0x18],rdx
   14000edb0:	48 8b 45 18          	mov    rax,QWORD PTR [rbp+0x18]
   14000edb4:	48 89 c1             	mov    rcx,rax
   14000edb7:	e8 24 f9 ff ff       	call   14000e6e0 <_ZNSt19__ptr_traits_ptr_toIPNSt8__detail10_Hash_nodeISt4pairIKPv12ucrt_wrapperELb0EEES7_Lb0EE10pointer_toERS7_>
   14000edbc:	48 89 45 f8          	mov    QWORD PTR [rbp-0x8],rax
   14000edc0:	48 8b 45 10          	mov    rax,QWORD PTR [rbp+0x10]
   14000edc4:	48 89 c1             	mov    rcx,rax
   14000edc7:	e8 b4 fd ff ff       	call   14000eb80 <_ZNSt8__detail16_Hashtable_allocISaINS_10_Hash_nodeISt4pairIKPv12ucrt_wrapperELb0EEEEE17_M_node_allocatorEv>
   14000edcc:	48 89 45 f0          	mov    QWORD PTR [rbp-0x10],rax
   14000edd0:	48 8b 45 f8          	mov    rax,QWORD PTR [rbp-0x8]
   14000edd4:	48 89 45 e8          	mov    QWORD PTR [rbp-0x18],rax
   14000edd8:	48 c7 45 e0 01 00 00 	mov    QWORD PTR [rbp-0x20],0x1
   14000eddf:	00 
   14000ede0:	48 8b 4d e0          	mov    rcx,QWORD PTR [rbp-0x20]
   14000ede4:	48 8b 55 e8          	mov    rdx,QWORD PTR [rbp-0x18]
   14000ede8:	48 8b 45 f0          	mov    rax,QWORD PTR [rbp-0x10]
   14000edec:	49 89 c8             	mov    r8,rcx
   14000edef:	48 89 c1             	mov    rcx,rax
   14000edf2:	e8 59 f7 ff ff       	call   14000e550 <_ZNSt15__new_allocatorINSt8__detail10_Hash_nodeISt4pairIKPv12ucrt_wrapperELb0EEEE10deallocateEPS7_y>
   14000edf7:	90                   	nop
   14000edf8:	90                   	nop
   14000edf9:	48 83 c4 40          	add    rsp,0x40
   14000edfd:	5d                   	pop    rbp
   14000edfe:	c3                   	ret
   14000edff:	90                   	nop

000000014000ee00 <_ZNSt8__detail16_Hashtable_allocISaINS_10_Hash_nodeISt4pairIKPv12ucrt_wrapperELb0EEEEEC2Ev>:
   14000ee00:	55                   	push   rbp
   14000ee01:	48 89 e5             	mov    rbp,rsp
   14000ee04:	48 83 ec 20          	sub    rsp,0x20
   14000ee08:	48 89 4d 10          	mov    QWORD PTR [rbp+0x10],rcx
   14000ee0c:	48 8b 45 10          	mov    rax,QWORD PTR [rbp+0x10]
   14000ee10:	48 89 c1             	mov    rcx,rax
   14000ee13:	e8 d8 00 00 00       	call   14000eef0 <_ZNSt8__detail21_Hashtable_ebo_helperILi0ESaINS_10_Hash_nodeISt4pairIKPv12ucrt_wrapperELb0EEEELb1EEC2Ev>
   14000ee18:	90                   	nop
   14000ee19:	48 83 c4 20          	add    rsp,0x20
   14000ee1d:	5d                   	pop    rbp
   14000ee1e:	c3                   	ret
   14000ee1f:	90                   	nop

000000014000ee20 <_ZNSt8__detail16_Hashtable_allocISaINS_10_Hash_nodeISt4pairIKPv12ucrt_wrapperELb0EEEEED2Ev>:
   14000ee20:	55                   	push   rbp
   14000ee21:	48 89 e5             	mov    rbp,rsp
   14000ee24:	48 83 ec 20          	sub    rsp,0x20
   14000ee28:	48 89 4d 10          	mov    QWORD PTR [rbp+0x10],rcx
   14000ee2c:	48 8b 45 10          	mov    rax,QWORD PTR [rbp+0x10]
   14000ee30:	48 89 c1             	mov    rcx,rax
   14000ee33:	e8 e8 00 00 00       	call   14000ef20 <_ZNSt8__detail21_Hashtable_ebo_helperILi0ESaINS_10_Hash_nodeISt4pairIKPv12ucrt_wrapperELb0EEEELb1EED2Ev>
   14000ee38:	90                   	nop
   14000ee39:	48 83 c4 20          	add    rsp,0x20
   14000ee3d:	5d                   	pop    rbp
   14000ee3e:	c3                   	ret
   14000ee3f:	90                   	nop

000000014000ee40 <_ZNSt8__detail19_Node_iterator_baseISt4pairIKPv12ucrt_wrapperELb0EE7_M_incrEv>:
   14000ee40:	55                   	push   rbp
   14000ee41:	48 89 e5             	mov    rbp,rsp
   14000ee44:	48 83 ec 20          	sub    rsp,0x20
   14000ee48:	48 89 4d 10          	mov    QWORD PTR [rbp+0x10],rcx
   14000ee4c:	48 8b 45 10          	mov    rax,QWORD PTR [rbp+0x10]
   14000ee50:	48 8b 00             	mov    rax,QWORD PTR [rax]
   14000ee53:	48 89 c1             	mov    rcx,rax
   14000ee56:	e8 e5 e9 ff ff       	call   14000d840 <_ZNKSt8__detail10_Hash_nodeISt4pairIKPv12ucrt_wrapperELb0EE7_M_nextEv>
   14000ee5b:	48 8b 55 10          	mov    rdx,QWORD PTR [rbp+0x10]
   14000ee5f:	48 89 02             	mov    QWORD PTR [rdx],rax
   14000ee62:	90                   	nop
   14000ee63:	48 83 c4 20          	add    rsp,0x20
   14000ee67:	5d                   	pop    rbp
   14000ee68:	c3                   	ret
   14000ee69:	90                   	nop
   14000ee6a:	90                   	nop
   14000ee6b:	90                   	nop
   14000ee6c:	90                   	nop
   14000ee6d:	90                   	nop
   14000ee6e:	90                   	nop
   14000ee6f:	90                   	nop

000000014000ee70 <_ZNSt8__detail19_Node_iterator_baseISt4pairIKPv12ucrt_wrapperELb0EEC2EPNS_10_Hash_nodeIS5_Lb0EEE>:
   14000ee70:	55                   	push   rbp
   14000ee71:	48 89 e5             	mov    rbp,rsp
   14000ee74:	48 89 4d 10          	mov    QWORD PTR [rbp+0x10],rcx
   14000ee78:	48 89 55 18          	mov    QWORD PTR [rbp+0x18],rdx
   14000ee7c:	48 8b 45 10          	mov    rax,QWORD PTR [rbp+0x10]
   14000ee80:	48 8b 55 18          	mov    rdx,QWORD PTR [rbp+0x18]
   14000ee84:	48 89 10             	mov    QWORD PTR [rax],rdx
   14000ee87:	90                   	nop
   14000ee88:	5d                   	pop    rbp
   14000ee89:	c3                   	ret
   14000ee8a:	90                   	nop
   14000ee8b:	90                   	nop
   14000ee8c:	90                   	nop
   14000ee8d:	90                   	nop
   14000ee8e:	90                   	nop
   14000ee8f:	90                   	nop

000000014000ee90 <_ZNSt8__detail20_Prime_rehash_policy8_M_resetEy>:
   14000ee90:	55                   	push   rbp
   14000ee91:	48 89 e5             	mov    rbp,rsp
   14000ee94:	48 89 4d 10          	mov    QWORD PTR [rbp+0x10],rcx
   14000ee98:	48 89 55 18          	mov    QWORD PTR [rbp+0x18],rdx
   14000ee9c:	48 8b 45 10          	mov    rax,QWORD PTR [rbp+0x10]
   14000eea0:	48 8b 55 18          	mov    rdx,QWORD PTR [rbp+0x18]
   14000eea4:	48 89 50 08          	mov    QWORD PTR [rax+0x8],rdx
   14000eea8:	90                   	nop
   14000eea9:	5d                   	pop    rbp
   14000eeaa:	c3                   	ret
   14000eeab:	90                   	nop
   14000eeac:	90                   	nop
   14000eead:	90                   	nop
   14000eeae:	90                   	nop
   14000eeaf:	90                   	nop

000000014000eeb0 <_ZNSt8__detail20_Prime_rehash_policyC1Ef>:
   14000eeb0:	55                   	push   rbp
   14000eeb1:	48 89 e5             	mov    rbp,rsp
   14000eeb4:	48 89 4d 10          	mov    QWORD PTR [rbp+0x10],rcx
   14000eeb8:	f3 0f 11 4d 18       	movss  DWORD PTR [rbp+0x18],xmm1
   14000eebd:	48 8b 45 10          	mov    rax,QWORD PTR [rbp+0x10]
   14000eec1:	f3 0f 10 45 18       	movss  xmm0,DWORD PTR [rbp+0x18]
   14000eec6:	f3 0f 11 00          	movss  DWORD PTR [rax],xmm0
   14000eeca:	48 8b 45 10          	mov    rax,QWORD PTR [rbp+0x10]
   14000eece:	48 c7 40 08 00 00 00 	mov    QWORD PTR [rax+0x8],0x0
   14000eed5:	00 
   14000eed6:	90                   	nop
   14000eed7:	5d                   	pop    rbp
   14000eed8:	c3                   	ret
   14000eed9:	90                   	nop
   14000eeda:	90                   	nop
   14000eedb:	90                   	nop
   14000eedc:	90                   	nop
   14000eedd:	90                   	nop
   14000eede:	90                   	nop
   14000eedf:	90                   	nop

000000014000eee0 <_ZNSt8__detail21_Hashtable_ebo_helperILi0ESaINS_10_Hash_nodeISt4pairIKPv12ucrt_wrapperELb0EEEELb1EE6_M_getEv>:
   14000eee0:	55                   	push   rbp
   14000eee1:	48 89 e5             	mov    rbp,rsp
   14000eee4:	48 89 4d 10          	mov    QWORD PTR [rbp+0x10],rcx
   14000eee8:	48 8b 45 10          	mov    rax,QWORD PTR [rbp+0x10]
   14000eeec:	5d                   	pop    rbp
   14000eeed:	c3                   	ret
   14000eeee:	90                   	nop
   14000eeef:	90                   	nop

000000014000eef0 <_ZNSt8__detail21_Hashtable_ebo_helperILi0ESaINS_10_Hash_nodeISt4pairIKPv12ucrt_wrapperELb0EEEELb1EEC2Ev>:
   14000eef0:	55                   	push   rbp
   14000eef1:	48 89 e5             	mov    rbp,rsp
   14000eef4:	48 83 ec 10          	sub    rsp,0x10
   14000eef8:	48 89 4d 10          	mov    QWORD PTR [rbp+0x10],rcx
   14000eefc:	48 8b 45 10          	mov    rax,QWORD PTR [rbp+0x10]
   14000ef00:	48 89 45 f8          	mov    QWORD PTR [rbp-0x8],rax
   14000ef04:	48 8b 45 f8          	mov    rax,QWORD PTR [rbp-0x8]
   14000ef08:	48 89 45 f0          	mov    QWORD PTR [rbp-0x10],rax
   14000ef0c:	90                   	nop
   14000ef0d:	90                   	nop
   14000ef0e:	90                   	nop
   14000ef0f:	48 83 c4 10          	add    rsp,0x10
   14000ef13:	5d                   	pop    rbp
   14000ef14:	c3                   	ret
   14000ef15:	90                   	nop
   14000ef16:	90                   	nop
   14000ef17:	90                   	nop
   14000ef18:	90                   	nop
   14000ef19:	90                   	nop
   14000ef1a:	90                   	nop
   14000ef1b:	90                   	nop
   14000ef1c:	90                   	nop
   14000ef1d:	90                   	nop
   14000ef1e:	90                   	nop
   14000ef1f:	90                   	nop

000000014000ef20 <_ZNSt8__detail21_Hashtable_ebo_helperILi0ESaINS_10_Hash_nodeISt4pairIKPv12ucrt_wrapperELb0EEEELb1EED2Ev>:
   14000ef20:	55                   	push   rbp
   14000ef21:	48 89 e5             	mov    rbp,rsp
   14000ef24:	48 83 ec 30          	sub    rsp,0x30
   14000ef28:	48 89 4d 10          	mov    QWORD PTR [rbp+0x10],rcx
   14000ef2c:	48 8b 45 10          	mov    rax,QWORD PTR [rbp+0x10]
   14000ef30:	48 89 45 f8          	mov    QWORD PTR [rbp-0x8],rax
   14000ef34:	48 8b 45 f8          	mov    rax,QWORD PTR [rbp-0x8]
   14000ef38:	48 89 c1             	mov    rcx,rax
   14000ef3b:	e8 d0 f6 ff ff       	call   14000e610 <_ZNSt15__new_allocatorINSt8__detail10_Hash_nodeISt4pairIKPv12ucrt_wrapperELb0EEEED2Ev>
   14000ef40:	90                   	nop
   14000ef41:	90                   	nop
   14000ef42:	48 83 c4 30          	add    rsp,0x30
   14000ef46:	5d                   	pop    rbp
   14000ef47:	c3                   	ret
   14000ef48:	90                   	nop
   14000ef49:	90                   	nop
   14000ef4a:	90                   	nop
   14000ef4b:	90                   	nop
   14000ef4c:	90                   	nop
   14000ef4d:	90                   	nop
   14000ef4e:	90                   	nop
   14000ef4f:	90                   	nop

000000014000ef50 <_ZNSt8__detail21_Hashtable_ebo_helperILi0ESt8equal_toIPvELb1EEC2Ev>:
   14000ef50:	55                   	push   rbp
   14000ef51:	48 89 e5             	mov    rbp,rsp
   14000ef54:	48 89 4d 10          	mov    QWORD PTR [rbp+0x10],rcx
   14000ef58:	90                   	nop
   14000ef59:	5d                   	pop    rbp
   14000ef5a:	c3                   	ret
   14000ef5b:	90                   	nop
   14000ef5c:	90                   	nop
   14000ef5d:	90                   	nop
   14000ef5e:	90                   	nop
   14000ef5f:	90                   	nop

000000014000ef60 <_ZNSt8__detail21_Hashtable_ebo_helperILi1ESt4hashIPvELb1EEC2Ev>:
   14000ef60:	55                   	push   rbp
   14000ef61:	48 89 e5             	mov    rbp,rsp
   14000ef64:	48 89 4d 10          	mov    QWORD PTR [rbp+0x10],rcx
   14000ef68:	90                   	nop
   14000ef69:	5d                   	pop    rbp
   14000ef6a:	c3                   	ret
   14000ef6b:	90                   	nop
   14000ef6c:	90                   	nop
   14000ef6d:	90                   	nop
   14000ef6e:	90                   	nop
   14000ef6f:	90                   	nop

000000014000ef70 <_ZNSt8__detail22_Hashtable_hash_traitsISt4hashIPvEE22__small_size_thresholdEv>:
   14000ef70:	55                   	push   rbp
   14000ef71:	48 89 e5             	mov    rbp,rsp
   14000ef74:	b8 00 00 00 00       	mov    eax,0x0
   14000ef79:	5d                   	pop    rbp
   14000ef7a:	c3                   	ret
   14000ef7b:	90                   	nop
   14000ef7c:	90                   	nop
   14000ef7d:	90                   	nop
   14000ef7e:	90                   	nop
   14000ef7f:	90                   	nop

000000014000ef80 <_ZNSt8__detail9_Map_baseIPvSt4pairIKS1_12ucrt_wrapperESaIS5_ENS_10_Select1stESt8equal_toIS1_ESt4hashIS1_ENS_18_Mod_range_hashingENS_20_Default_ranged_hashENS_20_Prime_rehash_policyENS_17_Hashtable_traitsILb0ELb0ELb1EEELb1EEixERS3_>:
   14000ef80:	55                   	push   rbp
   14000ef81:	53                   	push   rbx
   14000ef82:	48 81 ec 98 00 00 00 	sub    rsp,0x98
   14000ef89:	48 8d ac 24 90 00 00 	lea    rbp,[rsp+0x90]
   14000ef90:	00 
   14000ef91:	48 89 4d 20          	mov    QWORD PTR [rbp+0x20],rcx
   14000ef95:	48 89 55 28          	mov    QWORD PTR [rbp+0x28],rdx
   14000ef99:	48 8b 45 20          	mov    rax,QWORD PTR [rbp+0x20]
   14000ef9d:	48 89 45 f8          	mov    QWORD PTR [rbp-0x8],rax
   14000efa1:	48 8b 55 28          	mov    rdx,QWORD PTR [rbp+0x28]
   14000efa5:	48 8b 45 f8          	mov    rax,QWORD PTR [rbp-0x8]
   14000efa9:	48 89 c1             	mov    rcx,rax
   14000efac:	e8 0f e9 ff ff       	call   14000d8c0 <_ZNKSt8__detail15_Hash_code_baseIPvSt4pairIKS1_12ucrt_wrapperENS_10_Select1stESt4hashIS1_ENS_18_Mod_range_hashingENS_20_Default_ranged_hashELb0EE12_M_hash_codeERS3_>
   14000efb1:	48 89 45 f0          	mov    QWORD PTR [rbp-0x10],rax
   14000efb5:	48 8b 55 f0          	mov    rdx,QWORD PTR [rbp-0x10]
   14000efb9:	48 8b 45 f8          	mov    rax,QWORD PTR [rbp-0x8]
   14000efbd:	48 89 c1             	mov    rcx,rax
   14000efc0:	e8 cb e6 ff ff       	call   14000d690 <_ZNKSt10_HashtableIPvSt4pairIKS0_12ucrt_wrapperESaIS4_ENSt8__detail10_Select1stESt8equal_toIS0_ESt4hashIS0_ENS6_18_Mod_range_hashingENS6_20_Default_ranged_hashENS6_20_Prime_rehash_policyENS6_17_Hashtable_traitsILb0ELb0ELb1EEEE15_M_bucket_indexEy>
   14000efc5:	48 89 45 e8          	mov    QWORD PTR [rbp-0x18],rax
   14000efc9:	4c 8b 45 f0          	mov    r8,QWORD PTR [rbp-0x10]
   14000efcd:	48 8b 4d 28          	mov    rcx,QWORD PTR [rbp+0x28]
   14000efd1:	48 8b 55 e8          	mov    rdx,QWORD PTR [rbp-0x18]
   14000efd5:	48 8b 45 f8          	mov    rax,QWORD PTR [rbp-0x8]
   14000efd9:	4d 89 c1             	mov    r9,r8
   14000efdc:	49 89 c8             	mov    r8,rcx
   14000efdf:	48 89 c1             	mov    rcx,rax
   14000efe2:	e8 09 e6 ff ff       	call   14000d5f0 <_ZNKSt10_HashtableIPvSt4pairIKS0_12ucrt_wrapperESaIS4_ENSt8__detail10_Select1stESt8equal_toIS0_ESt4hashIS0_ENS6_18_Mod_range_hashingENS6_20_Default_ranged_hashENS6_20_Prime_rehash_policyENS6_17_Hashtable_traitsILb0ELb0ELb1EEEE12_M_find_nodeEyRS2_y>
   14000efe7:	48 89 45 e0          	mov    QWORD PTR [rbp-0x20],rax
   14000efeb:	48 83 7d e0 00       	cmp    QWORD PTR [rbp-0x20],0x0
   14000eff0:	74 2b                	je     14000f01d <_ZNSt8__detail9_Map_baseIPvSt4pairIKS1_12ucrt_wrapperESaIS5_ENS_10_Select1stESt8equal_toIS1_ESt4hashIS1_ENS_18_Mod_range_hashingENS_20_Default_ranged_hashENS_20_Prime_rehash_policyENS_17_Hashtable_traitsILb0ELb0ELb1EEELb1EEixERS3_+0x9d>
   14000eff2:	48 8b 45 e0          	mov    rax,QWORD PTR [rbp-0x20]
   14000eff6:	48 83 c0 08          	add    rax,0x8
   14000effa:	48 89 45 d8          	mov    QWORD PTR [rbp-0x28],rax
   14000effe:	48 8b 45 d8          	mov    rax,QWORD PTR [rbp-0x28]
   14000f002:	48 89 45 d0          	mov    QWORD PTR [rbp-0x30],rax
   14000f006:	48 8b 45 d0          	mov    rax,QWORD PTR [rbp-0x30]
   14000f00a:	48 89 c1             	mov    rcx,rax
   14000f00d:	e8 7e e5 ff ff       	call   14000d590 <_ZN9__gnu_cxx16__aligned_bufferISt4pairIKPv12ucrt_wrapperEE6_M_ptrEv>
   14000f012:	90                   	nop
   14000f013:	90                   	nop
   14000f014:	48 8d 58 08          	lea    rbx,[rax+0x8]
   14000f018:	e9 89 00 00 00       	jmp    14000f0a6 <_ZNSt8__detail9_Map_baseIPvSt4pairIKS1_12ucrt_wrapperESaIS5_ENS_10_Select1stESt8equal_toIS1_ESt4hashIS1_ENS_18_Mod_range_hashingENS_20_Default_ranged_hashENS_20_Prime_rehash_policyENS_17_Hashtable_traitsILb0ELb0ELb1EEELb1EEixERS3_+0x126>
   14000f01d:	48 8b 5d f8          	mov    rbx,QWORD PTR [rbp-0x8]
   14000f021:	48 8b 55 28          	mov    rdx,QWORD PTR [rbp+0x28]
   14000f025:	48 8d 45 c0          	lea    rax,[rbp-0x40]
   14000f029:	48 89 c1             	mov    rcx,rax
   14000f02c:	e8 af f7 ff ff       	call   14000e7e0 <_ZNSt5tupleIJRKPvEEC1ILb1ELb1EEES2_>
   14000f031:	48 8d 4d c0          	lea    rcx,[rbp-0x40]
   14000f035:	48 8d 45 b0          	lea    rax,[rbp-0x50]
   14000f039:	48 8d 55 cf          	lea    rdx,[rbp-0x31]
   14000f03d:	48 89 54 24 20       	mov    QWORD PTR [rsp+0x20],rdx
   14000f042:	49 89 c9             	mov    r9,rcx
   14000f045:	4c 8d 05 74 2d 00 00 	lea    r8,[rip+0x2d74]        # 140011dc0 <_ZSt19piecewise_construct>
   14000f04c:	48 89 da             	mov    rdx,rbx
   14000f04f:	48 89 c1             	mov    rcx,rax
   14000f052:	e8 29 eb ff ff       	call   14000db80 <_ZNSt10_HashtableIPvSt4pairIKS0_12ucrt_wrapperESaIS4_ENSt8__detail10_Select1stESt8equal_toIS0_ESt4hashIS0_ENS6_18_Mod_range_hashingENS6_20_Default_ranged_hashENS6_20_Prime_rehash_policyENS6_17_Hashtable_traitsILb0ELb0ELb1EEEE12_Scoped_nodeC1IJRKSt21piecewise_construct_tSt5tupleIJRS2_EESN_IJEEEEEPNS6_16_Hashtable_allocISaINS6_10_Hash_nodeIS4_Lb0EEEEEEDpOT_>
   14000f057:	4c 8b 45 b8          	mov    r8,QWORD PTR [rbp-0x48]
   14000f05b:	48 8b 4d f0          	mov    rcx,QWORD PTR [rbp-0x10]
   14000f05f:	48 8b 55 e8          	mov    rdx,QWORD PTR [rbp-0x18]
   14000f063:	48 8b 45 f8          	mov    rax,QWORD PTR [rbp-0x8]
   14000f067:	48 c7 44 24 20 01 00 	mov    QWORD PTR [rsp+0x20],0x1
   14000f06e:	00 00 
   14000f070:	4d 89 c1             	mov    r9,r8
   14000f073:	49 89 c8             	mov    r8,rcx
   14000f076:	48 89 c1             	mov    rcx,rax
   14000f079:	e8 22 ee ff ff       	call   14000dea0 <_ZNSt10_HashtableIPvSt4pairIKS0_12ucrt_wrapperESaIS4_ENSt8__detail10_Select1stESt8equal_toIS0_ESt4hashIS0_ENS6_18_Mod_range_hashingENS6_20_Default_ranged_hashENS6_20_Prime_rehash_policyENS6_17_Hashtable_traitsILb0ELb0ELb1EEEE21_M_insert_unique_nodeEyyPNS6_10_Hash_nodeIS4_Lb0EEEy>
   14000f07e:	48 89 45 a8          	mov    QWORD PTR [rbp-0x58],rax
   14000f082:	48 c7 45 b8 00 00 00 	mov    QWORD PTR [rbp-0x48],0x0
   14000f089:	00 
   14000f08a:	48 8d 45 a8          	lea    rax,[rbp-0x58]
   14000f08e:	48 89 c1             	mov    rcx,rax
   14000f091:	e8 fa e7 ff ff       	call   14000d890 <_ZNKSt8__detail14_Node_iteratorISt4pairIKPv12ucrt_wrapperELb0ELb0EEptEv>
   14000f096:	48 8d 58 08          	lea    rbx,[rax+0x8]
   14000f09a:	48 8d 45 b0          	lea    rax,[rbp-0x50]
   14000f09e:	48 89 c1             	mov    rcx,rax
   14000f0a1:	e8 5a eb ff ff       	call   14000dc00 <_ZNSt10_HashtableIPvSt4pairIKS0_12ucrt_wrapperESaIS4_ENSt8__detail10_Select1stESt8equal_toIS0_ESt4hashIS0_ENS6_18_Mod_range_hashingENS6_20_Default_ranged_hashENS6_20_Prime_rehash_policyENS6_17_Hashtable_traitsILb0ELb0ELb1EEEE12_Scoped_nodeD1Ev>
   14000f0a6:	48 89 d8             	mov    rax,rbx
   14000f0a9:	eb 1a                	jmp    14000f0c5 <_ZNSt8__detail9_Map_baseIPvSt4pairIKS1_12ucrt_wrapperESaIS5_ENS_10_Select1stESt8equal_toIS1_ESt4hashIS1_ENS_18_Mod_range_hashingENS_20_Default_ranged_hashENS_20_Prime_rehash_policyENS_17_Hashtable_traitsILb0ELb0ELb1EEELb1EEixERS3_+0x145>
   14000f0ab:	48 89 c3             	mov    rbx,rax
   14000f0ae:	48 8d 45 b0          	lea    rax,[rbp-0x50]
   14000f0b2:	48 89 c1             	mov    rcx,rax
   14000f0b5:	e8 46 eb ff ff       	call   14000dc00 <_ZNSt10_HashtableIPvSt4pairIKS0_12ucrt_wrapperESaIS4_ENSt8__detail10_Select1stESt8equal_toIS0_ESt4hashIS0_ENS6_18_Mod_range_hashingENS6_20_Default_ranged_hashENS6_20_Prime_rehash_policyENS6_17_Hashtable_traitsILb0ELb0ELb1EEEE12_Scoped_nodeD1Ev>
   14000f0ba:	48 89 d8             	mov    rax,rbx
   14000f0bd:	48 89 c1             	mov    rcx,rax
   14000f0c0:	e8 0b e1 ff ff       	call   14000d1d0 <_Unwind_Resume>
   14000f0c5:	48 81 c4 98 00 00 00 	add    rsp,0x98
   14000f0cc:	5b                   	pop    rbx
   14000f0cd:	5d                   	pop    rbp
   14000f0ce:	c3                   	ret
   14000f0cf:	90                   	nop

000000014000f0d0 <_ZNSt8__detaileqERKNS_19_Node_iterator_baseISt4pairIKPv12ucrt_wrapperELb0EEES8_>:
   14000f0d0:	55                   	push   rbp
   14000f0d1:	48 89 e5             	mov    rbp,rsp
   14000f0d4:	48 89 4d 10          	mov    QWORD PTR [rbp+0x10],rcx
   14000f0d8:	48 89 55 18          	mov    QWORD PTR [rbp+0x18],rdx
   14000f0dc:	48 8b 45 10          	mov    rax,QWORD PTR [rbp+0x10]
   14000f0e0:	48 8b 10             	mov    rdx,QWORD PTR [rax]
   14000f0e3:	48 8b 45 18          	mov    rax,QWORD PTR [rbp+0x18]
   14000f0e7:	48 8b 00             	mov    rax,QWORD PTR [rax]
   14000f0ea:	48 39 c2             	cmp    rdx,rax
   14000f0ed:	0f 94 c0             	sete   al
   14000f0f0:	5d                   	pop    rbp
   14000f0f1:	c3                   	ret
   14000f0f2:	90                   	nop
   14000f0f3:	90                   	nop
   14000f0f4:	90                   	nop
   14000f0f5:	90                   	nop
   14000f0f6:	90                   	nop
   14000f0f7:	90                   	nop
   14000f0f8:	90                   	nop
   14000f0f9:	90                   	nop
   14000f0fa:	90                   	nop
   14000f0fb:	90                   	nop
   14000f0fc:	90                   	nop
   14000f0fd:	90                   	nop
   14000f0fe:	90                   	nop
   14000f0ff:	90                   	nop

000000014000f100 <_ZNSt8__detailneERKNS_19_Node_iterator_baseISt4pairIKPv12ucrt_wrapperELb0EEES8_>:
   14000f100:	55                   	push   rbp
   14000f101:	48 89 e5             	mov    rbp,rsp
   14000f104:	48 89 4d 10          	mov    QWORD PTR [rbp+0x10],rcx
   14000f108:	48 89 55 18          	mov    QWORD PTR [rbp+0x18],rdx
   14000f10c:	48 8b 45 10          	mov    rax,QWORD PTR [rbp+0x10]
   14000f110:	48 8b 10             	mov    rdx,QWORD PTR [rax]
   14000f113:	48 8b 45 18          	mov    rax,QWORD PTR [rbp+0x18]
   14000f117:	48 8b 00             	mov    rax,QWORD PTR [rax]
   14000f11a:	48 39 c2             	cmp    rdx,rax
   14000f11d:	0f 95 c0             	setne  al
   14000f120:	5d                   	pop    rbp
   14000f121:	c3                   	ret
   14000f122:	90                   	nop
   14000f123:	90                   	nop
   14000f124:	90                   	nop
   14000f125:	90                   	nop
   14000f126:	90                   	nop
   14000f127:	90                   	nop
   14000f128:	90                   	nop
   14000f129:	90                   	nop
   14000f12a:	90                   	nop
   14000f12b:	90                   	nop
   14000f12c:	90                   	nop
   14000f12d:	90                   	nop
   14000f12e:	90                   	nop
   14000f12f:	90                   	nop

000000014000f130 <_ZSt11__addressofINSt8__detail10_Hash_nodeISt4pairIKPv12ucrt_wrapperELb0EEEEPT_RS8_>:
   14000f130:	55                   	push   rbp
   14000f131:	48 89 e5             	mov    rbp,rsp
   14000f134:	48 89 4d 10          	mov    QWORD PTR [rbp+0x10],rcx
   14000f138:	48 8b 45 10          	mov    rax,QWORD PTR [rbp+0x10]
   14000f13c:	5d                   	pop    rbp
   14000f13d:	c3                   	ret
   14000f13e:	90                   	nop
   14000f13f:	90                   	nop

000000014000f140 <_ZSt11__addressofIPNSt8__detail15_Hash_node_baseEEPT_RS3_>:
   14000f140:	55                   	push   rbp
   14000f141:	48 89 e5             	mov    rbp,rsp
   14000f144:	48 89 4d 10          	mov    QWORD PTR [rbp+0x10],rcx
   14000f148:	48 8b 45 10          	mov    rax,QWORD PTR [rbp+0x10]
   14000f14c:	5d                   	pop    rbp
   14000f14d:	c3                   	ret
   14000f14e:	90                   	nop
   14000f14f:	90                   	nop

000000014000f150 <_ZSt12__get_helperILy0ERKPvJEERT0_RSt11_Tuple_implIXT_EJS3_DpT1_EE>:
   14000f150:	55                   	push   rbp
   14000f151:	48 89 e5             	mov    rbp,rsp
   14000f154:	48 83 ec 20          	sub    rsp,0x20
   14000f158:	48 89 4d 10          	mov    QWORD PTR [rbp+0x10],rcx
   14000f15c:	48 8b 45 10          	mov    rax,QWORD PTR [rbp+0x10]
   14000f160:	48 89 c1             	mov    rcx,rax
   14000f163:	e8 b8 f2 ff ff       	call   14000e420 <_ZNSt11_Tuple_implILy0EJRKPvEE7_M_headERS3_>
   14000f168:	48 83 c4 20          	add    rsp,0x20
   14000f16c:	5d                   	pop    rbp
   14000f16d:	c3                   	ret
   14000f16e:	90                   	nop
   14000f16f:	90                   	nop

000000014000f170 <_ZSt12__to_addressINSt8__detail10_Hash_nodeISt4pairIKPv12ucrt_wrapperELb0EEEEPT_S9_>:
   14000f170:	55                   	push   rbp
   14000f171:	48 89 e5             	mov    rbp,rsp
   14000f174:	48 89 4d 10          	mov    QWORD PTR [rbp+0x10],rcx
   14000f178:	48 8b 45 10          	mov    rax,QWORD PTR [rbp+0x10]
   14000f17c:	5d                   	pop    rbp
   14000f17d:	c3                   	ret
   14000f17e:	90                   	nop
   14000f17f:	90                   	nop

000000014000f180 <_ZSt12__to_addressIPNSt8__detail15_Hash_node_baseEEPT_S4_>:
   14000f180:	55                   	push   rbp
   14000f181:	48 89 e5             	mov    rbp,rsp
   14000f184:	48 89 4d 10          	mov    QWORD PTR [rbp+0x10],rcx
   14000f188:	48 8b 45 10          	mov    rax,QWORD PTR [rbp+0x10]
   14000f18c:	5d                   	pop    rbp
   14000f18d:	c3                   	ret
   14000f18e:	90                   	nop
   14000f18f:	90                   	nop

000000014000f190 <_ZSt3getILy0EJRKPvEERNSt13tuple_elementIXT_ESt5tupleIJDpT0_EEE4typeERS7_>:
   14000f190:	55                   	push   rbp
   14000f191:	48 89 e5             	mov    rbp,rsp
   14000f194:	48 83 ec 20          	sub    rsp,0x20
   14000f198:	48 89 4d 10          	mov    QWORD PTR [rbp+0x10],rcx
   14000f19c:	48 8b 45 10          	mov    rax,QWORD PTR [rbp+0x10]
   14000f1a0:	48 89 c1             	mov    rcx,rax
   14000f1a3:	e8 a8 ff ff ff       	call   14000f150 <_ZSt12__get_helperILy0ERKPvJEERT0_RSt11_Tuple_implIXT_EJS3_DpT1_EE>
   14000f1a8:	48 83 c4 20          	add    rsp,0x20
   14000f1ac:	5d                   	pop    rbp
   14000f1ad:	c3                   	ret
   14000f1ae:	90                   	nop
   14000f1af:	90                   	nop

000000014000f1b0 <_ZSt7forwardIRKPvEOT_RNSt16remove_referenceIS3_E4typeE>:
   14000f1b0:	55                   	push   rbp
   14000f1b1:	48 89 e5             	mov    rbp,rsp
   14000f1b4:	48 89 4d 10          	mov    QWORD PTR [rbp+0x10],rcx
   14000f1b8:	48 8b 45 10          	mov    rax,QWORD PTR [rbp+0x10]
   14000f1bc:	5d                   	pop    rbp
   14000f1bd:	c3                   	ret
   14000f1be:	90                   	nop
   14000f1bf:	90                   	nop

000000014000f1c0 <_ZSt7forwardIRKSt21piecewise_construct_tEOT_RNSt16remove_referenceIS3_E4typeE>:
   14000f1c0:	55                   	push   rbp
   14000f1c1:	48 89 e5             	mov    rbp,rsp
   14000f1c4:	48 89 4d 10          	mov    QWORD PTR [rbp+0x10],rcx
   14000f1c8:	48 8b 45 10          	mov    rax,QWORD PTR [rbp+0x10]
   14000f1cc:	5d                   	pop    rbp
   14000f1cd:	c3                   	ret
   14000f1ce:	90                   	nop
   14000f1cf:	90                   	nop

000000014000f1d0 <_ZSt7forwardIRKSt4pairIKPv12ucrt_wrapperEEOT_RNSt16remove_referenceIS7_E4typeE>:
   14000f1d0:	55                   	push   rbp
   14000f1d1:	48 89 e5             	mov    rbp,rsp
   14000f1d4:	48 89 4d 10          	mov    QWORD PTR [rbp+0x10],rcx
   14000f1d8:	48 8b 45 10          	mov    rax,QWORD PTR [rbp+0x10]
   14000f1dc:	5d                   	pop    rbp
   14000f1dd:	c3                   	ret
   14000f1de:	90                   	nop
   14000f1df:	90                   	nop

000000014000f1e0 <_ZSt7forwardISt5tupleIJEEEOT_RNSt16remove_referenceIS2_E4typeE>:
   14000f1e0:	55                   	push   rbp
   14000f1e1:	48 89 e5             	mov    rbp,rsp
   14000f1e4:	48 89 4d 10          	mov    QWORD PTR [rbp+0x10],rcx
   14000f1e8:	48 8b 45 10          	mov    rax,QWORD PTR [rbp+0x10]
   14000f1ec:	5d                   	pop    rbp
   14000f1ed:	c3                   	ret
   14000f1ee:	90                   	nop
   14000f1ef:	90                   	nop

000000014000f1f0 <_ZSt7forwardISt5tupleIJRKPvEEEOT_RNSt16remove_referenceIS5_E4typeE>:
   14000f1f0:	55                   	push   rbp
   14000f1f1:	48 89 e5             	mov    rbp,rsp
   14000f1f4:	48 89 4d 10          	mov    QWORD PTR [rbp+0x10],rcx
   14000f1f8:	48 8b 45 10          	mov    rax,QWORD PTR [rbp+0x10]
   14000f1fc:	5d                   	pop    rbp
   14000f1fd:	c3                   	ret
   14000f1fe:	90                   	nop
   14000f1ff:	90                   	nop

000000014000f200 <_ZSt9addressofINSt8__detail10_Hash_nodeISt4pairIKPv12ucrt_wrapperELb0EEEEPT_RS8_>:
   14000f200:	55                   	push   rbp
   14000f201:	48 89 e5             	mov    rbp,rsp
   14000f204:	48 83 ec 20          	sub    rsp,0x20
   14000f208:	48 89 4d 10          	mov    QWORD PTR [rbp+0x10],rcx
   14000f20c:	48 8b 45 10          	mov    rax,QWORD PTR [rbp+0x10]
   14000f210:	48 89 c1             	mov    rcx,rax
   14000f213:	e8 18 ff ff ff       	call   14000f130 <_ZSt11__addressofINSt8__detail10_Hash_nodeISt4pairIKPv12ucrt_wrapperELb0EEEEPT_RS8_>
   14000f218:	48 83 c4 20          	add    rsp,0x20
   14000f21c:	5d                   	pop    rbp
   14000f21d:	c3                   	ret
   14000f21e:	90                   	nop
   14000f21f:	90                   	nop

000000014000f220 <_ZSt9addressofIPNSt8__detail15_Hash_node_baseEEPT_RS3_>:
   14000f220:	55                   	push   rbp
   14000f221:	48 89 e5             	mov    rbp,rsp
   14000f224:	48 83 ec 20          	sub    rsp,0x20
   14000f228:	48 89 4d 10          	mov    QWORD PTR [rbp+0x10],rcx
   14000f22c:	48 8b 45 10          	mov    rax,QWORD PTR [rbp+0x10]
   14000f230:	48 89 c1             	mov    rcx,rax
   14000f233:	e8 08 ff ff ff       	call   14000f140 <_ZSt11__addressofIPNSt8__detail15_Hash_node_baseEEPT_RS3_>
   14000f238:	48 83 c4 20          	add    rsp,0x20
   14000f23c:	5d                   	pop    rbp
   14000f23d:	c3                   	ret
   14000f23e:	90                   	nop
   14000f23f:	90                   	nop

000000014000f240 <_ZdlPvS_>:
   14000f240:	55                   	push   rbp
   14000f241:	48 89 e5             	mov    rbp,rsp
   14000f244:	48 89 4d 10          	mov    QWORD PTR [rbp+0x10],rcx
   14000f248:	48 89 55 18          	mov    QWORD PTR [rbp+0x18],rdx
   14000f24c:	90                   	nop
   14000f24d:	5d                   	pop    rbp
   14000f24e:	c3                   	ret
   14000f24f:	90                   	nop

000000014000f250 <_ZnwyPv>:
   14000f250:	55                   	push   rbp
   14000f251:	48 89 e5             	mov    rbp,rsp
   14000f254:	48 89 4d 10          	mov    QWORD PTR [rbp+0x10],rcx
   14000f258:	48 89 55 18          	mov    QWORD PTR [rbp+0x18],rdx
   14000f25c:	48 8b 45 18          	mov    rax,QWORD PTR [rbp+0x18]
   14000f260:	5d                   	pop    rbp
   14000f261:	c3                   	ret
   14000f262:	90                   	nop
   14000f263:	90                   	nop
   14000f264:	90                   	nop
   14000f265:	90                   	nop
   14000f266:	90                   	nop
   14000f267:	90                   	nop
   14000f268:	90                   	nop
   14000f269:	90                   	nop
   14000f26a:	90                   	nop
   14000f26b:	90                   	nop
   14000f26c:	90                   	nop
   14000f26d:	90                   	nop
   14000f26e:	90                   	nop
   14000f26f:	90                   	nop

000000014000f270 <register_frame_ctor>:
   14000f270:	e9 eb 21 ff ff       	jmp    140001460 <__gcc_register_frame>
   14000f275:	90                   	nop
   14000f276:	90                   	nop
   14000f277:	90                   	nop
   14000f278:	90                   	nop
   14000f279:	90                   	nop
   14000f27a:	90                   	nop
   14000f27b:	90                   	nop
   14000f27c:	90                   	nop
   14000f27d:	90                   	nop
   14000f27e:	90                   	nop
   14000f27f:	90                   	nop

000000014000f280 <__CTOR_LIST__>:
   14000f280:	ff                   	(bad)
   14000f281:	ff                   	(bad)
   14000f282:	ff                   	(bad)
   14000f283:	ff                   	(bad)
   14000f284:	ff                   	(bad)
   14000f285:	ff                   	(bad)
   14000f286:	ff                   	(bad)
   14000f287:	ff                   	.byte 0xff

000000014000f288 <.ctors>:
   14000f288:	41 bf 00 40 01 00    	mov    r15d,0x14000
	...

000000014000f290 <.ctors.65535>:
   14000f290:	70 f2                	jo     14000f284 <__CTOR_LIST__+0x4>
   14000f292:	00 40 01             	add    BYTE PTR [rax+0x1],al
	...

000000014000f2a0 <__DTOR_LIST__>:
   14000f2a0:	ff                   	(bad)
   14000f2a1:	ff                   	(bad)
   14000f2a2:	ff                   	(bad)
   14000f2a3:	ff                   	(bad)
   14000f2a4:	ff                   	(bad)
   14000f2a5:	ff                   	(bad)
   14000f2a6:	ff                   	(bad)
   14000f2a7:	ff 00                	inc    DWORD PTR [rax]
   14000f2a9:	00 00                	add    BYTE PTR [rax],al
   14000f2ab:	00 00                	add    BYTE PTR [rax],al
   14000f2ad:	00 00                	add    BYTE PTR [rax],al
	...
