
rvm64.exe:     file format pei-x86-64


Disassembly of section .text:

0000000140001000 <__mingw_invalidParameterHandler>:
   140001000:	c3                   	ret
   140001001:	66 66 2e 0f 1f 84 00 	data16 cs nop WORD PTR [rax+rax*1+0x0]
   140001008:	00 00 00 00 
   14000100c:	0f 1f 40 00          	nop    DWORD PTR [rax+0x0]

0000000140001010 <pre_c_init>:
   140001010:	55                   	push   rbp
   140001011:	48 89 e5             	mov    rbp,rsp
   140001014:	48 83 ec 20          	sub    rsp,0x20
   140001018:	48 8b 05 a1 0c 01 00 	mov    rax,QWORD PTR [rip+0x10ca1]        # 140011cc0 <.refptr.__mingw_initltsdrot_force>
   14000101f:	31 c9                	xor    ecx,ecx
   140001021:	c7 00 01 00 00 00    	mov    DWORD PTR [rax],0x1
   140001027:	48 8b 05 a2 0c 01 00 	mov    rax,QWORD PTR [rip+0x10ca2]        # 140011cd0 <.refptr.__mingw_initltsdyn_force>
   14000102e:	c7 00 01 00 00 00    	mov    DWORD PTR [rax],0x1
   140001034:	48 8b 05 a5 0c 01 00 	mov    rax,QWORD PTR [rip+0x10ca5]        # 140011ce0 <.refptr.__mingw_initltssuo_force>
   14000103b:	c7 00 01 00 00 00    	mov    DWORD PTR [rax],0x1
   140001041:	48 8b 05 28 0c 01 00 	mov    rax,QWORD PTR [rip+0x10c28]        # 140011c70 <.refptr.__image_base__>
   140001048:	66 81 38 4d 5a       	cmp    WORD PTR [rax],0x5a4d
   14000104d:	75 0f                	jne    14000105e <pre_c_init+0x4e>
   14000104f:	48 63 50 3c          	movsxd rdx,DWORD PTR [rax+0x3c]
   140001053:	48 01 d0             	add    rax,rdx
   140001056:	81 38 50 45 00 00    	cmp    DWORD PTR [rax],0x4550
   14000105c:	74 6a                	je     1400010c8 <pre_c_init+0xb8>
   14000105e:	48 8b 05 4b 0c 01 00 	mov    rax,QWORD PTR [rip+0x10c4b]        # 140011cb0 <.refptr.__mingw_app_type>
   140001065:	89 0d a1 3f 01 00    	mov    DWORD PTR [rip+0x13fa1],ecx        # 14001500c <managedapp>
   14000106b:	8b 00                	mov    eax,DWORD PTR [rax]
   14000106d:	85 c0                	test   eax,eax
   14000106f:	74 47                	je     1400010b8 <pre_c_init+0xa8>
   140001071:	b9 02 00 00 00       	mov    ecx,0x2
   140001076:	e8 2d c2 00 00       	call   14000d2a8 <__set_app_type>
   14000107b:	e8 a0 c1 00 00       	call   14000d220 <__p__fmode>
   140001080:	48 8b 15 f9 0c 01 00 	mov    rdx,QWORD PTR [rip+0x10cf9]        # 140011d80 <.refptr._fmode>
   140001087:	8b 12                	mov    edx,DWORD PTR [rdx]
   140001089:	89 10                	mov    DWORD PTR [rax],edx
   14000108b:	e8 a0 c1 00 00       	call   14000d230 <__p__commode>
   140001090:	48 8b 15 c9 0c 01 00 	mov    rdx,QWORD PTR [rip+0x10cc9]        # 140011d60 <.refptr._commode>
   140001097:	8b 12                	mov    edx,DWORD PTR [rdx]
   140001099:	89 10                	mov    DWORD PTR [rax],edx
   14000109b:	e8 50 b1 00 00       	call   14000c1f0 <_setargv>
   1400010a0:	48 8b 05 79 0b 01 00 	mov    rax,QWORD PTR [rip+0x10b79]        # 140011c20 <.refptr._MINGW_INSTALL_DEBUG_MATHERR>
   1400010a7:	83 38 01             	cmp    DWORD PTR [rax],0x1
   1400010aa:	74 54                	je     140001100 <pre_c_init+0xf0>
   1400010ac:	31 c0                	xor    eax,eax
   1400010ae:	48 83 c4 20          	add    rsp,0x20
   1400010b2:	5d                   	pop    rbp
   1400010b3:	c3                   	ret
   1400010b4:	0f 1f 40 00          	nop    DWORD PTR [rax+0x0]
   1400010b8:	b9 01 00 00 00       	mov    ecx,0x1
   1400010bd:	e8 e6 c1 00 00       	call   14000d2a8 <__set_app_type>
   1400010c2:	eb b7                	jmp    14000107b <pre_c_init+0x6b>
   1400010c4:	0f 1f 40 00          	nop    DWORD PTR [rax+0x0]
   1400010c8:	0f b7 50 18          	movzx  edx,WORD PTR [rax+0x18]
   1400010cc:	66 81 fa 0b 01       	cmp    dx,0x10b
   1400010d1:	74 45                	je     140001118 <pre_c_init+0x108>
   1400010d3:	66 81 fa 0b 02       	cmp    dx,0x20b
   1400010d8:	75 84                	jne    14000105e <pre_c_init+0x4e>
   1400010da:	83 b8 84 00 00 00 0e 	cmp    DWORD PTR [rax+0x84],0xe
   1400010e1:	0f 86 77 ff ff ff    	jbe    14000105e <pre_c_init+0x4e>
   1400010e7:	8b 90 f8 00 00 00    	mov    edx,DWORD PTR [rax+0xf8]
   1400010ed:	31 c9                	xor    ecx,ecx
   1400010ef:	85 d2                	test   edx,edx
   1400010f1:	0f 95 c1             	setne  cl
   1400010f4:	e9 65 ff ff ff       	jmp    14000105e <pre_c_init+0x4e>
   1400010f9:	0f 1f 80 00 00 00 00 	nop    DWORD PTR [rax+0x0]
   140001100:	48 8b 0d 99 0c 01 00 	mov    rcx,QWORD PTR [rip+0x10c99]        # 140011da0 <.refptr._matherr>
   140001107:	e8 54 b8 00 00       	call   14000c960 <__mingw_setusermatherr>
   14000110c:	31 c0                	xor    eax,eax
   14000110e:	48 83 c4 20          	add    rsp,0x20
   140001112:	5d                   	pop    rbp
   140001113:	c3                   	ret
   140001114:	0f 1f 40 00          	nop    DWORD PTR [rax+0x0]
   140001118:	83 78 74 0e          	cmp    DWORD PTR [rax+0x74],0xe
   14000111c:	0f 86 3c ff ff ff    	jbe    14000105e <pre_c_init+0x4e>
   140001122:	44 8b 80 e8 00 00 00 	mov    r8d,DWORD PTR [rax+0xe8]
   140001129:	31 c9                	xor    ecx,ecx
   14000112b:	45 85 c0             	test   r8d,r8d
   14000112e:	0f 95 c1             	setne  cl
   140001131:	e9 28 ff ff ff       	jmp    14000105e <pre_c_init+0x4e>
   140001136:	66 2e 0f 1f 84 00 00 	cs nop WORD PTR [rax+rax*1+0x0]
   14000113d:	00 00 00 

0000000140001140 <pre_cpp_init>:
   140001140:	55                   	push   rbp
   140001141:	48 89 e5             	mov    rbp,rsp
   140001144:	48 83 ec 30          	sub    rsp,0x30
   140001148:	48 8b 05 61 0c 01 00 	mov    rax,QWORD PTR [rip+0x10c61]        # 140011db0 <.refptr._newmode>
   14000114f:	4c 8d 05 c2 3e 01 00 	lea    r8,[rip+0x13ec2]        # 140015018 <envp>
   140001156:	48 8d 15 c3 3e 01 00 	lea    rdx,[rip+0x13ec3]        # 140015020 <argv>
   14000115d:	48 8d 0d c4 3e 01 00 	lea    rcx,[rip+0x13ec4]        # 140015028 <argc>
   140001164:	8b 00                	mov    eax,DWORD PTR [rax]
   140001166:	89 05 98 3e 01 00    	mov    DWORD PTR [rip+0x13e98],eax        # 140015004 <startinfo>
   14000116c:	48 8b 05 fd 0b 01 00 	mov    rax,QWORD PTR [rip+0x10bfd]        # 140011d70 <.refptr._dowildcard>
   140001173:	44 8b 08             	mov    r9d,DWORD PTR [rax]
   140001176:	48 8d 05 87 3e 01 00 	lea    rax,[rip+0x13e87]        # 140015004 <startinfo>
   14000117d:	48 89 44 24 20       	mov    QWORD PTR [rsp+0x20],rax
   140001182:	e8 11 c1 00 00       	call   14000d298 <__getmainargs>
   140001187:	90                   	nop
   140001188:	48 83 c4 30          	add    rsp,0x30
   14000118c:	5d                   	pop    rbp
   14000118d:	c3                   	ret
   14000118e:	66 90                	xchg   ax,ax

0000000140001190 <__tmainCRTStartup>:
   140001190:	55                   	push   rbp
   140001191:	41 55                	push   r13
   140001193:	41 54                	push   r12
   140001195:	57                   	push   rdi
   140001196:	56                   	push   rsi
   140001197:	53                   	push   rbx
   140001198:	48 83 ec 28          	sub    rsp,0x28
   14000119c:	48 8d 6c 24 20       	lea    rbp,[rsp+0x20]
   1400011a1:	48 8b 1d 58 0b 01 00 	mov    rbx,QWORD PTR [rip+0x10b58]        # 140011d00 <.refptr.__native_startup_lock>
   1400011a8:	4c 8b 25 f9 50 01 00 	mov    r12,QWORD PTR [rip+0x150f9]        # 1400162a8 <__imp_Sleep>
   1400011af:	31 ff                	xor    edi,edi
   1400011b1:	65 48 8b 04 25 30 00 	mov    rax,QWORD PTR gs:0x30
   1400011b8:	00 00 
   1400011ba:	48 8b 70 08          	mov    rsi,QWORD PTR [rax+0x8]
   1400011be:	eb 11                	jmp    1400011d1 <__tmainCRTStartup+0x41>
   1400011c0:	48 39 c6             	cmp    rsi,rax
   1400011c3:	0f 84 6f 01 00 00    	je     140001338 <__tmainCRTStartup+0x1a8>
   1400011c9:	b9 e8 03 00 00       	mov    ecx,0x3e8
   1400011ce:	41 ff d4             	call   r12
   1400011d1:	48 89 f8             	mov    rax,rdi
   1400011d4:	f0 48 0f b1 33       	lock cmpxchg QWORD PTR [rbx],rsi
   1400011d9:	48 85 c0             	test   rax,rax
   1400011dc:	75 e2                	jne    1400011c0 <__tmainCRTStartup+0x30>
   1400011de:	48 8b 35 2b 0b 01 00 	mov    rsi,QWORD PTR [rip+0x10b2b]        # 140011d10 <.refptr.__native_startup_state>
   1400011e5:	31 ff                	xor    edi,edi
   1400011e7:	8b 06                	mov    eax,DWORD PTR [rsi]
   1400011e9:	83 f8 01             	cmp    eax,0x1
   1400011ec:	0f 84 5d 01 00 00    	je     14000134f <__tmainCRTStartup+0x1bf>
   1400011f2:	8b 06                	mov    eax,DWORD PTR [rsi]
   1400011f4:	85 c0                	test   eax,eax
   1400011f6:	0f 84 b4 01 00 00    	je     1400013b0 <__tmainCRTStartup+0x220>
   1400011fc:	c7 05 02 3e 01 00 01 	mov    DWORD PTR [rip+0x13e02],0x1        # 140015008 <has_cctor>
   140001203:	00 00 00 
   140001206:	8b 06                	mov    eax,DWORD PTR [rsi]
   140001208:	83 f8 01             	cmp    eax,0x1
   14000120b:	0f 84 53 01 00 00    	je     140001364 <__tmainCRTStartup+0x1d4>
   140001211:	85 ff                	test   edi,edi
   140001213:	0f 84 6c 01 00 00    	je     140001385 <__tmainCRTStartup+0x1f5>
   140001219:	48 8b 05 40 0a 01 00 	mov    rax,QWORD PTR [rip+0x10a40]        # 140011c60 <.refptr.__dyn_tls_init_callback>
   140001220:	48 8b 00             	mov    rax,QWORD PTR [rax]
   140001223:	48 85 c0             	test   rax,rax
   140001226:	74 0c                	je     140001234 <__tmainCRTStartup+0xa4>
   140001228:	45 31 c0             	xor    r8d,r8d
   14000122b:	ba 02 00 00 00       	mov    edx,0x2
   140001230:	31 c9                	xor    ecx,ecx
   140001232:	ff d0                	call   rax
   140001234:	e8 87 b3 00 00       	call   14000c5c0 <_pei386_runtime_relocator>
   140001239:	48 8b 0d 50 0b 01 00 	mov    rcx,QWORD PTR [rip+0x10b50]        # 140011d90 <.refptr._gnu_exception_handler>
   140001240:	ff 15 5a 50 01 00    	call   QWORD PTR [rip+0x1505a]        # 1400162a0 <__imp_SetUnhandledExceptionFilter>
   140001246:	48 8b 15 a3 0a 01 00 	mov    rdx,QWORD PTR [rip+0x10aa3]        # 140011cf0 <.refptr.__mingw_oldexcpt_handler>
   14000124d:	48 8d 0d ac fd ff ff 	lea    rcx,[rip+0xfffffffffffffdac]        # 140001000 <__mingw_invalidParameterHandler>
   140001254:	48 89 02             	mov    QWORD PTR [rdx],rax
   140001257:	e8 f4 bf 00 00       	call   14000d250 <_set_invalid_parameter_handler>
   14000125c:	e8 6f b1 00 00       	call   14000c3d0 <_fpreset>
   140001261:	8b 1d c1 3d 01 00    	mov    ebx,DWORD PTR [rip+0x13dc1]        # 140015028 <argc>
   140001267:	8d 7b 01             	lea    edi,[rbx+0x1]
   14000126a:	48 63 ff             	movsxd rdi,edi
   14000126d:	48 c1 e7 03          	shl    rdi,0x3
   140001271:	48 89 f9             	mov    rcx,rdi
   140001274:	e8 8f c0 00 00       	call   14000d308 <malloc>
   140001279:	4c 8b 2d a0 3d 01 00 	mov    r13,QWORD PTR [rip+0x13da0]        # 140015020 <argv>
   140001280:	49 89 c4             	mov    r12,rax
   140001283:	85 db                	test   ebx,ebx
   140001285:	0f 8e 45 01 00 00    	jle    1400013d0 <__tmainCRTStartup+0x240>
   14000128b:	48 83 ef 08          	sub    rdi,0x8
   14000128f:	31 db                	xor    ebx,ebx
   140001291:	0f 1f 80 00 00 00 00 	nop    DWORD PTR [rax+0x0]
   140001298:	49 8b 4c 1d 00       	mov    rcx,QWORD PTR [r13+rbx*1+0x0]
   14000129d:	e8 8e c0 00 00       	call   14000d330 <strlen>
   1400012a2:	48 8d 70 01          	lea    rsi,[rax+0x1]
   1400012a6:	48 89 f1             	mov    rcx,rsi
   1400012a9:	e8 5a c0 00 00       	call   14000d308 <malloc>
   1400012ae:	49 89 f0             	mov    r8,rsi
   1400012b1:	49 89 04 1c          	mov    QWORD PTR [r12+rbx*1],rax
   1400012b5:	49 8b 54 1d 00       	mov    rdx,QWORD PTR [r13+rbx*1+0x0]
   1400012ba:	48 89 c1             	mov    rcx,rax
   1400012bd:	48 83 c3 08          	add    rbx,0x8
   1400012c1:	e8 4a c0 00 00       	call   14000d310 <memcpy>
   1400012c6:	48 39 df             	cmp    rdi,rbx
   1400012c9:	75 cd                	jne    140001298 <__tmainCRTStartup+0x108>
   1400012cb:	4c 01 e7             	add    rdi,r12
   1400012ce:	48 c7 07 00 00 00 00 	mov    QWORD PTR [rdi],0x0
   1400012d5:	4c 89 25 44 3d 01 00 	mov    QWORD PTR [rip+0x13d44],r12        # 140015020 <argv>
   1400012dc:	e8 ef ae 00 00       	call   14000c1d0 <__main>
   1400012e1:	48 8b 05 98 09 01 00 	mov    rax,QWORD PTR [rip+0x10998]        # 140011c80 <.refptr.__imp___initenv>
   1400012e8:	4c 8b 05 29 3d 01 00 	mov    r8,QWORD PTR [rip+0x13d29]        # 140015018 <envp>
   1400012ef:	8b 0d 33 3d 01 00    	mov    ecx,DWORD PTR [rip+0x13d33]        # 140015028 <argc>
   1400012f5:	48 8b 00             	mov    rax,QWORD PTR [rax]
   1400012f8:	4c 89 00             	mov    QWORD PTR [rax],r8
   1400012fb:	48 8b 15 1e 3d 01 00 	mov    rdx,QWORD PTR [rip+0x13d1e]        # 140015020 <argv>
   140001302:	e8 db ab 00 00       	call   14000bee2 <main>
   140001307:	8b 0d ff 3c 01 00    	mov    ecx,DWORD PTR [rip+0x13cff]        # 14001500c <managedapp>
   14000130d:	89 05 fd 3c 01 00    	mov    DWORD PTR [rip+0x13cfd],eax        # 140015010 <mainret>
   140001313:	85 c9                	test   ecx,ecx
   140001315:	0f 84 bd 00 00 00    	je     1400013d8 <__tmainCRTStartup+0x248>
   14000131b:	8b 15 e7 3c 01 00    	mov    edx,DWORD PTR [rip+0x13ce7]        # 140015008 <has_cctor>
   140001321:	85 d2                	test   edx,edx
   140001323:	74 6b                	je     140001390 <__tmainCRTStartup+0x200>
   140001325:	48 83 c4 28          	add    rsp,0x28
   140001329:	5b                   	pop    rbx
   14000132a:	5e                   	pop    rsi
   14000132b:	5f                   	pop    rdi
   14000132c:	41 5c                	pop    r12
   14000132e:	41 5d                	pop    r13
   140001330:	5d                   	pop    rbp
   140001331:	c3                   	ret
   140001332:	66 0f 1f 44 00 00    	nop    WORD PTR [rax+rax*1+0x0]
   140001338:	48 8b 35 d1 09 01 00 	mov    rsi,QWORD PTR [rip+0x109d1]        # 140011d10 <.refptr.__native_startup_state>
   14000133f:	bf 01 00 00 00       	mov    edi,0x1
   140001344:	8b 06                	mov    eax,DWORD PTR [rsi]
   140001346:	83 f8 01             	cmp    eax,0x1
   140001349:	0f 85 a3 fe ff ff    	jne    1400011f2 <__tmainCRTStartup+0x62>
   14000134f:	b9 1f 00 00 00       	mov    ecx,0x1f
   140001354:	e8 5f bf 00 00       	call   14000d2b8 <_amsg_exit>
   140001359:	8b 06                	mov    eax,DWORD PTR [rsi]
   14000135b:	83 f8 01             	cmp    eax,0x1
   14000135e:	0f 85 ad fe ff ff    	jne    140001211 <__tmainCRTStartup+0x81>
   140001364:	48 8b 15 c5 09 01 00 	mov    rdx,QWORD PTR [rip+0x109c5]        # 140011d30 <.refptr.__xc_z>
   14000136b:	48 8b 0d ae 09 01 00 	mov    rcx,QWORD PTR [rip+0x109ae]        # 140011d20 <.refptr.__xc_a>
   140001372:	e8 51 bf 00 00       	call   14000d2c8 <_initterm>
   140001377:	c7 06 02 00 00 00    	mov    DWORD PTR [rsi],0x2
   14000137d:	85 ff                	test   edi,edi
   14000137f:	0f 85 94 fe ff ff    	jne    140001219 <__tmainCRTStartup+0x89>
   140001385:	31 c0                	xor    eax,eax
   140001387:	48 87 03             	xchg   QWORD PTR [rbx],rax
   14000138a:	e9 8a fe ff ff       	jmp    140001219 <__tmainCRTStartup+0x89>
   14000138f:	90                   	nop
   140001390:	e8 2b bf 00 00       	call   14000d2c0 <_cexit>
   140001395:	8b 05 75 3c 01 00    	mov    eax,DWORD PTR [rip+0x13c75]        # 140015010 <mainret>
   14000139b:	48 83 c4 28          	add    rsp,0x28
   14000139f:	5b                   	pop    rbx
   1400013a0:	5e                   	pop    rsi
   1400013a1:	5f                   	pop    rdi
   1400013a2:	41 5c                	pop    r12
   1400013a4:	41 5d                	pop    r13
   1400013a6:	5d                   	pop    rbp
   1400013a7:	c3                   	ret
   1400013a8:	0f 1f 84 00 00 00 00 	nop    DWORD PTR [rax+rax*1+0x0]
   1400013af:	00 
   1400013b0:	48 8b 15 99 09 01 00 	mov    rdx,QWORD PTR [rip+0x10999]        # 140011d50 <.refptr.__xi_z>
   1400013b7:	48 8b 0d 82 09 01 00 	mov    rcx,QWORD PTR [rip+0x10982]        # 140011d40 <.refptr.__xi_a>
   1400013be:	c7 06 01 00 00 00    	mov    DWORD PTR [rsi],0x1
   1400013c4:	e8 ff be 00 00       	call   14000d2c8 <_initterm>
   1400013c9:	e9 38 fe ff ff       	jmp    140001206 <__tmainCRTStartup+0x76>
   1400013ce:	66 90                	xchg   ax,ax
   1400013d0:	48 89 c7             	mov    rdi,rax
   1400013d3:	e9 f6 fe ff ff       	jmp    1400012ce <__tmainCRTStartup+0x13e>
   1400013d8:	89 c1                	mov    ecx,eax
   1400013da:	e8 09 bf 00 00       	call   14000d2e8 <exit>
   1400013df:	90                   	nop

00000001400013e0 <WinMainCRTStartup>:
   1400013e0:	55                   	push   rbp
   1400013e1:	48 89 e5             	mov    rbp,rsp
   1400013e4:	48 83 ec 20          	sub    rsp,0x20

00000001400013e8 <.l_startw>:
   1400013e8:	48 8b 05 c1 08 01 00 	mov    rax,QWORD PTR [rip+0x108c1]        # 140011cb0 <.refptr.__mingw_app_type>
   1400013ef:	c7 00 01 00 00 00    	mov    DWORD PTR [rax],0x1
   1400013f5:	e8 96 fd ff ff       	call   140001190 <__tmainCRTStartup>
   1400013fa:	90                   	nop

00000001400013fb <.l_endw>:
   1400013fb:	90                   	nop
   1400013fc:	48 83 c4 20          	add    rsp,0x20
   140001400:	5d                   	pop    rbp
   140001401:	c3                   	ret
   140001402:	66 66 2e 0f 1f 84 00 	data16 cs nop WORD PTR [rax+rax*1+0x0]
   140001409:	00 00 00 00 
   14000140d:	0f 1f 00             	nop    DWORD PTR [rax]

0000000140001410 <mainCRTStartup>:
   140001410:	55                   	push   rbp
   140001411:	48 89 e5             	mov    rbp,rsp
   140001414:	48 83 ec 20          	sub    rsp,0x20

0000000140001418 <.l_start>:
   140001418:	48 8b 05 91 08 01 00 	mov    rax,QWORD PTR [rip+0x10891]        # 140011cb0 <.refptr.__mingw_app_type>
   14000141f:	c7 00 00 00 00 00    	mov    DWORD PTR [rax],0x0
   140001425:	e8 66 fd ff ff       	call   140001190 <__tmainCRTStartup>
   14000142a:	90                   	nop

000000014000142b <.l_end>:
   14000142b:	90                   	nop
   14000142c:	48 83 c4 20          	add    rsp,0x20
   140001430:	5d                   	pop    rbp
   140001431:	c3                   	ret
   140001432:	66 66 2e 0f 1f 84 00 	data16 cs nop WORD PTR [rax+rax*1+0x0]
   140001439:	00 00 00 00 
   14000143d:	0f 1f 00             	nop    DWORD PTR [rax]

0000000140001440 <atexit>:
   140001440:	55                   	push   rbp
   140001441:	48 89 e5             	mov    rbp,rsp
   140001444:	48 83 ec 20          	sub    rsp,0x20
   140001448:	e8 83 be 00 00       	call   14000d2d0 <_onexit>
   14000144d:	48 83 f8 01          	cmp    rax,0x1
   140001451:	19 c0                	sbb    eax,eax
   140001453:	48 83 c4 20          	add    rsp,0x20
   140001457:	5d                   	pop    rbp
   140001458:	c3                   	ret
   140001459:	90                   	nop
   14000145a:	90                   	nop
   14000145b:	90                   	nop
   14000145c:	90                   	nop
   14000145d:	90                   	nop
   14000145e:	90                   	nop
   14000145f:	90                   	nop

0000000140001460 <__gcc_register_frame>:
   140001460:	48 8d 0d 09 00 00 00 	lea    rcx,[rip+0x9]        # 140001470 <__gcc_deregister_frame>
   140001467:	e9 d4 ff ff ff       	jmp    140001440 <atexit>
   14000146c:	0f 1f 40 00          	nop    DWORD PTR [rax+0x0]

0000000140001470 <__gcc_deregister_frame>:
   140001470:	c3                   	ret
   140001471:	90                   	nop
   140001472:	90                   	nop
   140001473:	90                   	nop
   140001474:	90                   	nop
   140001475:	90                   	nop
   140001476:	90                   	nop
   140001477:	90                   	nop
   140001478:	90                   	nop
   140001479:	90                   	nop
   14000147a:	90                   	nop
   14000147b:	90                   	nop
   14000147c:	90                   	nop
   14000147d:	90                   	nop
   14000147e:	90                   	nop
   14000147f:	90                   	nop

0000000140001480 <_ZN5rvm645crypt11decrypt_ptrEy>:
   140001480:	55                   	push   rbp
   140001481:	48 89 e5             	mov    rbp,rsp
   140001484:	48 89 4d 10          	mov    QWORD PTR [rbp+0x10],rcx
   140001488:	48 8b 05 79 eb 00 00 	mov    rax,QWORD PTR [rip+0xeb79]        # 140010008 <vmcs>
   14000148f:	48 8b 40 10          	mov    rax,QWORD PTR [rax+0x10]
   140001493:	48 33 45 10          	xor    rax,QWORD PTR [rbp+0x10]
   140001497:	5d                   	pop    rbp
   140001498:	c3                   	ret

0000000140001499 <_ZN5rvm644rvni22windows_thunk_resolverEPKc>:
   140001499:	55                   	push   rbp
   14000149a:	56                   	push   rsi
   14000149b:	53                   	push   rbx
   14000149c:	48 83 ec 30          	sub    rsp,0x30
   1400014a0:	48 8d 6c 24 30       	lea    rbp,[rsp+0x30]
   1400014a5:	48 89 4d 20          	mov    QWORD PTR [rbp+0x20],rcx
   1400014a9:	0f b6 05 88 3b 01 00 	movzx  eax,BYTE PTR [rip+0x13b88]        # 140015038 <_ZGVZN5rvm644rvni22windows_thunk_resolverEPKcE4ucrt>
   1400014b0:	84 c0                	test   al,al
   1400014b2:	0f 94 c0             	sete   al
   1400014b5:	84 c0                	test   al,al
   1400014b7:	74 46                	je     1400014ff <_ZN5rvm644rvni22windows_thunk_resolverEPKc+0x66>
   1400014b9:	48 8d 05 78 3b 01 00 	lea    rax,[rip+0x13b78]        # 140015038 <_ZGVZN5rvm644rvni22windows_thunk_resolverEPKcE4ucrt>
   1400014c0:	48 89 c1             	mov    rcx,rax
   1400014c3:	e8 f0 ab 00 00       	call   14000c0b8 <__cxa_guard_acquire>
   1400014c8:	85 c0                	test   eax,eax
   1400014ca:	0f 95 c0             	setne  al
   1400014cd:	84 c0                	test   al,al
   1400014cf:	74 2e                	je     1400014ff <_ZN5rvm644rvni22windows_thunk_resolverEPKc+0x66>
   1400014d1:	be 00 00 00 00       	mov    esi,0x0
   1400014d6:	48 8d 05 6a fb 00 00 	lea    rax,[rip+0xfb6a]        # 140011047 <_ZL8memcheck+0x3f>
   1400014dd:	48 89 c1             	mov    rcx,rax
   1400014e0:	48 8b 05 a9 4d 01 00 	mov    rax,QWORD PTR [rip+0x14da9]        # 140016290 <__imp_LoadLibraryA>
   1400014e7:	ff d0                	call   rax
   1400014e9:	48 89 05 40 3b 01 00 	mov    QWORD PTR [rip+0x13b40],rax        # 140015030 <_ZZN5rvm644rvni22windows_thunk_resolverEPKcE4ucrt>
   1400014f0:	48 8d 05 41 3b 01 00 	lea    rax,[rip+0x13b41]        # 140015038 <_ZGVZN5rvm644rvni22windows_thunk_resolverEPKcE4ucrt>
   1400014f7:	48 89 c1             	mov    rcx,rax
   1400014fa:	e8 b1 ab 00 00       	call   14000c0b0 <__cxa_guard_release>
   1400014ff:	48 8b 05 2a 3b 01 00 	mov    rax,QWORD PTR [rip+0x13b2a]        # 140015030 <_ZZN5rvm644rvni22windows_thunk_resolverEPKcE4ucrt>
   140001506:	48 85 c0             	test   rax,rax
   140001509:	75 5b                	jne    140001566 <_ZN5rvm644rvni22windows_thunk_resolverEPKc+0xcd>
   14000150b:	48 8b 05 f6 ea 00 00 	mov    rax,QWORD PTR [rip+0xeaf6]        # 140010008 <vmcs>
   140001512:	48 c7 80 90 03 80 00 	mov    QWORD PTR [rax+0x800390],0x0
   140001519:	00 00 00 00 
   14000151d:	48 8b 05 e4 ea 00 00 	mov    rax,QWORD PTR [rip+0xeae4]        # 140010008 <vmcs>
   140001524:	48 c7 80 98 03 80 00 	mov    QWORD PTR [rax+0x800398],0xb025
   14000152b:	25 b0 00 00 
   14000152f:	48 8b 05 d2 ea 00 00 	mov    rax,QWORD PTR [rip+0xead2]        # 140010008 <vmcs>
   140001536:	48 c7 80 a0 03 80 00 	mov    QWORD PTR [rax+0x8003a0],0x0
   14000153d:	00 00 00 00 
   140001541:	48 8b 05 c0 ea 00 00 	mov    rax,QWORD PTR [rip+0xeac0]        # 140010008 <vmcs>
   140001548:	48 c7 80 a8 03 80 00 	mov    QWORD PTR [rax+0x8003a8],0x0
   14000154f:	00 00 00 00 
   140001553:	48 8b 05 ae ea 00 00 	mov    rax,QWORD PTR [rip+0xeaae]        # 140010008 <vmcs>
   14000155a:	c7 80 b0 03 80 00 01 	mov    DWORD PTR [rax+0x8003b0],0x1
   140001561:	00 00 00 
   140001564:	cc                   	int3
   140001565:	90                   	nop
   140001566:	48 c7 45 f8 00 00 00 	mov    QWORD PTR [rbp-0x8],0x0
   14000156d:	00 
   14000156e:	eb 47                	jmp    1400015b7 <_ZN5rvm644rvni22windows_thunk_resolverEPKc+0x11e>
   140001570:	48 8b 45 f8          	mov    rax,QWORD PTR [rbp-0x8]
   140001574:	48 c1 e0 04          	shl    rax,0x4
   140001578:	48 89 c2             	mov    rdx,rax
   14000157b:	48 8d 05 9e ea 00 00 	lea    rax,[rip+0xea9e]        # 140010020 <_ZN5rvm644rvni11alias_tableE>
   140001582:	48 8b 14 02          	mov    rdx,QWORD PTR [rdx+rax*1]
   140001586:	48 8b 45 20          	mov    rax,QWORD PTR [rbp+0x20]
   14000158a:	48 89 c1             	mov    rcx,rax
   14000158d:	e8 96 bd 00 00       	call   14000d328 <strcmp>
   140001592:	85 c0                	test   eax,eax
   140001594:	75 1c                	jne    1400015b2 <_ZN5rvm644rvni22windows_thunk_resolverEPKc+0x119>
   140001596:	48 8b 45 f8          	mov    rax,QWORD PTR [rbp-0x8]
   14000159a:	48 c1 e0 04          	shl    rax,0x4
   14000159e:	48 89 c2             	mov    rdx,rax
   1400015a1:	48 8d 05 80 ea 00 00 	lea    rax,[rip+0xea80]        # 140010028 <_ZN5rvm644rvni11alias_tableE+0x8>
   1400015a8:	48 8b 04 02          	mov    rax,QWORD PTR [rdx+rax*1]
   1400015ac:	48 89 45 20          	mov    QWORD PTR [rbp+0x20],rax
   1400015b0:	eb 0c                	jmp    1400015be <_ZN5rvm644rvni22windows_thunk_resolverEPKc+0x125>
   1400015b2:	48 83 45 f8 01       	add    QWORD PTR [rbp-0x8],0x1
   1400015b7:	48 83 7d f8 04       	cmp    QWORD PTR [rbp-0x8],0x4
   1400015bc:	76 b2                	jbe    140001570 <_ZN5rvm644rvni22windows_thunk_resolverEPKc+0xd7>
   1400015be:	48 8b 05 6b 3a 01 00 	mov    rax,QWORD PTR [rip+0x13a6b]        # 140015030 <_ZZN5rvm644rvni22windows_thunk_resolverEPKcE4ucrt>
   1400015c5:	48 8b 55 20          	mov    rdx,QWORD PTR [rbp+0x20]
   1400015c9:	48 89 c1             	mov    rcx,rax
   1400015cc:	48 8b 05 a5 4c 01 00 	mov    rax,QWORD PTR [rip+0x14ca5]        # 140016278 <__imp_GetProcAddress>
   1400015d3:	ff d0                	call   rax
   1400015d5:	48 89 45 f0          	mov    QWORD PTR [rbp-0x10],rax
   1400015d9:	48 83 7d f0 00       	cmp    QWORD PTR [rbp-0x10],0x0
   1400015de:	75 5b                	jne    14000163b <_ZN5rvm644rvni22windows_thunk_resolverEPKc+0x1a2>
   1400015e0:	48 8b 05 21 ea 00 00 	mov    rax,QWORD PTR [rip+0xea21]        # 140010008 <vmcs>
   1400015e7:	48 c7 80 90 03 80 00 	mov    QWORD PTR [rax+0x800390],0x0
   1400015ee:	00 00 00 00 
   1400015f2:	48 8b 05 0f ea 00 00 	mov    rax,QWORD PTR [rip+0xea0f]        # 140010008 <vmcs>
   1400015f9:	48 c7 80 98 03 80 00 	mov    QWORD PTR [rax+0x800398],0xb025
   140001600:	25 b0 00 00 
   140001604:	48 8b 05 fd e9 00 00 	mov    rax,QWORD PTR [rip+0xe9fd]        # 140010008 <vmcs>
   14000160b:	48 c7 80 a0 03 80 00 	mov    QWORD PTR [rax+0x8003a0],0x0
   140001612:	00 00 00 00 
   140001616:	48 8b 05 eb e9 00 00 	mov    rax,QWORD PTR [rip+0xe9eb]        # 140010008 <vmcs>
   14000161d:	48 c7 80 a8 03 80 00 	mov    QWORD PTR [rax+0x8003a8],0x0
   140001624:	00 00 00 00 
   140001628:	48 8b 05 d9 e9 00 00 	mov    rax,QWORD PTR [rip+0xe9d9]        # 140010008 <vmcs>
   14000162f:	c7 80 b0 03 80 00 01 	mov    DWORD PTR [rax+0x8003b0],0x1
   140001636:	00 00 00 
   140001639:	cc                   	int3
   14000163a:	90                   	nop
   14000163b:	48 8b 45 f0          	mov    rax,QWORD PTR [rbp-0x10]
   14000163f:	eb 22                	jmp    140001663 <_ZN5rvm644rvni22windows_thunk_resolverEPKc+0x1ca>
   140001641:	48 89 c3             	mov    rbx,rax
   140001644:	40 84 f6             	test   sil,sil
   140001647:	75 0f                	jne    140001658 <_ZN5rvm644rvni22windows_thunk_resolverEPKc+0x1bf>
   140001649:	48 8d 05 e8 39 01 00 	lea    rax,[rip+0x139e8]        # 140015038 <_ZGVZN5rvm644rvni22windows_thunk_resolverEPKcE4ucrt>
   140001650:	48 89 c1             	mov    rcx,rax
   140001653:	e8 68 aa 00 00       	call   14000c0c0 <__cxa_guard_abort>
   140001658:	48 89 d8             	mov    rax,rbx
   14000165b:	48 89 c1             	mov    rcx,rax
   14000165e:	e8 6d bb 00 00       	call   14000d1d0 <_Unwind_Resume>
   140001663:	48 83 c4 30          	add    rsp,0x30
   140001667:	5b                   	pop    rbx
   140001668:	5e                   	pop    rsi
   140001669:	5d                   	pop    rbp
   14000166a:	c3                   	ret

000000014000166b <_ZN5rvm644rvni20resolve_ucrt_importsEv>:
   14000166b:	55                   	push   rbp
   14000166c:	48 81 ec 40 01 00 00 	sub    rsp,0x140
   140001673:	48 8d ac 24 80 00 00 	lea    rbp,[rsp+0x80]
   14000167a:	00 
   14000167b:	48 8d 05 c5 f9 00 00 	lea    rax,[rip+0xf9c5]        # 140011047 <_ZL8memcheck+0x3f>
   140001682:	48 89 c1             	mov    rcx,rax
   140001685:	48 8b 05 04 4c 01 00 	mov    rax,QWORD PTR [rip+0x14c04]        # 140016290 <__imp_LoadLibraryA>
   14000168c:	ff d0                	call   rax
   14000168e:	48 89 85 b0 00 00 00 	mov    QWORD PTR [rbp+0xb0],rax
   140001695:	48 83 bd b0 00 00 00 	cmp    QWORD PTR [rbp+0xb0],0x0
   14000169c:	00 
   14000169d:	75 5b                	jne    1400016fa <_ZN5rvm644rvni20resolve_ucrt_importsEv+0x8f>
   14000169f:	48 8b 05 62 e9 00 00 	mov    rax,QWORD PTR [rip+0xe962]        # 140010008 <vmcs>
   1400016a6:	48 c7 80 90 03 80 00 	mov    QWORD PTR [rax+0x800390],0x0
   1400016ad:	00 00 00 00 
   1400016b1:	48 8b 05 50 e9 00 00 	mov    rax,QWORD PTR [rip+0xe950]        # 140010008 <vmcs>
   1400016b8:	48 c7 80 98 03 80 00 	mov    QWORD PTR [rax+0x800398],0xb025
   1400016bf:	25 b0 00 00 
   1400016c3:	48 8b 05 3e e9 00 00 	mov    rax,QWORD PTR [rip+0xe93e]        # 140010008 <vmcs>
   1400016ca:	48 c7 80 a0 03 80 00 	mov    QWORD PTR [rax+0x8003a0],0x0
   1400016d1:	00 00 00 00 
   1400016d5:	48 8b 05 2c e9 00 00 	mov    rax,QWORD PTR [rip+0xe92c]        # 140010008 <vmcs>
   1400016dc:	48 c7 80 a8 03 80 00 	mov    QWORD PTR [rax+0x8003a8],0x0
   1400016e3:	00 00 00 00 
   1400016e7:	48 8b 05 1a e9 00 00 	mov    rax,QWORD PTR [rip+0xe91a]        # 140010008 <vmcs>
   1400016ee:	c7 80 b0 03 80 00 01 	mov    DWORD PTR [rax+0x8003b0],0x1
   1400016f5:	00 00 00 
   1400016f8:	cc                   	int3
   1400016f9:	90                   	nop
   1400016fa:	48 8d 05 10 f9 00 00 	lea    rax,[rip+0xf910]        # 140011011 <_ZL8memcheck+0x9>
   140001701:	48 89 45 c0          	mov    QWORD PTR [rbp-0x40],rax
   140001705:	c7 45 c8 00 00 00 00 	mov    DWORD PTR [rbp-0x38],0x0
   14000170c:	48 8d 05 09 f9 00 00 	lea    rax,[rip+0xf909]        # 14001101c <_ZL8memcheck+0x14>
   140001713:	48 89 45 d0          	mov    QWORD PTR [rbp-0x30],rax
   140001717:	c7 45 d8 01 00 00 00 	mov    DWORD PTR [rbp-0x28],0x1
   14000171e:	48 8d 05 03 f9 00 00 	lea    rax,[rip+0xf903]        # 140011028 <_ZL8memcheck+0x20>
   140001725:	48 89 45 e0          	mov    QWORD PTR [rbp-0x20],rax
   140001729:	c7 45 e8 02 00 00 00 	mov    DWORD PTR [rbp-0x18],0x2
   140001730:	48 8d 05 fe f8 00 00 	lea    rax,[rip+0xf8fe]        # 140011035 <_ZL8memcheck+0x2d>
   140001737:	48 89 45 f0          	mov    QWORD PTR [rbp-0x10],rax
   14000173b:	c7 45 f8 03 00 00 00 	mov    DWORD PTR [rbp-0x8],0x3
   140001742:	48 8d 05 0b f9 00 00 	lea    rax,[rip+0xf90b]        # 140011054 <_ZL8memcheck+0x4c>
   140001749:	48 89 45 00          	mov    QWORD PTR [rbp+0x0],rax
   14000174d:	c7 45 08 04 00 00 00 	mov    DWORD PTR [rbp+0x8],0x4
   140001754:	48 8d 05 00 f9 00 00 	lea    rax,[rip+0xf900]        # 14001105b <_ZL8memcheck+0x53>
   14000175b:	48 89 45 10          	mov    QWORD PTR [rbp+0x10],rax
   14000175f:	c7 45 18 05 00 00 00 	mov    DWORD PTR [rbp+0x18],0x5
   140001766:	48 8d 05 f6 f8 00 00 	lea    rax,[rip+0xf8f6]        # 140011063 <_ZL8memcheck+0x5b>
   14000176d:	48 89 45 20          	mov    QWORD PTR [rbp+0x20],rax
   140001771:	c7 45 28 06 00 00 00 	mov    DWORD PTR [rbp+0x28],0x6
   140001778:	48 8d 05 eb f8 00 00 	lea    rax,[rip+0xf8eb]        # 14001106a <_ZL8memcheck+0x62>
   14000177f:	48 89 45 30          	mov    QWORD PTR [rbp+0x30],rax
   140001783:	c7 45 38 07 00 00 00 	mov    DWORD PTR [rbp+0x38],0x7
   14000178a:	48 8d 05 de f8 00 00 	lea    rax,[rip+0xf8de]        # 14001106f <_ZL8memcheck+0x67>
   140001791:	48 89 45 40          	mov    QWORD PTR [rbp+0x40],rax
   140001795:	c7 45 48 08 00 00 00 	mov    DWORD PTR [rbp+0x48],0x8
   14000179c:	48 8d 05 d3 f8 00 00 	lea    rax,[rip+0xf8d3]        # 140011076 <_ZL8memcheck+0x6e>
   1400017a3:	48 89 45 50          	mov    QWORD PTR [rbp+0x50],rax
   1400017a7:	c7 45 58 09 00 00 00 	mov    DWORD PTR [rbp+0x58],0x9
   1400017ae:	48 8d 05 c8 f8 00 00 	lea    rax,[rip+0xf8c8]        # 14001107d <_ZL8memcheck+0x75>
   1400017b5:	48 89 45 60          	mov    QWORD PTR [rbp+0x60],rax
   1400017b9:	c7 45 68 0a 00 00 00 	mov    DWORD PTR [rbp+0x68],0xa
   1400017c0:	48 8d 05 bd f8 00 00 	lea    rax,[rip+0xf8bd]        # 140011084 <_ZL8memcheck+0x7c>
   1400017c7:	48 89 45 70          	mov    QWORD PTR [rbp+0x70],rax
   1400017cb:	c7 45 78 0b 00 00 00 	mov    DWORD PTR [rbp+0x78],0xb
   1400017d2:	48 8d 05 b2 f8 00 00 	lea    rax,[rip+0xf8b2]        # 14001108b <_ZL8memcheck+0x83>
   1400017d9:	48 89 85 80 00 00 00 	mov    QWORD PTR [rbp+0x80],rax
   1400017e0:	c7 85 88 00 00 00 0c 	mov    DWORD PTR [rbp+0x88],0xc
   1400017e7:	00 00 00 
   1400017ea:	48 8d 45 c0          	lea    rax,[rbp-0x40]
   1400017ee:	48 89 85 a8 00 00 00 	mov    QWORD PTR [rbp+0xa8],rax
   1400017f5:	48 8b 85 a8 00 00 00 	mov    rax,QWORD PTR [rbp+0xa8]
   1400017fc:	48 89 85 b8 00 00 00 	mov    QWORD PTR [rbp+0xb8],rax
   140001803:	48 8b 85 a8 00 00 00 	mov    rax,QWORD PTR [rbp+0xa8]
   14000180a:	48 05 d0 00 00 00    	add    rax,0xd0
   140001810:	48 89 85 a0 00 00 00 	mov    QWORD PTR [rbp+0xa0],rax
   140001817:	e9 14 02 00 00       	jmp    140001a30 <_ZN5rvm644rvni20resolve_ucrt_importsEv+0x3c5>
   14000181c:	48 8b 85 b8 00 00 00 	mov    rax,QWORD PTR [rbp+0xb8]
   140001823:	48 89 85 98 00 00 00 	mov    QWORD PTR [rbp+0x98],rax
   14000182a:	48 8b 85 98 00 00 00 	mov    rax,QWORD PTR [rbp+0x98]
   140001831:	48 8b 10             	mov    rdx,QWORD PTR [rax]
   140001834:	48 8b 85 b0 00 00 00 	mov    rax,QWORD PTR [rbp+0xb0]
   14000183b:	48 89 c1             	mov    rcx,rax
   14000183e:	48 8b 05 33 4a 01 00 	mov    rax,QWORD PTR [rip+0x14a33]        # 140016278 <__imp_GetProcAddress>
   140001845:	ff d0                	call   rax
   140001847:	48 89 45 b8          	mov    QWORD PTR [rbp-0x48],rax
   14000184b:	48 8b 45 b8          	mov    rax,QWORD PTR [rbp-0x48]
   14000184f:	48 85 c0             	test   rax,rax
   140001852:	75 5b                	jne    1400018af <_ZN5rvm644rvni20resolve_ucrt_importsEv+0x244>
   140001854:	48 8b 05 ad e7 00 00 	mov    rax,QWORD PTR [rip+0xe7ad]        # 140010008 <vmcs>
   14000185b:	48 c7 80 90 03 80 00 	mov    QWORD PTR [rax+0x800390],0x0
   140001862:	00 00 00 00 
   140001866:	48 8b 05 9b e7 00 00 	mov    rax,QWORD PTR [rip+0xe79b]        # 140010008 <vmcs>
   14000186d:	48 c7 80 98 03 80 00 	mov    QWORD PTR [rax+0x800398],0xb025
   140001874:	25 b0 00 00 
   140001878:	48 8b 05 89 e7 00 00 	mov    rax,QWORD PTR [rip+0xe789]        # 140010008 <vmcs>
   14000187f:	48 c7 80 a0 03 80 00 	mov    QWORD PTR [rax+0x8003a0],0x0
   140001886:	00 00 00 00 
   14000188a:	48 8b 05 77 e7 00 00 	mov    rax,QWORD PTR [rip+0xe777]        # 140010008 <vmcs>
   140001891:	48 c7 80 a8 03 80 00 	mov    QWORD PTR [rax+0x8003a8],0x0
   140001898:	00 00 00 00 
   14000189c:	48 8b 05 65 e7 00 00 	mov    rax,QWORD PTR [rip+0xe765]        # 140010008 <vmcs>
   1400018a3:	c7 80 b0 03 80 00 01 	mov    DWORD PTR [rax+0x8003b0],0x1
   1400018aa:	00 00 00 
   1400018ad:	cc                   	int3
   1400018ae:	90                   	nop
   1400018af:	66 0f ef c0          	pxor   xmm0,xmm0
   1400018b3:	0f 11 45 a0          	movups XMMWORD PTR [rbp-0x60],xmm0
   1400018b7:	66 0f d6 45 b0       	movq   QWORD PTR [rbp-0x50],xmm0
   1400018bc:	48 8b 45 b8          	mov    rax,QWORD PTR [rbp-0x48]
   1400018c0:	48 89 45 a0          	mov    QWORD PTR [rbp-0x60],rax
   1400018c4:	48 8b 85 98 00 00 00 	mov    rax,QWORD PTR [rbp+0x98]
   1400018cb:	8b 40 08             	mov    eax,DWORD PTR [rax+0x8]
   1400018ce:	89 45 a8             	mov    DWORD PTR [rbp-0x58],eax
   1400018d1:	8b 45 a8             	mov    eax,DWORD PTR [rbp-0x58]
   1400018d4:	83 f8 0c             	cmp    eax,0xc
   1400018d7:	0f 87 bf 00 00 00    	ja     14000199c <_ZN5rvm644rvni20resolve_ucrt_importsEv+0x331>
   1400018dd:	89 c0                	mov    eax,eax
   1400018df:	48 8d 14 85 00 00 00 	lea    rdx,[rax*4+0x0]
   1400018e6:	00 
   1400018e7:	48 8d 05 a6 f7 00 00 	lea    rax,[rip+0xf7a6]        # 140011094 <_ZL8memcheck+0x8c>
   1400018ee:	8b 04 02             	mov    eax,DWORD PTR [rdx+rax*1]
   1400018f1:	48 98                	cdqe
   1400018f3:	48 8d 15 9a f7 00 00 	lea    rdx,[rip+0xf79a]        # 140011094 <_ZL8memcheck+0x8c>
   1400018fa:	48 01 d0             	add    rax,rdx
   1400018fd:	ff e0                	jmp    rax
   1400018ff:	48 8b 45 b8          	mov    rax,QWORD PTR [rbp-0x48]
   140001903:	48 89 45 b0          	mov    QWORD PTR [rbp-0x50],rax
   140001907:	e9 ec 00 00 00       	jmp    1400019f8 <_ZN5rvm644rvni20resolve_ucrt_importsEv+0x38d>
   14000190c:	48 8b 45 b8          	mov    rax,QWORD PTR [rbp-0x48]
   140001910:	48 89 45 b0          	mov    QWORD PTR [rbp-0x50],rax
   140001914:	e9 df 00 00 00       	jmp    1400019f8 <_ZN5rvm644rvni20resolve_ucrt_importsEv+0x38d>
   140001919:	48 8b 45 b8          	mov    rax,QWORD PTR [rbp-0x48]
   14000191d:	48 89 45 b0          	mov    QWORD PTR [rbp-0x50],rax
   140001921:	e9 d2 00 00 00       	jmp    1400019f8 <_ZN5rvm644rvni20resolve_ucrt_importsEv+0x38d>
   140001926:	48 8b 45 b8          	mov    rax,QWORD PTR [rbp-0x48]
   14000192a:	48 89 45 b0          	mov    QWORD PTR [rbp-0x50],rax
   14000192e:	e9 c5 00 00 00       	jmp    1400019f8 <_ZN5rvm644rvni20resolve_ucrt_importsEv+0x38d>
   140001933:	48 8b 45 b8          	mov    rax,QWORD PTR [rbp-0x48]
   140001937:	48 89 45 b0          	mov    QWORD PTR [rbp-0x50],rax
   14000193b:	e9 b8 00 00 00       	jmp    1400019f8 <_ZN5rvm644rvni20resolve_ucrt_importsEv+0x38d>
   140001940:	48 8b 45 b8          	mov    rax,QWORD PTR [rbp-0x48]
   140001944:	48 89 45 b0          	mov    QWORD PTR [rbp-0x50],rax
   140001948:	e9 ab 00 00 00       	jmp    1400019f8 <_ZN5rvm644rvni20resolve_ucrt_importsEv+0x38d>
   14000194d:	48 8b 45 b8          	mov    rax,QWORD PTR [rbp-0x48]
   140001951:	48 89 45 b0          	mov    QWORD PTR [rbp-0x50],rax
   140001955:	e9 9e 00 00 00       	jmp    1400019f8 <_ZN5rvm644rvni20resolve_ucrt_importsEv+0x38d>
   14000195a:	48 8b 45 b8          	mov    rax,QWORD PTR [rbp-0x48]
   14000195e:	48 89 45 b0          	mov    QWORD PTR [rbp-0x50],rax
   140001962:	e9 91 00 00 00       	jmp    1400019f8 <_ZN5rvm644rvni20resolve_ucrt_importsEv+0x38d>
   140001967:	48 8b 45 b8          	mov    rax,QWORD PTR [rbp-0x48]
   14000196b:	48 89 45 b0          	mov    QWORD PTR [rbp-0x50],rax
   14000196f:	e9 84 00 00 00       	jmp    1400019f8 <_ZN5rvm644rvni20resolve_ucrt_importsEv+0x38d>
   140001974:	48 8b 45 b8          	mov    rax,QWORD PTR [rbp-0x48]
   140001978:	48 89 45 b0          	mov    QWORD PTR [rbp-0x50],rax
   14000197c:	eb 7a                	jmp    1400019f8 <_ZN5rvm644rvni20resolve_ucrt_importsEv+0x38d>
   14000197e:	48 8b 45 b8          	mov    rax,QWORD PTR [rbp-0x48]
   140001982:	48 89 45 b0          	mov    QWORD PTR [rbp-0x50],rax
   140001986:	eb 70                	jmp    1400019f8 <_ZN5rvm644rvni20resolve_ucrt_importsEv+0x38d>
   140001988:	48 8b 45 b8          	mov    rax,QWORD PTR [rbp-0x48]
   14000198c:	48 89 45 b0          	mov    QWORD PTR [rbp-0x50],rax
   140001990:	eb 66                	jmp    1400019f8 <_ZN5rvm644rvni20resolve_ucrt_importsEv+0x38d>
   140001992:	48 8b 45 b8          	mov    rax,QWORD PTR [rbp-0x48]
   140001996:	48 89 45 b0          	mov    QWORD PTR [rbp-0x50],rax
   14000199a:	eb 5c                	jmp    1400019f8 <_ZN5rvm644rvni20resolve_ucrt_importsEv+0x38d>
   14000199c:	48 8b 05 65 e6 00 00 	mov    rax,QWORD PTR [rip+0xe665]        # 140010008 <vmcs>
   1400019a3:	48 c7 80 90 03 80 00 	mov    QWORD PTR [rax+0x800390],0x0
   1400019aa:	00 00 00 00 
   1400019ae:	48 8b 05 53 e6 00 00 	mov    rax,QWORD PTR [rip+0xe653]        # 140010008 <vmcs>
   1400019b5:	48 c7 80 98 03 80 00 	mov    QWORD PTR [rax+0x800398],0xb025
   1400019bc:	25 b0 00 00 
   1400019c0:	48 8b 05 41 e6 00 00 	mov    rax,QWORD PTR [rip+0xe641]        # 140010008 <vmcs>
   1400019c7:	48 c7 80 a0 03 80 00 	mov    QWORD PTR [rax+0x8003a0],0x0
   1400019ce:	00 00 00 00 
   1400019d2:	48 8b 05 2f e6 00 00 	mov    rax,QWORD PTR [rip+0xe62f]        # 140010008 <vmcs>
   1400019d9:	48 c7 80 a8 03 80 00 	mov    QWORD PTR [rax+0x8003a8],0x0
   1400019e0:	00 00 00 00 
   1400019e4:	48 8b 05 1d e6 00 00 	mov    rax,QWORD PTR [rip+0xe61d]        # 140010008 <vmcs>
   1400019eb:	c7 80 b0 03 80 00 01 	mov    DWORD PTR [rax+0x8003b0],0x1
   1400019f2:	00 00 00 
   1400019f5:	cc                   	int3
   1400019f6:	eb 4c                	jmp    140001a44 <_ZN5rvm644rvni20resolve_ucrt_importsEv+0x3d9>
   1400019f8:	48 8d 45 b8          	lea    rax,[rbp-0x48]
   1400019fc:	48 89 c2             	mov    rdx,rax
   1400019ff:	48 8d 05 7a e6 00 00 	lea    rax,[rip+0xe67a]        # 140010080 <_ZN5rvm644rvni17ucrt_native_tableE>
   140001a06:	48 89 c1             	mov    rcx,rax
   140001a09:	e8 12 cb 00 00       	call   14000e520 <_ZNSt13unordered_mapIPvN5rvm644rvni14native_wrapperESt4hashIS0_ESt8equal_toIS0_ESaISt4pairIKS0_S3_EEEixERS9_>
   140001a0e:	48 89 c1             	mov    rcx,rax
   140001a11:	48 8b 45 a0          	mov    rax,QWORD PTR [rbp-0x60]
   140001a15:	48 8b 55 a8          	mov    rdx,QWORD PTR [rbp-0x58]
   140001a19:	48 89 01             	mov    QWORD PTR [rcx],rax
   140001a1c:	48 89 51 08          	mov    QWORD PTR [rcx+0x8],rdx
   140001a20:	48 8b 45 b0          	mov    rax,QWORD PTR [rbp-0x50]
   140001a24:	48 89 41 10          	mov    QWORD PTR [rcx+0x10],rax
   140001a28:	48 83 85 b8 00 00 00 	add    QWORD PTR [rbp+0xb8],0x10
   140001a2f:	10 
   140001a30:	48 8b 85 b8 00 00 00 	mov    rax,QWORD PTR [rbp+0xb8]
   140001a37:	48 3b 85 a0 00 00 00 	cmp    rax,QWORD PTR [rbp+0xa0]
   140001a3e:	0f 85 d8 fd ff ff    	jne    14000181c <_ZN5rvm644rvni20resolve_ucrt_importsEv+0x1b1>
   140001a44:	48 81 c4 40 01 00 00 	add    rsp,0x140
   140001a4b:	5d                   	pop    rbp
   140001a4c:	c3                   	ret

0000000140001a4d <_ZN5rvm644rvni14vm_native_callEv>:
   140001a4d:	55                   	push   rbp
   140001a4e:	56                   	push   rsi
   140001a4f:	53                   	push   rbx
   140001a50:	48 81 ec b0 01 00 00 	sub    rsp,0x1b0
   140001a57:	48 8d ac 24 80 00 00 	lea    rbp,[rsp+0x80]
   140001a5e:	00 
   140001a5f:	48 8b 05 a2 e5 00 00 	mov    rax,QWORD PTR [rip+0xe5a2]        # 140010008 <vmcs>
   140001a66:	48 8b 00             	mov    rax,QWORD PTR [rax]
   140001a69:	48 89 45 00          	mov    QWORD PTR [rbp+0x0],rax
   140001a6d:	48 89 e8             	mov    rax,rbp
   140001a70:	48 89 c2             	mov    rdx,rax
   140001a73:	48 8d 05 06 e6 00 00 	lea    rax,[rip+0xe606]        # 140010080 <_ZN5rvm644rvni17ucrt_native_tableE>
   140001a7a:	48 89 c1             	mov    rcx,rax
   140001a7d:	e8 2e ca 00 00       	call   14000e4b0 <_ZNSt13unordered_mapIPvN5rvm644rvni14native_wrapperESt4hashIS0_ESt8equal_toIS0_ESaISt4pairIKS0_S3_EEE4findERS9_>
   140001a82:	48 89 45 f8          	mov    QWORD PTR [rbp-0x8],rax
   140001a86:	48 8d 05 f3 e5 00 00 	lea    rax,[rip+0xe5f3]        # 140010080 <_ZN5rvm644rvni17ucrt_native_tableE>
   140001a8d:	48 89 c1             	mov    rcx,rax
   140001a90:	e8 fb c9 00 00       	call   14000e490 <_ZNSt13unordered_mapIPvN5rvm644rvni14native_wrapperESt4hashIS0_ESt8equal_toIS0_ESaISt4pairIKS0_S3_EEE3endEv>
   140001a95:	48 89 45 08          	mov    QWORD PTR [rbp+0x8],rax
   140001a99:	48 8d 55 08          	lea    rdx,[rbp+0x8]
   140001a9d:	48 8d 45 f8          	lea    rax,[rbp-0x8]
   140001aa1:	48 89 c1             	mov    rcx,rax
   140001aa4:	e8 27 d6 00 00       	call   14000f0d0 <_ZNSt8__detaileqERKNS_19_Node_iterator_baseISt4pairIKPvN5rvm644rvni14native_wrapperEELb0EEESA_>
   140001aa9:	84 c0                	test   al,al
   140001aab:	74 67                	je     140001b14 <_ZN5rvm644rvni14vm_native_callEv+0xc7>
   140001aad:	48 8b 15 54 e5 00 00 	mov    rdx,QWORD PTR [rip+0xe554]        # 140010008 <vmcs>
   140001ab4:	48 8b 05 4d e5 00 00 	mov    rax,QWORD PTR [rip+0xe54d]        # 140010008 <vmcs>
   140001abb:	48 8b 12             	mov    rdx,QWORD PTR [rdx]
   140001abe:	48 89 90 90 03 80 00 	mov    QWORD PTR [rax+0x800390],rdx
   140001ac5:	48 8b 05 3c e5 00 00 	mov    rax,QWORD PTR [rip+0xe53c]        # 140010008 <vmcs>
   140001acc:	48 c7 80 98 03 80 00 	mov    QWORD PTR [rax+0x800398],0xb02
   140001ad3:	02 0b 00 00 
   140001ad7:	48 8b 05 2a e5 00 00 	mov    rax,QWORD PTR [rip+0xe52a]        # 140010008 <vmcs>
   140001ade:	48 c7 80 a0 03 80 00 	mov    QWORD PTR [rax+0x8003a0],0x0
   140001ae5:	00 00 00 00 
   140001ae9:	48 8b 15 18 e5 00 00 	mov    rdx,QWORD PTR [rip+0xe518]        # 140010008 <vmcs>
   140001af0:	48 8b 05 11 e5 00 00 	mov    rax,QWORD PTR [rip+0xe511]        # 140010008 <vmcs>
   140001af7:	48 8b 12             	mov    rdx,QWORD PTR [rdx]
   140001afa:	48 89 90 a8 03 80 00 	mov    QWORD PTR [rax+0x8003a8],rdx
   140001b01:	48 8b 05 00 e5 00 00 	mov    rax,QWORD PTR [rip+0xe500]        # 140010008 <vmcs>
   140001b08:	c7 80 b0 03 80 00 01 	mov    DWORD PTR [rax+0x8003b0],0x1
   140001b0f:	00 00 00 
   140001b12:	cc                   	int3
   140001b13:	90                   	nop
   140001b14:	48 8d 45 f8          	lea    rax,[rbp-0x8]
   140001b18:	48 89 c1             	mov    rcx,rax
   140001b1b:	e8 70 bd 00 00       	call   14000d890 <_ZNKSt8__detail14_Node_iteratorISt4pairIKPvN5rvm644rvni14native_wrapperEELb0ELb0EEptEv>
   140001b20:	48 83 c0 08          	add    rax,0x8
   140001b24:	48 89 85 20 01 00 00 	mov    QWORD PTR [rbp+0x120],rax
   140001b2b:	48 8b 85 20 01 00 00 	mov    rax,QWORD PTR [rbp+0x120]
   140001b32:	8b 40 08             	mov    eax,DWORD PTR [rax+0x8]
   140001b35:	83 f8 0c             	cmp    eax,0xc
   140001b38:	0f 87 92 06 00 00    	ja     1400021d0 <_ZN5rvm644rvni14vm_native_callEv+0x783>
   140001b3e:	89 c0                	mov    eax,eax
   140001b40:	48 8d 14 85 00 00 00 	lea    rdx,[rax*4+0x0]
   140001b47:	00 
   140001b48:	48 8d 05 79 f5 00 00 	lea    rax,[rip+0xf579]        # 1400110c8 <_ZL8memcheck+0xc0>
   140001b4f:	8b 04 02             	mov    eax,DWORD PTR [rdx+rax*1]
   140001b52:	48 98                	cdqe
   140001b54:	48 8d 15 6d f5 00 00 	lea    rdx,[rip+0xf56d]        # 1400110c8 <_ZL8memcheck+0xc0>
   140001b5b:	48 01 d0             	add    rax,rdx
   140001b5e:	ff e0                	jmp    rax
   140001b60:	c7 45 30 00 00 00 00 	mov    DWORD PTR [rbp+0x30],0x0
   140001b67:	c7 45 2c 00 00 00 00 	mov    DWORD PTR [rbp+0x2c],0x0
   140001b6e:	48 8b 05 93 e4 00 00 	mov    rax,QWORD PTR [rip+0xe493]        # 140010008 <vmcs>
   140001b75:	48 8b 80 68 01 00 00 	mov    rax,QWORD PTR [rax+0x168]
   140001b7c:	48 89 45 20          	mov    QWORD PTR [rbp+0x20],rax
   140001b80:	48 8b 05 81 e4 00 00 	mov    rax,QWORD PTR [rip+0xe481]        # 140010008 <vmcs>
   140001b87:	48 8b 80 70 01 00 00 	mov    rax,QWORD PTR [rax+0x170]
   140001b8e:	89 45 30             	mov    DWORD PTR [rbp+0x30],eax
   140001b91:	48 8b 05 70 e4 00 00 	mov    rax,QWORD PTR [rip+0xe470]        # 140010008 <vmcs>
   140001b98:	48 8b 80 78 01 00 00 	mov    rax,QWORD PTR [rax+0x178]
   140001b9f:	89 45 2c             	mov    DWORD PTR [rbp+0x2c],eax
   140001ba2:	e8 53 a4 00 00       	call   14000bffa <save_vm_context>
   140001ba7:	48 8b 85 20 01 00 00 	mov    rax,QWORD PTR [rbp+0x120]
   140001bae:	4c 8b 48 10          	mov    r9,QWORD PTR [rax+0x10]
   140001bb2:	8b 4d 2c             	mov    ecx,DWORD PTR [rbp+0x2c]
   140001bb5:	8b 55 30             	mov    edx,DWORD PTR [rbp+0x30]
   140001bb8:	48 8b 45 20          	mov    rax,QWORD PTR [rbp+0x20]
   140001bbc:	41 89 c8             	mov    r8d,ecx
   140001bbf:	48 89 c1             	mov    rcx,rax
   140001bc2:	41 ff d1             	call   r9
   140001bc5:	89 45 1c             	mov    DWORD PTR [rbp+0x1c],eax
   140001bc8:	e8 7e a4 00 00       	call   14000c04b <restore_vm_context>
   140001bcd:	48 8b 05 34 e4 00 00 	mov    rax,QWORD PTR [rip+0xe434]        # 140010008 <vmcs>
   140001bd4:	8b 55 1c             	mov    edx,DWORD PTR [rbp+0x1c]
   140001bd7:	48 63 d2             	movsxd rdx,edx
   140001bda:	48 89 90 68 01 00 00 	mov    QWORD PTR [rax+0x168],rdx
   140001be1:	e9 53 06 00 00       	jmp    140002239 <_ZN5rvm644rvni14vm_native_callEv+0x7ec>
   140001be6:	c7 45 48 00 00 00 00 	mov    DWORD PTR [rbp+0x48],0x0
   140001bed:	c7 45 44 00 00 00 00 	mov    DWORD PTR [rbp+0x44],0x0
   140001bf4:	48 8b 05 0d e4 00 00 	mov    rax,QWORD PTR [rip+0xe40d]        # 140010008 <vmcs>
   140001bfb:	48 8b 80 68 01 00 00 	mov    rax,QWORD PTR [rax+0x168]
   140001c02:	89 45 48             	mov    DWORD PTR [rbp+0x48],eax
   140001c05:	48 8b 05 fc e3 00 00 	mov    rax,QWORD PTR [rip+0xe3fc]        # 140010008 <vmcs>
   140001c0c:	48 8b 80 70 01 00 00 	mov    rax,QWORD PTR [rax+0x170]
   140001c13:	48 89 45 38          	mov    QWORD PTR [rbp+0x38],rax
   140001c17:	48 8b 05 ea e3 00 00 	mov    rax,QWORD PTR [rip+0xe3ea]        # 140010008 <vmcs>
   140001c1e:	48 8b 80 78 01 00 00 	mov    rax,QWORD PTR [rax+0x178]
   140001c25:	89 45 44             	mov    DWORD PTR [rbp+0x44],eax
   140001c28:	e8 cd a3 00 00       	call   14000bffa <save_vm_context>
   140001c2d:	48 8b 85 20 01 00 00 	mov    rax,QWORD PTR [rbp+0x120]
   140001c34:	4c 8b 48 10          	mov    r9,QWORD PTR [rax+0x10]
   140001c38:	8b 4d 44             	mov    ecx,DWORD PTR [rbp+0x44]
   140001c3b:	48 8b 55 38          	mov    rdx,QWORD PTR [rbp+0x38]
   140001c3f:	8b 45 48             	mov    eax,DWORD PTR [rbp+0x48]
   140001c42:	41 89 c8             	mov    r8d,ecx
   140001c45:	89 c1                	mov    ecx,eax
   140001c47:	41 ff d1             	call   r9
   140001c4a:	89 45 34             	mov    DWORD PTR [rbp+0x34],eax
   140001c4d:	e8 f9 a3 00 00       	call   14000c04b <restore_vm_context>
   140001c52:	48 8b 05 af e3 00 00 	mov    rax,QWORD PTR [rip+0xe3af]        # 140010008 <vmcs>
   140001c59:	8b 55 34             	mov    edx,DWORD PTR [rbp+0x34]
   140001c5c:	48 63 d2             	movsxd rdx,edx
   140001c5f:	48 89 90 68 01 00 00 	mov    QWORD PTR [rax+0x168],rdx
   140001c66:	e9 ce 05 00 00       	jmp    140002239 <_ZN5rvm644rvni14vm_native_callEv+0x7ec>
   140001c6b:	c7 45 60 00 00 00 00 	mov    DWORD PTR [rbp+0x60],0x0
   140001c72:	c7 45 5c 00 00 00 00 	mov    DWORD PTR [rbp+0x5c],0x0
   140001c79:	48 8b 05 88 e3 00 00 	mov    rax,QWORD PTR [rip+0xe388]        # 140010008 <vmcs>
   140001c80:	48 8b 80 68 01 00 00 	mov    rax,QWORD PTR [rax+0x168]
   140001c87:	89 45 60             	mov    DWORD PTR [rbp+0x60],eax
   140001c8a:	48 8b 05 77 e3 00 00 	mov    rax,QWORD PTR [rip+0xe377]        # 140010008 <vmcs>
   140001c91:	48 8b 80 70 01 00 00 	mov    rax,QWORD PTR [rax+0x170]
   140001c98:	48 89 45 50          	mov    QWORD PTR [rbp+0x50],rax
   140001c9c:	48 8b 05 65 e3 00 00 	mov    rax,QWORD PTR [rip+0xe365]        # 140010008 <vmcs>
   140001ca3:	48 8b 80 78 01 00 00 	mov    rax,QWORD PTR [rax+0x178]
   140001caa:	89 45 5c             	mov    DWORD PTR [rbp+0x5c],eax
   140001cad:	e8 48 a3 00 00       	call   14000bffa <save_vm_context>
   140001cb2:	48 8b 85 20 01 00 00 	mov    rax,QWORD PTR [rbp+0x120]
   140001cb9:	4c 8b 48 10          	mov    r9,QWORD PTR [rax+0x10]
   140001cbd:	8b 4d 5c             	mov    ecx,DWORD PTR [rbp+0x5c]
   140001cc0:	48 8b 55 50          	mov    rdx,QWORD PTR [rbp+0x50]
   140001cc4:	8b 45 60             	mov    eax,DWORD PTR [rbp+0x60]
   140001cc7:	41 89 c8             	mov    r8d,ecx
   140001cca:	89 c1                	mov    ecx,eax
   140001ccc:	41 ff d1             	call   r9
   140001ccf:	89 45 4c             	mov    DWORD PTR [rbp+0x4c],eax
   140001cd2:	e8 74 a3 00 00       	call   14000c04b <restore_vm_context>
   140001cd7:	48 8b 05 2a e3 00 00 	mov    rax,QWORD PTR [rip+0xe32a]        # 140010008 <vmcs>
   140001cde:	8b 55 4c             	mov    edx,DWORD PTR [rbp+0x4c]
   140001ce1:	48 63 d2             	movsxd rdx,edx
   140001ce4:	48 89 90 68 01 00 00 	mov    QWORD PTR [rax+0x168],rdx
   140001ceb:	e9 49 05 00 00       	jmp    140002239 <_ZN5rvm644rvni14vm_native_callEv+0x7ec>
   140001cf0:	c7 45 68 00 00 00 00 	mov    DWORD PTR [rbp+0x68],0x0
   140001cf7:	48 8b 05 0a e3 00 00 	mov    rax,QWORD PTR [rip+0xe30a]        # 140010008 <vmcs>
   140001cfe:	48 8b 80 68 01 00 00 	mov    rax,QWORD PTR [rax+0x168]
   140001d05:	89 45 68             	mov    DWORD PTR [rbp+0x68],eax
   140001d08:	e8 ed a2 00 00       	call   14000bffa <save_vm_context>
   140001d0d:	48 8b 85 20 01 00 00 	mov    rax,QWORD PTR [rbp+0x120]
   140001d14:	48 8b 50 10          	mov    rdx,QWORD PTR [rax+0x10]
   140001d18:	8b 45 68             	mov    eax,DWORD PTR [rbp+0x68]
   140001d1b:	89 c1                	mov    ecx,eax
   140001d1d:	ff d2                	call   rdx
   140001d1f:	89 45 64             	mov    DWORD PTR [rbp+0x64],eax
   140001d22:	e8 24 a3 00 00       	call   14000c04b <restore_vm_context>
   140001d27:	48 8b 05 da e2 00 00 	mov    rax,QWORD PTR [rip+0xe2da]        # 140010008 <vmcs>
   140001d2e:	8b 55 64             	mov    edx,DWORD PTR [rbp+0x64]
   140001d31:	48 63 d2             	movsxd rdx,edx
   140001d34:	48 89 90 68 01 00 00 	mov    QWORD PTR [rax+0x168],rdx
   140001d3b:	e9 f9 04 00 00       	jmp    140002239 <_ZN5rvm644rvni14vm_native_callEv+0x7ec>
   140001d40:	c7 45 78 00 00 00 00 	mov    DWORD PTR [rbp+0x78],0x0
   140001d47:	c7 45 74 00 00 00 00 	mov    DWORD PTR [rbp+0x74],0x0
   140001d4e:	c7 45 70 00 00 00 00 	mov    DWORD PTR [rbp+0x70],0x0
   140001d55:	48 8b 05 ac e2 00 00 	mov    rax,QWORD PTR [rip+0xe2ac]        # 140010008 <vmcs>
   140001d5c:	48 8b 80 68 01 00 00 	mov    rax,QWORD PTR [rax+0x168]
   140001d63:	89 45 78             	mov    DWORD PTR [rbp+0x78],eax
   140001d66:	48 8b 05 9b e2 00 00 	mov    rax,QWORD PTR [rip+0xe29b]        # 140010008 <vmcs>
   140001d6d:	48 8b 80 70 01 00 00 	mov    rax,QWORD PTR [rax+0x170]
   140001d74:	89 45 74             	mov    DWORD PTR [rbp+0x74],eax
   140001d77:	48 8b 05 8a e2 00 00 	mov    rax,QWORD PTR [rip+0xe28a]        # 140010008 <vmcs>
   140001d7e:	48 8b 80 78 01 00 00 	mov    rax,QWORD PTR [rax+0x178]
   140001d85:	89 45 70             	mov    DWORD PTR [rbp+0x70],eax
   140001d88:	e8 6d a2 00 00       	call   14000bffa <save_vm_context>
   140001d8d:	48 8b 85 20 01 00 00 	mov    rax,QWORD PTR [rbp+0x120]
   140001d94:	4c 8b 48 10          	mov    r9,QWORD PTR [rax+0x10]
   140001d98:	8b 4d 70             	mov    ecx,DWORD PTR [rbp+0x70]
   140001d9b:	8b 55 74             	mov    edx,DWORD PTR [rbp+0x74]
   140001d9e:	8b 45 78             	mov    eax,DWORD PTR [rbp+0x78]
   140001da1:	41 89 c8             	mov    r8d,ecx
   140001da4:	89 c1                	mov    ecx,eax
   140001da6:	41 ff d1             	call   r9
   140001da9:	89 45 6c             	mov    DWORD PTR [rbp+0x6c],eax
   140001dac:	e8 9a a2 00 00       	call   14000c04b <restore_vm_context>
   140001db1:	48 8b 05 50 e2 00 00 	mov    rax,QWORD PTR [rip+0xe250]        # 140010008 <vmcs>
   140001db8:	8b 55 6c             	mov    edx,DWORD PTR [rbp+0x6c]
   140001dbb:	48 63 d2             	movsxd rdx,edx
   140001dbe:	48 89 90 68 01 00 00 	mov    QWORD PTR [rax+0x168],rdx
   140001dc5:	e9 6f 04 00 00       	jmp    140002239 <_ZN5rvm644rvni14vm_native_callEv+0x7ec>
   140001dca:	48 8b 05 37 e2 00 00 	mov    rax,QWORD PTR [rip+0xe237]        # 140010008 <vmcs>
   140001dd1:	48 8b 80 68 01 00 00 	mov    rax,QWORD PTR [rax+0x168]
   140001dd8:	48 89 85 88 00 00 00 	mov    QWORD PTR [rbp+0x88],rax
   140001ddf:	48 8b 05 22 e2 00 00 	mov    rax,QWORD PTR [rip+0xe222]        # 140010008 <vmcs>
   140001de6:	48 8b 80 70 01 00 00 	mov    rax,QWORD PTR [rax+0x170]
   140001ded:	48 89 85 80 00 00 00 	mov    QWORD PTR [rbp+0x80],rax
   140001df4:	e8 01 a2 00 00       	call   14000bffa <save_vm_context>
   140001df9:	48 8b 85 20 01 00 00 	mov    rax,QWORD PTR [rbp+0x120]
   140001e00:	4c 8b 40 10          	mov    r8,QWORD PTR [rax+0x10]
   140001e04:	48 8b 95 80 00 00 00 	mov    rdx,QWORD PTR [rbp+0x80]
   140001e0b:	48 8b 85 88 00 00 00 	mov    rax,QWORD PTR [rbp+0x88]
   140001e12:	48 89 c1             	mov    rcx,rax
   140001e15:	41 ff d0             	call   r8
   140001e18:	89 45 7c             	mov    DWORD PTR [rbp+0x7c],eax
   140001e1b:	e8 2b a2 00 00       	call   14000c04b <restore_vm_context>
   140001e20:	48 8b 05 e1 e1 00 00 	mov    rax,QWORD PTR [rip+0xe1e1]        # 140010008 <vmcs>
   140001e27:	8b 55 7c             	mov    edx,DWORD PTR [rbp+0x7c]
   140001e2a:	48 63 d2             	movsxd rdx,edx
   140001e2d:	48 89 90 68 01 00 00 	mov    QWORD PTR [rax+0x168],rdx
   140001e34:	e9 00 04 00 00       	jmp    140002239 <_ZN5rvm644rvni14vm_native_callEv+0x7ec>
   140001e39:	48 c7 85 98 00 00 00 	mov    QWORD PTR [rbp+0x98],0x0
   140001e40:	00 00 00 00 
   140001e44:	48 8b 05 bd e1 00 00 	mov    rax,QWORD PTR [rip+0xe1bd]        # 140010008 <vmcs>
   140001e4b:	48 8b 80 68 01 00 00 	mov    rax,QWORD PTR [rax+0x168]
   140001e52:	48 89 85 98 00 00 00 	mov    QWORD PTR [rbp+0x98],rax
   140001e59:	e8 9c a1 00 00       	call   14000bffa <save_vm_context>
   140001e5e:	48 8b 85 20 01 00 00 	mov    rax,QWORD PTR [rbp+0x120]
   140001e65:	48 8b 50 10          	mov    rdx,QWORD PTR [rax+0x10]
   140001e69:	48 8b 85 98 00 00 00 	mov    rax,QWORD PTR [rbp+0x98]
   140001e70:	48 89 c1             	mov    rcx,rax
   140001e73:	ff d2                	call   rdx
   140001e75:	48 89 85 90 00 00 00 	mov    QWORD PTR [rbp+0x90],rax
   140001e7c:	e8 ca a1 00 00       	call   14000c04b <restore_vm_context>
   140001e81:	48 8b 05 80 e1 00 00 	mov    rax,QWORD PTR [rip+0xe180]        # 140010008 <vmcs>
   140001e88:	48 8b 95 90 00 00 00 	mov    rdx,QWORD PTR [rbp+0x90]
   140001e8f:	48 89 90 68 01 00 00 	mov    QWORD PTR [rax+0x168],rdx
   140001e96:	e9 9e 03 00 00       	jmp    140002239 <_ZN5rvm644rvni14vm_native_callEv+0x7ec>
   140001e9b:	48 8b 05 66 e1 00 00 	mov    rax,QWORD PTR [rip+0xe166]        # 140010008 <vmcs>
   140001ea2:	48 8b 80 68 01 00 00 	mov    rax,QWORD PTR [rax+0x168]
   140001ea9:	48 89 85 a0 00 00 00 	mov    QWORD PTR [rbp+0xa0],rax
   140001eb0:	e8 45 a1 00 00       	call   14000bffa <save_vm_context>
   140001eb5:	48 8b 85 20 01 00 00 	mov    rax,QWORD PTR [rbp+0x120]
   140001ebc:	48 8b 50 10          	mov    rdx,QWORD PTR [rax+0x10]
   140001ec0:	48 8b 85 a0 00 00 00 	mov    rax,QWORD PTR [rbp+0xa0]
   140001ec7:	48 89 c1             	mov    rcx,rax
   140001eca:	ff d2                	call   rdx
   140001ecc:	e8 7a a1 00 00       	call   14000c04b <restore_vm_context>
   140001ed1:	e9 63 03 00 00       	jmp    140002239 <_ZN5rvm644rvni14vm_native_callEv+0x7ec>
   140001ed6:	48 c7 85 c0 00 00 00 	mov    QWORD PTR [rbp+0xc0],0x0
   140001edd:	00 00 00 00 
   140001ee1:	48 8b 05 20 e1 00 00 	mov    rax,QWORD PTR [rip+0xe120]        # 140010008 <vmcs>
   140001ee8:	48 8b 80 68 01 00 00 	mov    rax,QWORD PTR [rax+0x168]
   140001eef:	48 89 85 b8 00 00 00 	mov    QWORD PTR [rbp+0xb8],rax
   140001ef6:	48 8b 05 0b e1 00 00 	mov    rax,QWORD PTR [rip+0xe10b]        # 140010008 <vmcs>
   140001efd:	48 8b 80 70 01 00 00 	mov    rax,QWORD PTR [rax+0x170]
   140001f04:	48 89 85 b0 00 00 00 	mov    QWORD PTR [rbp+0xb0],rax
   140001f0b:	48 8b 05 f6 e0 00 00 	mov    rax,QWORD PTR [rip+0xe0f6]        # 140010008 <vmcs>
   140001f12:	48 8b 80 78 01 00 00 	mov    rax,QWORD PTR [rax+0x178]
   140001f19:	48 89 85 c0 00 00 00 	mov    QWORD PTR [rbp+0xc0],rax
   140001f20:	e8 d5 a0 00 00       	call   14000bffa <save_vm_context>
   140001f25:	48 8b 85 20 01 00 00 	mov    rax,QWORD PTR [rbp+0x120]
   140001f2c:	4c 8b 48 10          	mov    r9,QWORD PTR [rax+0x10]
   140001f30:	48 8b 8d c0 00 00 00 	mov    rcx,QWORD PTR [rbp+0xc0]
   140001f37:	48 8b 95 b0 00 00 00 	mov    rdx,QWORD PTR [rbp+0xb0]
   140001f3e:	48 8b 85 b8 00 00 00 	mov    rax,QWORD PTR [rbp+0xb8]
   140001f45:	49 89 c8             	mov    r8,rcx
   140001f48:	48 89 c1             	mov    rcx,rax
   140001f4b:	41 ff d1             	call   r9
   140001f4e:	48 89 85 a8 00 00 00 	mov    QWORD PTR [rbp+0xa8],rax
   140001f55:	e8 f1 a0 00 00       	call   14000c04b <restore_vm_context>
   140001f5a:	48 8b 05 a7 e0 00 00 	mov    rax,QWORD PTR [rip+0xe0a7]        # 140010008 <vmcs>
   140001f61:	48 8b 95 a8 00 00 00 	mov    rdx,QWORD PTR [rbp+0xa8]
   140001f68:	48 89 90 68 01 00 00 	mov    QWORD PTR [rax+0x168],rdx
   140001f6f:	e9 c5 02 00 00       	jmp    140002239 <_ZN5rvm644rvni14vm_native_callEv+0x7ec>
   140001f74:	c7 85 e4 00 00 00 00 	mov    DWORD PTR [rbp+0xe4],0x0
   140001f7b:	00 00 00 
   140001f7e:	48 c7 85 d8 00 00 00 	mov    QWORD PTR [rbp+0xd8],0x0
   140001f85:	00 00 00 00 
   140001f89:	48 8b 05 78 e0 00 00 	mov    rax,QWORD PTR [rip+0xe078]        # 140010008 <vmcs>
   140001f90:	48 8b 80 68 01 00 00 	mov    rax,QWORD PTR [rax+0x168]
   140001f97:	48 89 85 d0 00 00 00 	mov    QWORD PTR [rbp+0xd0],rax
   140001f9e:	48 8b 05 63 e0 00 00 	mov    rax,QWORD PTR [rip+0xe063]        # 140010008 <vmcs>
   140001fa5:	48 8b 80 70 01 00 00 	mov    rax,QWORD PTR [rax+0x170]
   140001fac:	89 85 e4 00 00 00    	mov    DWORD PTR [rbp+0xe4],eax
   140001fb2:	48 8b 05 4f e0 00 00 	mov    rax,QWORD PTR [rip+0xe04f]        # 140010008 <vmcs>
   140001fb9:	48 8b 80 78 01 00 00 	mov    rax,QWORD PTR [rax+0x178]
   140001fc0:	48 89 85 d8 00 00 00 	mov    QWORD PTR [rbp+0xd8],rax
   140001fc7:	e8 2e a0 00 00       	call   14000bffa <save_vm_context>
   140001fcc:	48 8b 85 20 01 00 00 	mov    rax,QWORD PTR [rbp+0x120]
   140001fd3:	4c 8b 48 10          	mov    r9,QWORD PTR [rax+0x10]
   140001fd7:	48 8b 8d d8 00 00 00 	mov    rcx,QWORD PTR [rbp+0xd8]
   140001fde:	8b 95 e4 00 00 00    	mov    edx,DWORD PTR [rbp+0xe4]
   140001fe4:	48 8b 85 d0 00 00 00 	mov    rax,QWORD PTR [rbp+0xd0]
   140001feb:	49 89 c8             	mov    r8,rcx
   140001fee:	48 89 c1             	mov    rcx,rax
   140001ff1:	41 ff d1             	call   r9
   140001ff4:	48 89 85 c8 00 00 00 	mov    QWORD PTR [rbp+0xc8],rax
   140001ffb:	e8 4b a0 00 00       	call   14000c04b <restore_vm_context>
   140002000:	48 8b 05 01 e0 00 00 	mov    rax,QWORD PTR [rip+0xe001]        # 140010008 <vmcs>
   140002007:	48 8b 95 c8 00 00 00 	mov    rdx,QWORD PTR [rbp+0xc8]
   14000200e:	48 89 90 68 01 00 00 	mov    QWORD PTR [rax+0x168],rdx
   140002015:	e9 1f 02 00 00       	jmp    140002239 <_ZN5rvm644rvni14vm_native_callEv+0x7ec>
   14000201a:	48 8b 05 e7 df 00 00 	mov    rax,QWORD PTR [rip+0xdfe7]        # 140010008 <vmcs>
   140002021:	48 8b 80 68 01 00 00 	mov    rax,QWORD PTR [rax+0x168]
   140002028:	48 89 85 f0 00 00 00 	mov    QWORD PTR [rbp+0xf0],rax
   14000202f:	e8 c6 9f 00 00       	call   14000bffa <save_vm_context>
   140002034:	48 8b 85 20 01 00 00 	mov    rax,QWORD PTR [rbp+0x120]
   14000203b:	48 8b 50 10          	mov    rdx,QWORD PTR [rax+0x10]
   14000203f:	48 8b 85 f0 00 00 00 	mov    rax,QWORD PTR [rbp+0xf0]
   140002046:	48 89 c1             	mov    rcx,rax
   140002049:	ff d2                	call   rdx
   14000204b:	48 89 85 e8 00 00 00 	mov    QWORD PTR [rbp+0xe8],rax
   140002052:	e8 f4 9f 00 00       	call   14000c04b <restore_vm_context>
   140002057:	48 8b 05 aa df 00 00 	mov    rax,QWORD PTR [rip+0xdfaa]        # 140010008 <vmcs>
   14000205e:	48 8b 95 e8 00 00 00 	mov    rdx,QWORD PTR [rbp+0xe8]
   140002065:	48 89 90 68 01 00 00 	mov    QWORD PTR [rax+0x168],rdx
   14000206c:	e9 c8 01 00 00       	jmp    140002239 <_ZN5rvm644rvni14vm_native_callEv+0x7ec>
   140002071:	48 8b 05 90 df 00 00 	mov    rax,QWORD PTR [rip+0xdf90]        # 140010008 <vmcs>
   140002078:	48 8b 80 68 01 00 00 	mov    rax,QWORD PTR [rax+0x168]
   14000207f:	48 89 85 08 01 00 00 	mov    QWORD PTR [rbp+0x108],rax
   140002086:	48 8b 05 7b df 00 00 	mov    rax,QWORD PTR [rip+0xdf7b]        # 140010008 <vmcs>
   14000208d:	48 8b 80 70 01 00 00 	mov    rax,QWORD PTR [rax+0x170]
   140002094:	48 89 85 00 01 00 00 	mov    QWORD PTR [rbp+0x100],rax
   14000209b:	e8 5a 9f 00 00       	call   14000bffa <save_vm_context>
   1400020a0:	48 8b 85 20 01 00 00 	mov    rax,QWORD PTR [rbp+0x120]
   1400020a7:	4c 8b 40 10          	mov    r8,QWORD PTR [rax+0x10]
   1400020ab:	48 8b 95 00 01 00 00 	mov    rdx,QWORD PTR [rbp+0x100]
   1400020b2:	48 8b 85 08 01 00 00 	mov    rax,QWORD PTR [rbp+0x108]
   1400020b9:	48 89 c1             	mov    rcx,rax
   1400020bc:	41 ff d0             	call   r8
   1400020bf:	48 89 85 f8 00 00 00 	mov    QWORD PTR [rbp+0xf8],rax
   1400020c6:	e8 80 9f 00 00       	call   14000c04b <restore_vm_context>
   1400020cb:	48 8b 05 36 df 00 00 	mov    rax,QWORD PTR [rip+0xdf36]        # 140010008 <vmcs>
   1400020d2:	48 8b 95 f8 00 00 00 	mov    rdx,QWORD PTR [rbp+0xf8]
   1400020d9:	48 89 90 68 01 00 00 	mov    QWORD PTR [rax+0x168],rdx
   1400020e0:	e9 54 01 00 00       	jmp    140002239 <_ZN5rvm644rvni14vm_native_callEv+0x7ec>
   1400020e5:	66 0f ef c0          	pxor   xmm0,xmm0
   1400020e9:	0f 11 45 c0          	movups XMMWORD PTR [rbp-0x40],xmm0
   1400020ed:	0f 11 45 d0          	movups XMMWORD PTR [rbp-0x30],xmm0
   1400020f1:	0f 11 45 e0          	movups XMMWORD PTR [rbp-0x20],xmm0
   1400020f5:	66 0f d6 45 f0       	movq   QWORD PTR [rbp-0x10],xmm0
   1400020fa:	48 8b 05 07 df 00 00 	mov    rax,QWORD PTR [rip+0xdf07]        # 140010008 <vmcs>
   140002101:	48 8b 80 68 01 00 00 	mov    rax,QWORD PTR [rax+0x168]
   140002108:	48 89 85 18 01 00 00 	mov    QWORD PTR [rbp+0x118],rax
   14000210f:	c7 85 2c 01 00 00 01 	mov    DWORD PTR [rbp+0x12c],0x1
   140002116:	00 00 00 
   140002119:	eb 35                	jmp    140002150 <_ZN5rvm644rvni14vm_native_callEv+0x703>
   14000211b:	48 8b 05 e6 de 00 00 	mov    rax,QWORD PTR [rip+0xdee6]        # 140010008 <vmcs>
   140002122:	8b 95 2c 01 00 00    	mov    edx,DWORD PTR [rbp+0x12c]
   140002128:	44 8d 42 0a          	lea    r8d,[rdx+0xa]
   14000212c:	8b 95 2c 01 00 00    	mov    edx,DWORD PTR [rbp+0x12c]
   140002132:	8d 4a ff             	lea    ecx,[rdx-0x1]
   140002135:	49 63 d0             	movsxd rdx,r8d
   140002138:	48 83 c2 22          	add    rdx,0x22
   14000213c:	48 8b 54 d0 08       	mov    rdx,QWORD PTR [rax+rdx*8+0x8]
   140002141:	48 63 c1             	movsxd rax,ecx
   140002144:	48 89 54 c5 c0       	mov    QWORD PTR [rbp+rax*8-0x40],rdx
   140002149:	83 85 2c 01 00 00 01 	add    DWORD PTR [rbp+0x12c],0x1
   140002150:	83 bd 2c 01 00 00 07 	cmp    DWORD PTR [rbp+0x12c],0x7
   140002157:	7e c2                	jle    14000211b <_ZN5rvm644rvni14vm_native_callEv+0x6ce>
   140002159:	e8 9c 9e 00 00       	call   14000bffa <save_vm_context>
   14000215e:	48 8b 85 20 01 00 00 	mov    rax,QWORD PTR [rbp+0x120]
   140002165:	4c 8b 50 10          	mov    r10,QWORD PTR [rax+0x10]
   140002169:	4c 8b 5d f0          	mov    r11,QWORD PTR [rbp-0x10]
   14000216d:	4c 8b 4d e8          	mov    r9,QWORD PTR [rbp-0x18]
   140002171:	4c 8b 45 e0          	mov    r8,QWORD PTR [rbp-0x20]
   140002175:	48 8b 4d d8          	mov    rcx,QWORD PTR [rbp-0x28]
   140002179:	48 8b 75 d0          	mov    rsi,QWORD PTR [rbp-0x30]
   14000217d:	48 8b 5d c8          	mov    rbx,QWORD PTR [rbp-0x38]
   140002181:	48 8b 55 c0          	mov    rdx,QWORD PTR [rbp-0x40]
   140002185:	48 8b 85 18 01 00 00 	mov    rax,QWORD PTR [rbp+0x118]
   14000218c:	4c 89 5c 24 38       	mov    QWORD PTR [rsp+0x38],r11
   140002191:	4c 89 4c 24 30       	mov    QWORD PTR [rsp+0x30],r9
   140002196:	4c 89 44 24 28       	mov    QWORD PTR [rsp+0x28],r8
   14000219b:	48 89 4c 24 20       	mov    QWORD PTR [rsp+0x20],rcx
   1400021a0:	49 89 f1             	mov    r9,rsi
   1400021a3:	49 89 d8             	mov    r8,rbx
   1400021a6:	48 89 c1             	mov    rcx,rax
   1400021a9:	41 ff d2             	call   r10
   1400021ac:	89 85 14 01 00 00    	mov    DWORD PTR [rbp+0x114],eax
   1400021b2:	e8 94 9e 00 00       	call   14000c04b <restore_vm_context>
   1400021b7:	48 8b 05 4a de 00 00 	mov    rax,QWORD PTR [rip+0xde4a]        # 140010008 <vmcs>
   1400021be:	8b 95 14 01 00 00    	mov    edx,DWORD PTR [rbp+0x114]
   1400021c4:	48 63 d2             	movsxd rdx,edx
   1400021c7:	48 89 90 68 01 00 00 	mov    QWORD PTR [rax+0x168],rdx
   1400021ce:	eb 69                	jmp    140002239 <_ZN5rvm644rvni14vm_native_callEv+0x7ec>
   1400021d0:	48 8b 15 31 de 00 00 	mov    rdx,QWORD PTR [rip+0xde31]        # 140010008 <vmcs>
   1400021d7:	48 8b 05 2a de 00 00 	mov    rax,QWORD PTR [rip+0xde2a]        # 140010008 <vmcs>
   1400021de:	48 8b 12             	mov    rdx,QWORD PTR [rdx]
   1400021e1:	48 89 90 90 03 80 00 	mov    QWORD PTR [rax+0x800390],rdx
   1400021e8:	48 8b 05 19 de 00 00 	mov    rax,QWORD PTR [rip+0xde19]        # 140010008 <vmcs>
   1400021ef:	48 c7 80 98 03 80 00 	mov    QWORD PTR [rax+0x800398],0xb02
   1400021f6:	02 0b 00 00 
   1400021fa:	48 8b 05 07 de 00 00 	mov    rax,QWORD PTR [rip+0xde07]        # 140010008 <vmcs>
   140002201:	48 c7 80 a0 03 80 00 	mov    QWORD PTR [rax+0x8003a0],0x0
   140002208:	00 00 00 00 
   14000220c:	48 8b 85 20 01 00 00 	mov    rax,QWORD PTR [rbp+0x120]
   140002213:	8b 50 08             	mov    edx,DWORD PTR [rax+0x8]
   140002216:	48 8b 05 eb dd 00 00 	mov    rax,QWORD PTR [rip+0xddeb]        # 140010008 <vmcs>
   14000221d:	89 d2                	mov    edx,edx
   14000221f:	48 89 90 a8 03 80 00 	mov    QWORD PTR [rax+0x8003a8],rdx
   140002226:	48 8b 05 db dd 00 00 	mov    rax,QWORD PTR [rip+0xdddb]        # 140010008 <vmcs>
   14000222d:	c7 80 b0 03 80 00 01 	mov    DWORD PTR [rax+0x8003b0],0x1
   140002234:	00 00 00 
   140002237:	cc                   	int3
   140002238:	90                   	nop
   140002239:	48 c7 45 10 00 00 00 	mov    QWORD PTR [rbp+0x10],0x0
   140002240:	00 
   140002241:	48 8b 05 c0 dd 00 00 	mov    rax,QWORD PTR [rip+0xddc0]        # 140010008 <vmcs>
   140002248:	48 8b 80 20 01 00 00 	mov    rax,QWORD PTR [rax+0x120]
   14000224f:	48 89 45 10          	mov    QWORD PTR [rbp+0x10],rax
   140002253:	48 8b 05 ae dd 00 00 	mov    rax,QWORD PTR [rip+0xddae]        # 140010008 <vmcs>
   14000225a:	48 8b 55 10          	mov    rdx,QWORD PTR [rbp+0x10]
   14000225e:	48 89 10             	mov    QWORD PTR [rax],rdx
   140002261:	90                   	nop
   140002262:	48 81 c4 b0 01 00 00 	add    rsp,0x1b0
   140002269:	5b                   	pop    rbx
   14000226a:	5e                   	pop    rsi
   14000226b:	5d                   	pop    rbp
   14000226c:	c3                   	ret

000000014000226d <_ZN5rvm643elf17patch_elf_importsEv>:
   14000226d:	55                   	push   rbp
   14000226e:	48 89 e5             	mov    rbp,rsp
   140002271:	48 81 ec f0 00 00 00 	sub    rsp,0xf0
   140002278:	48 8b 05 89 dd 00 00 	mov    rax,QWORD PTR [rip+0xdd89]        # 140010008 <vmcs>
   14000227f:	48 8b 80 48 03 80 00 	mov    rax,QWORD PTR [rax+0x800348]
   140002286:	48 89 45 a0          	mov    QWORD PTR [rbp-0x60],rax
   14000228a:	48 8b 45 a0          	mov    rax,QWORD PTR [rbp-0x60]
   14000228e:	48 89 45 98          	mov    QWORD PTR [rbp-0x68],rax
   140002292:	48 8b 45 98          	mov    rax,QWORD PTR [rbp-0x68]
   140002296:	0f b7 40 10          	movzx  eax,WORD PTR [rax+0x10]
   14000229a:	66 83 f8 02          	cmp    ax,0x2
   14000229e:	74 69                	je     140002309 <_ZN5rvm643elf17patch_elf_importsEv+0x9c>
   1400022a0:	48 8b 45 98          	mov    rax,QWORD PTR [rbp-0x68]
   1400022a4:	0f b7 40 10          	movzx  eax,WORD PTR [rax+0x10]
   1400022a8:	66 83 f8 03          	cmp    ax,0x3
   1400022ac:	74 5b                	je     140002309 <_ZN5rvm643elf17patch_elf_importsEv+0x9c>
   1400022ae:	48 8b 05 53 dd 00 00 	mov    rax,QWORD PTR [rip+0xdd53]        # 140010008 <vmcs>
   1400022b5:	48 c7 80 90 03 80 00 	mov    QWORD PTR [rax+0x800390],0x0
   1400022bc:	00 00 00 00 
   1400022c0:	48 8b 05 41 dd 00 00 	mov    rax,QWORD PTR [rip+0xdd41]        # 140010008 <vmcs>
   1400022c7:	48 c7 80 98 03 80 00 	mov    QWORD PTR [rax+0x800398],0xb027
   1400022ce:	27 b0 00 00 
   1400022d2:	48 8b 05 2f dd 00 00 	mov    rax,QWORD PTR [rip+0xdd2f]        # 140010008 <vmcs>
   1400022d9:	48 c7 80 a0 03 80 00 	mov    QWORD PTR [rax+0x8003a0],0x0
   1400022e0:	00 00 00 00 
   1400022e4:	48 8b 05 1d dd 00 00 	mov    rax,QWORD PTR [rip+0xdd1d]        # 140010008 <vmcs>
   1400022eb:	48 c7 80 a8 03 80 00 	mov    QWORD PTR [rax+0x8003a8],0x0
   1400022f2:	00 00 00 00 
   1400022f6:	48 8b 05 0b dd 00 00 	mov    rax,QWORD PTR [rip+0xdd0b]        # 140010008 <vmcs>
   1400022fd:	c7 80 b0 03 80 00 01 	mov    DWORD PTR [rax+0x8003b0],0x1
   140002304:	00 00 00 
   140002307:	cc                   	int3
   140002308:	90                   	nop
   140002309:	48 8b 45 98          	mov    rax,QWORD PTR [rbp-0x68]
   14000230d:	48 8b 50 20          	mov    rdx,QWORD PTR [rax+0x20]
   140002311:	48 8b 45 a0          	mov    rax,QWORD PTR [rbp-0x60]
   140002315:	48 01 d0             	add    rax,rdx
   140002318:	48 89 45 90          	mov    QWORD PTR [rbp-0x70],rax
   14000231c:	48 c7 45 f8 00 00 00 	mov    QWORD PTR [rbp-0x8],0x0
   140002323:	00 
   140002324:	48 c7 45 f0 00 00 00 	mov    QWORD PTR [rbp-0x10],0x0
   14000232b:	00 
   14000232c:	c7 45 ec 00 00 00 00 	mov    DWORD PTR [rbp-0x14],0x0
   140002333:	eb 77                	jmp    1400023ac <_ZN5rvm643elf17patch_elf_importsEv+0x13f>
   140002335:	8b 45 ec             	mov    eax,DWORD PTR [rbp-0x14]
   140002338:	48 63 d0             	movsxd rdx,eax
   14000233b:	48 89 d0             	mov    rax,rdx
   14000233e:	48 c1 e0 03          	shl    rax,0x3
   140002342:	48 29 d0             	sub    rax,rdx
   140002345:	48 c1 e0 03          	shl    rax,0x3
   140002349:	48 89 c2             	mov    rdx,rax
   14000234c:	48 8b 45 90          	mov    rax,QWORD PTR [rbp-0x70]
   140002350:	48 01 d0             	add    rax,rdx
   140002353:	8b 00                	mov    eax,DWORD PTR [rax]
   140002355:	83 f8 02             	cmp    eax,0x2
   140002358:	75 4e                	jne    1400023a8 <_ZN5rvm643elf17patch_elf_importsEv+0x13b>
   14000235a:	8b 45 ec             	mov    eax,DWORD PTR [rbp-0x14]
   14000235d:	48 63 d0             	movsxd rdx,eax
   140002360:	48 89 d0             	mov    rax,rdx
   140002363:	48 c1 e0 03          	shl    rax,0x3
   140002367:	48 29 d0             	sub    rax,rdx
   14000236a:	48 c1 e0 03          	shl    rax,0x3
   14000236e:	48 89 c2             	mov    rdx,rax
   140002371:	48 8b 45 90          	mov    rax,QWORD PTR [rbp-0x70]
   140002375:	48 01 d0             	add    rax,rdx
   140002378:	48 8b 40 10          	mov    rax,QWORD PTR [rax+0x10]
   14000237c:	48 89 45 f8          	mov    QWORD PTR [rbp-0x8],rax
   140002380:	8b 45 ec             	mov    eax,DWORD PTR [rbp-0x14]
   140002383:	48 63 d0             	movsxd rdx,eax
   140002386:	48 89 d0             	mov    rax,rdx
   140002389:	48 c1 e0 03          	shl    rax,0x3
   14000238d:	48 29 d0             	sub    rax,rdx
   140002390:	48 c1 e0 03          	shl    rax,0x3
   140002394:	48 89 c2             	mov    rdx,rax
   140002397:	48 8b 45 90          	mov    rax,QWORD PTR [rbp-0x70]
   14000239b:	48 01 d0             	add    rax,rdx
   14000239e:	48 8b 40 28          	mov    rax,QWORD PTR [rax+0x28]
   1400023a2:	48 89 45 f0          	mov    QWORD PTR [rbp-0x10],rax
   1400023a6:	eb 18                	jmp    1400023c0 <_ZN5rvm643elf17patch_elf_importsEv+0x153>
   1400023a8:	83 45 ec 01          	add    DWORD PTR [rbp-0x14],0x1
   1400023ac:	48 8b 45 98          	mov    rax,QWORD PTR [rbp-0x68]
   1400023b0:	0f b7 40 38          	movzx  eax,WORD PTR [rax+0x38]
   1400023b4:	0f b7 c0             	movzx  eax,ax
   1400023b7:	39 45 ec             	cmp    DWORD PTR [rbp-0x14],eax
   1400023ba:	0f 8c 75 ff ff ff    	jl     140002335 <_ZN5rvm643elf17patch_elf_importsEv+0xc8>
   1400023c0:	48 83 7d f8 00       	cmp    QWORD PTR [rbp-0x8],0x0
   1400023c5:	74 07                	je     1400023ce <_ZN5rvm643elf17patch_elf_importsEv+0x161>
   1400023c7:	48 83 7d f0 00       	cmp    QWORD PTR [rbp-0x10],0x0
   1400023cc:	75 5b                	jne    140002429 <_ZN5rvm643elf17patch_elf_importsEv+0x1bc>
   1400023ce:	48 8b 05 33 dc 00 00 	mov    rax,QWORD PTR [rip+0xdc33]        # 140010008 <vmcs>
   1400023d5:	48 c7 80 90 03 80 00 	mov    QWORD PTR [rax+0x800390],0x0
   1400023dc:	00 00 00 00 
   1400023e0:	48 8b 05 21 dc 00 00 	mov    rax,QWORD PTR [rip+0xdc21]        # 140010008 <vmcs>
   1400023e7:	48 c7 80 98 03 80 00 	mov    QWORD PTR [rax+0x800398],0xb026
   1400023ee:	26 b0 00 00 
   1400023f2:	48 8b 05 0f dc 00 00 	mov    rax,QWORD PTR [rip+0xdc0f]        # 140010008 <vmcs>
   1400023f9:	48 c7 80 a0 03 80 00 	mov    QWORD PTR [rax+0x8003a0],0x0
   140002400:	00 00 00 00 
   140002404:	48 8b 05 fd db 00 00 	mov    rax,QWORD PTR [rip+0xdbfd]        # 140010008 <vmcs>
   14000240b:	48 c7 80 a8 03 80 00 	mov    QWORD PTR [rax+0x8003a8],0x0
   140002412:	00 00 00 00 
   140002416:	48 8b 05 eb db 00 00 	mov    rax,QWORD PTR [rip+0xdbeb]        # 140010008 <vmcs>
   14000241d:	c7 80 b0 03 80 00 01 	mov    DWORD PTR [rax+0x8003b0],0x1
   140002424:	00 00 00 
   140002427:	cc                   	int3
   140002428:	90                   	nop
   140002429:	48 8b 55 f8          	mov    rdx,QWORD PTR [rbp-0x8]
   14000242d:	48 8b 45 a0          	mov    rax,QWORD PTR [rbp-0x60]
   140002431:	48 01 d0             	add    rax,rdx
   140002434:	48 89 45 88          	mov    QWORD PTR [rbp-0x78],rax
   140002438:	48 c7 45 e0 00 00 00 	mov    QWORD PTR [rbp-0x20],0x0
   14000243f:	00 
   140002440:	48 c7 45 d8 00 00 00 	mov    QWORD PTR [rbp-0x28],0x0
   140002447:	00 
   140002448:	48 c7 45 d0 00 00 00 	mov    QWORD PTR [rbp-0x30],0x0
   14000244f:	00 
   140002450:	48 c7 45 c8 00 00 00 	mov    QWORD PTR [rbp-0x38],0x0
   140002457:	00 
   140002458:	48 8b 45 88          	mov    rax,QWORD PTR [rbp-0x78]
   14000245c:	48 89 45 c0          	mov    QWORD PTR [rbp-0x40],rax
   140002460:	e9 49 01 00 00       	jmp    1400025ae <_ZN5rvm643elf17patch_elf_importsEv+0x341>
   140002465:	48 8b 45 c0          	mov    rax,QWORD PTR [rbp-0x40]
   140002469:	48 8b 00             	mov    rax,QWORD PTR [rax]
   14000246c:	48 83 f8 17          	cmp    rax,0x17
   140002470:	0f 87 d3 00 00 00    	ja     140002549 <_ZN5rvm643elf17patch_elf_importsEv+0x2dc>
   140002476:	48 8d 14 85 00 00 00 	lea    rdx,[rax*4+0x0]
   14000247d:	00 
   14000247e:	48 8d 05 7f ec 00 00 	lea    rax,[rip+0xec7f]        # 140011104 <_ZL8memcheck+0xfc>
   140002485:	8b 04 02             	mov    eax,DWORD PTR [rdx+rax*1]
   140002488:	48 98                	cdqe
   14000248a:	48 8d 15 73 ec 00 00 	lea    rdx,[rip+0xec73]        # 140011104 <_ZL8memcheck+0xfc>
   140002491:	48 01 d0             	add    rax,rdx
   140002494:	ff e0                	jmp    rax
   140002496:	48 8b 45 c0          	mov    rax,QWORD PTR [rbp-0x40]
   14000249a:	48 8b 40 08          	mov    rax,QWORD PTR [rax+0x8]
   14000249e:	48 89 45 e0          	mov    QWORD PTR [rbp-0x20],rax
   1400024a2:	e9 02 01 00 00       	jmp    1400025a9 <_ZN5rvm643elf17patch_elf_importsEv+0x33c>
   1400024a7:	48 8b 45 c0          	mov    rax,QWORD PTR [rbp-0x40]
   1400024ab:	48 8b 40 08          	mov    rax,QWORD PTR [rax+0x8]
   1400024af:	48 89 45 d8          	mov    QWORD PTR [rbp-0x28],rax
   1400024b3:	e9 f1 00 00 00       	jmp    1400025a9 <_ZN5rvm643elf17patch_elf_importsEv+0x33c>
   1400024b8:	48 8b 45 c0          	mov    rax,QWORD PTR [rbp-0x40]
   1400024bc:	48 8b 40 08          	mov    rax,QWORD PTR [rax+0x8]
   1400024c0:	48 89 45 d0          	mov    QWORD PTR [rbp-0x30],rax
   1400024c4:	e9 e0 00 00 00       	jmp    1400025a9 <_ZN5rvm643elf17patch_elf_importsEv+0x33c>
   1400024c9:	48 8b 45 c0          	mov    rax,QWORD PTR [rbp-0x40]
   1400024cd:	48 8b 40 08          	mov    rax,QWORD PTR [rax+0x8]
   1400024d1:	48 89 45 c8          	mov    QWORD PTR [rbp-0x38],rax
   1400024d5:	e9 cf 00 00 00       	jmp    1400025a9 <_ZN5rvm643elf17patch_elf_importsEv+0x33c>
   1400024da:	48 8b 45 c0          	mov    rax,QWORD PTR [rbp-0x40]
   1400024de:	48 8b 40 08          	mov    rax,QWORD PTR [rax+0x8]
   1400024e2:	48 83 f8 07          	cmp    rax,0x7
   1400024e6:	0f 84 bc 00 00 00    	je     1400025a8 <_ZN5rvm643elf17patch_elf_importsEv+0x33b>
   1400024ec:	48 8b 05 15 db 00 00 	mov    rax,QWORD PTR [rip+0xdb15]        # 140010008 <vmcs>
   1400024f3:	48 c7 80 90 03 80 00 	mov    QWORD PTR [rax+0x800390],0x0
   1400024fa:	00 00 00 00 
   1400024fe:	48 8b 05 03 db 00 00 	mov    rax,QWORD PTR [rip+0xdb03]        # 140010008 <vmcs>
   140002505:	48 c7 80 98 03 80 00 	mov    QWORD PTR [rax+0x800398],0xb026
   14000250c:	26 b0 00 00 
   140002510:	48 8b 05 f1 da 00 00 	mov    rax,QWORD PTR [rip+0xdaf1]        # 140010008 <vmcs>
   140002517:	48 c7 80 a0 03 80 00 	mov    QWORD PTR [rax+0x8003a0],0x0
   14000251e:	00 00 00 00 
   140002522:	48 8b 05 df da 00 00 	mov    rax,QWORD PTR [rip+0xdadf]        # 140010008 <vmcs>
   140002529:	48 c7 80 a8 03 80 00 	mov    QWORD PTR [rax+0x8003a8],0x0
   140002530:	00 00 00 00 
   140002534:	48 8b 05 cd da 00 00 	mov    rax,QWORD PTR [rip+0xdacd]        # 140010008 <vmcs>
   14000253b:	c7 80 b0 03 80 00 01 	mov    DWORD PTR [rax+0x8003b0],0x1
   140002542:	00 00 00 
   140002545:	cc                   	int3
   140002546:	90                   	nop
   140002547:	eb 5f                	jmp    1400025a8 <_ZN5rvm643elf17patch_elf_importsEv+0x33b>
   140002549:	48 8b 05 b8 da 00 00 	mov    rax,QWORD PTR [rip+0xdab8]        # 140010008 <vmcs>
   140002550:	48 c7 80 90 03 80 00 	mov    QWORD PTR [rax+0x800390],0x0
   140002557:	00 00 00 00 
   14000255b:	48 8b 05 a6 da 00 00 	mov    rax,QWORD PTR [rip+0xdaa6]        # 140010008 <vmcs>
   140002562:	48 c7 80 98 03 80 00 	mov    QWORD PTR [rax+0x800398],0xb025
   140002569:	25 b0 00 00 
   14000256d:	48 8b 05 94 da 00 00 	mov    rax,QWORD PTR [rip+0xda94]        # 140010008 <vmcs>
   140002574:	48 c7 80 a0 03 80 00 	mov    QWORD PTR [rax+0x8003a0],0x0
   14000257b:	00 00 00 00 
   14000257f:	48 8b 45 c0          	mov    rax,QWORD PTR [rbp-0x40]
   140002583:	48 8b 10             	mov    rdx,QWORD PTR [rax]
   140002586:	48 8b 05 7b da 00 00 	mov    rax,QWORD PTR [rip+0xda7b]        # 140010008 <vmcs>
   14000258d:	48 89 90 a8 03 80 00 	mov    QWORD PTR [rax+0x8003a8],rdx
   140002594:	48 8b 05 6d da 00 00 	mov    rax,QWORD PTR [rip+0xda6d]        # 140010008 <vmcs>
   14000259b:	c7 80 b0 03 80 00 01 	mov    DWORD PTR [rax+0x8003b0],0x1
   1400025a2:	00 00 00 
   1400025a5:	cc                   	int3
   1400025a6:	eb 01                	jmp    1400025a9 <_ZN5rvm643elf17patch_elf_importsEv+0x33c>
   1400025a8:	90                   	nop
   1400025a9:	48 83 45 c0 10       	add    QWORD PTR [rbp-0x40],0x10
   1400025ae:	48 8b 45 c0          	mov    rax,QWORD PTR [rbp-0x40]
   1400025b2:	48 8b 00             	mov    rax,QWORD PTR [rax]
   1400025b5:	48 85 c0             	test   rax,rax
   1400025b8:	0f 85 a7 fe ff ff    	jne    140002465 <_ZN5rvm643elf17patch_elf_importsEv+0x1f8>
   1400025be:	48 83 7d e0 00       	cmp    QWORD PTR [rbp-0x20],0x0
   1400025c3:	74 15                	je     1400025da <_ZN5rvm643elf17patch_elf_importsEv+0x36d>
   1400025c5:	48 83 7d d8 00       	cmp    QWORD PTR [rbp-0x28],0x0
   1400025ca:	74 0e                	je     1400025da <_ZN5rvm643elf17patch_elf_importsEv+0x36d>
   1400025cc:	48 83 7d d0 00       	cmp    QWORD PTR [rbp-0x30],0x0
   1400025d1:	74 07                	je     1400025da <_ZN5rvm643elf17patch_elf_importsEv+0x36d>
   1400025d3:	48 83 7d c8 00       	cmp    QWORD PTR [rbp-0x38],0x0
   1400025d8:	75 5b                	jne    140002635 <_ZN5rvm643elf17patch_elf_importsEv+0x3c8>
   1400025da:	48 8b 05 27 da 00 00 	mov    rax,QWORD PTR [rip+0xda27]        # 140010008 <vmcs>
   1400025e1:	48 c7 80 90 03 80 00 	mov    QWORD PTR [rax+0x800390],0x0
   1400025e8:	00 00 00 00 
   1400025ec:	48 8b 05 15 da 00 00 	mov    rax,QWORD PTR [rip+0xda15]        # 140010008 <vmcs>
   1400025f3:	48 c7 80 98 03 80 00 	mov    QWORD PTR [rax+0x800398],0xb026
   1400025fa:	26 b0 00 00 
   1400025fe:	48 8b 05 03 da 00 00 	mov    rax,QWORD PTR [rip+0xda03]        # 140010008 <vmcs>
   140002605:	48 c7 80 a0 03 80 00 	mov    QWORD PTR [rax+0x8003a0],0x0
   14000260c:	00 00 00 00 
   140002610:	48 8b 05 f1 d9 00 00 	mov    rax,QWORD PTR [rip+0xd9f1]        # 140010008 <vmcs>
   140002617:	48 c7 80 a8 03 80 00 	mov    QWORD PTR [rax+0x8003a8],0x0
   14000261e:	00 00 00 00 
   140002622:	48 8b 05 df d9 00 00 	mov    rax,QWORD PTR [rip+0xd9df]        # 140010008 <vmcs>
   140002629:	c7 80 b0 03 80 00 01 	mov    DWORD PTR [rax+0x8003b0],0x1
   140002630:	00 00 00 
   140002633:	cc                   	int3
   140002634:	90                   	nop
   140002635:	48 8b 55 d0          	mov    rdx,QWORD PTR [rbp-0x30]
   140002639:	48 8b 45 a0          	mov    rax,QWORD PTR [rbp-0x60]
   14000263d:	48 01 d0             	add    rax,rdx
   140002640:	48 89 45 80          	mov    QWORD PTR [rbp-0x80],rax
   140002644:	48 8b 55 e0          	mov    rdx,QWORD PTR [rbp-0x20]
   140002648:	48 8b 45 a0          	mov    rax,QWORD PTR [rbp-0x60]
   14000264c:	48 01 d0             	add    rax,rdx
   14000264f:	48 89 85 78 ff ff ff 	mov    QWORD PTR [rbp-0x88],rax
   140002656:	48 8b 55 d8          	mov    rdx,QWORD PTR [rbp-0x28]
   14000265a:	48 8b 45 a0          	mov    rax,QWORD PTR [rbp-0x60]
   14000265e:	48 01 d0             	add    rax,rdx
   140002661:	48 89 45 b8          	mov    QWORD PTR [rbp-0x48],rax
   140002665:	48 8b 45 c8          	mov    rax,QWORD PTR [rbp-0x38]
   140002669:	48 c1 e8 04          	shr    rax,0x4
   14000266d:	48 89 85 70 ff ff ff 	mov    QWORD PTR [rbp-0x90],rax
   140002674:	48 c7 45 b0 00 00 00 	mov    QWORD PTR [rbp-0x50],0x0
   14000267b:	00 
   14000267c:	e9 3e 01 00 00       	jmp    1400027bf <_ZN5rvm643elf17patch_elf_importsEv+0x552>
   140002681:	48 8b 45 b0          	mov    rax,QWORD PTR [rbp-0x50]
   140002685:	48 c1 e0 04          	shl    rax,0x4
   140002689:	48 89 c2             	mov    rdx,rax
   14000268c:	48 8b 45 80          	mov    rax,QWORD PTR [rbp-0x80]
   140002690:	48 01 d0             	add    rax,rdx
   140002693:	48 8b 40 08          	mov    rax,QWORD PTR [rax+0x8]
   140002697:	48 c1 e8 20          	shr    rax,0x20
   14000269b:	89 85 54 ff ff ff    	mov    DWORD PTR [rbp-0xac],eax
   1400026a1:	48 8b 45 b0          	mov    rax,QWORD PTR [rbp-0x50]
   1400026a5:	48 c1 e0 04          	shl    rax,0x4
   1400026a9:	48 89 c2             	mov    rdx,rax
   1400026ac:	48 8b 45 80          	mov    rax,QWORD PTR [rbp-0x80]
   1400026b0:	48 01 d0             	add    rax,rdx
   1400026b3:	48 8b 40 08          	mov    rax,QWORD PTR [rax+0x8]
   1400026b7:	89 85 50 ff ff ff    	mov    DWORD PTR [rbp-0xb0],eax
   1400026bd:	48 8b 45 b0          	mov    rax,QWORD PTR [rbp-0x50]
   1400026c1:	48 c1 e0 04          	shl    rax,0x4
   1400026c5:	48 89 c2             	mov    rdx,rax
   1400026c8:	48 8b 45 80          	mov    rax,QWORD PTR [rbp-0x80]
   1400026cc:	48 01 d0             	add    rax,rdx
   1400026cf:	48 8b 10             	mov    rdx,QWORD PTR [rax]
   1400026d2:	48 8b 45 a0          	mov    rax,QWORD PTR [rbp-0x60]
   1400026d6:	48 01 d0             	add    rax,rdx
   1400026d9:	48 89 85 48 ff ff ff 	mov    QWORD PTR [rbp-0xb8],rax
   1400026e0:	8b 95 54 ff ff ff    	mov    edx,DWORD PTR [rbp-0xac]
   1400026e6:	48 89 d0             	mov    rax,rdx
   1400026e9:	48 01 c0             	add    rax,rax
   1400026ec:	48 01 d0             	add    rax,rdx
   1400026ef:	48 c1 e0 03          	shl    rax,0x3
   1400026f3:	48 89 c2             	mov    rdx,rax
   1400026f6:	48 8b 85 78 ff ff ff 	mov    rax,QWORD PTR [rbp-0x88]
   1400026fd:	48 01 d0             	add    rax,rdx
   140002700:	8b 00                	mov    eax,DWORD PTR [rax]
   140002702:	89 c2                	mov    edx,eax
   140002704:	48 8b 45 b8          	mov    rax,QWORD PTR [rbp-0x48]
   140002708:	48 01 d0             	add    rax,rdx
   14000270b:	48 89 85 40 ff ff ff 	mov    QWORD PTR [rbp-0xc0],rax
   140002712:	83 bd 50 ff ff ff 05 	cmp    DWORD PTR [rbp-0xb0],0x5
   140002719:	74 0d                	je     140002728 <_ZN5rvm643elf17patch_elf_importsEv+0x4bb>
   14000271b:	83 bd 50 ff ff ff 13 	cmp    DWORD PTR [rbp-0xb0],0x13
   140002722:	0f 85 91 00 00 00    	jne    1400027b9 <_ZN5rvm643elf17patch_elf_importsEv+0x54c>
   140002728:	48 8b 85 40 ff ff ff 	mov    rax,QWORD PTR [rbp-0xc0]
   14000272f:	48 89 c1             	mov    rcx,rax
   140002732:	e8 62 ed ff ff       	call   140001499 <_ZN5rvm644rvni22windows_thunk_resolverEPKc>
   140002737:	48 89 85 38 ff ff ff 	mov    QWORD PTR [rbp-0xc8],rax
   14000273e:	48 83 bd 38 ff ff ff 	cmp    QWORD PTR [rbp-0xc8],0x0
   140002745:	00 
   140002746:	75 5e                	jne    1400027a6 <_ZN5rvm643elf17patch_elf_importsEv+0x539>
   140002748:	48 8b 05 b9 d8 00 00 	mov    rax,QWORD PTR [rip+0xd8b9]        # 140010008 <vmcs>
   14000274f:	48 c7 80 90 03 80 00 	mov    QWORD PTR [rax+0x800390],0x0
   140002756:	00 00 00 00 
   14000275a:	48 8b 05 a7 d8 00 00 	mov    rax,QWORD PTR [rip+0xd8a7]        # 140010008 <vmcs>
   140002761:	48 c7 80 98 03 80 00 	mov    QWORD PTR [rax+0x800398],0xb025
   140002768:	25 b0 00 00 
   14000276c:	48 8b 05 95 d8 00 00 	mov    rax,QWORD PTR [rip+0xd895]        # 140010008 <vmcs>
   140002773:	48 c7 80 a0 03 80 00 	mov    QWORD PTR [rax+0x8003a0],0x0
   14000277a:	00 00 00 00 
   14000277e:	48 8b 05 83 d8 00 00 	mov    rax,QWORD PTR [rip+0xd883]        # 140010008 <vmcs>
   140002785:	48 8b 95 40 ff ff ff 	mov    rdx,QWORD PTR [rbp-0xc0]
   14000278c:	48 89 90 a8 03 80 00 	mov    QWORD PTR [rax+0x8003a8],rdx
   140002793:	48 8b 05 6e d8 00 00 	mov    rax,QWORD PTR [rip+0xd86e]        # 140010008 <vmcs>
   14000279a:	c7 80 b0 03 80 00 01 	mov    DWORD PTR [rax+0x8003b0],0x1
   1400027a1:	00 00 00 
   1400027a4:	cc                   	int3
   1400027a5:	90                   	nop
   1400027a6:	48 8b 95 38 ff ff ff 	mov    rdx,QWORD PTR [rbp-0xc8]
   1400027ad:	48 8b 85 48 ff ff ff 	mov    rax,QWORD PTR [rbp-0xb8]
   1400027b4:	48 89 10             	mov    QWORD PTR [rax],rdx
   1400027b7:	eb 01                	jmp    1400027ba <_ZN5rvm643elf17patch_elf_importsEv+0x54d>
   1400027b9:	90                   	nop
   1400027ba:	48 83 45 b0 01       	add    QWORD PTR [rbp-0x50],0x1
   1400027bf:	48 8b 45 b0          	mov    rax,QWORD PTR [rbp-0x50]
   1400027c3:	48 3b 85 70 ff ff ff 	cmp    rax,QWORD PTR [rbp-0x90]
   1400027ca:	0f 82 b1 fe ff ff    	jb     140002681 <_ZN5rvm643elf17patch_elf_importsEv+0x414>
   1400027d0:	48 8b 45 98          	mov    rax,QWORD PTR [rbp-0x68]
   1400027d4:	48 8b 50 28          	mov    rdx,QWORD PTR [rax+0x28]
   1400027d8:	48 8b 45 a0          	mov    rax,QWORD PTR [rbp-0x60]
   1400027dc:	48 01 d0             	add    rax,rdx
   1400027df:	48 89 85 68 ff ff ff 	mov    QWORD PTR [rbp-0x98],rax
   1400027e6:	48 8b 45 98          	mov    rax,QWORD PTR [rbp-0x68]
   1400027ea:	0f b7 40 3e          	movzx  eax,WORD PTR [rax+0x3e]
   1400027ee:	66 85 c0             	test   ax,ax
   1400027f1:	74 39                	je     14000282c <_ZN5rvm643elf17patch_elf_importsEv+0x5bf>
   1400027f3:	48 8b 45 98          	mov    rax,QWORD PTR [rbp-0x68]
   1400027f7:	0f b7 40 3e          	movzx  eax,WORD PTR [rax+0x3e]
   1400027fb:	0f b7 c0             	movzx  eax,ax
   1400027fe:	48 c1 e0 06          	shl    rax,0x6
   140002802:	48 89 c2             	mov    rdx,rax
   140002805:	48 8b 85 68 ff ff ff 	mov    rax,QWORD PTR [rbp-0x98]
   14000280c:	48 01 d0             	add    rax,rdx
   14000280f:	48 89 85 60 ff ff ff 	mov    QWORD PTR [rbp-0xa0],rax
   140002816:	48 8b 85 60 ff ff ff 	mov    rax,QWORD PTR [rbp-0xa0]
   14000281d:	48 8b 50 18          	mov    rdx,QWORD PTR [rax+0x18]
   140002821:	48 8b 45 a0          	mov    rax,QWORD PTR [rbp-0x60]
   140002825:	48 01 d0             	add    rax,rdx
   140002828:	48 89 45 b8          	mov    QWORD PTR [rbp-0x48],rax
   14000282c:	c7 45 ac 00 00 00 00 	mov    DWORD PTR [rbp-0x54],0x0
   140002833:	e9 97 00 00 00       	jmp    1400028cf <_ZN5rvm643elf17patch_elf_importsEv+0x662>
   140002838:	8b 45 ac             	mov    eax,DWORD PTR [rbp-0x54]
   14000283b:	48 98                	cdqe
   14000283d:	48 c1 e0 06          	shl    rax,0x6
   140002841:	48 89 c2             	mov    rdx,rax
   140002844:	48 8b 85 68 ff ff ff 	mov    rax,QWORD PTR [rbp-0x98]
   14000284b:	48 01 d0             	add    rax,rdx
   14000284e:	48 89 85 58 ff ff ff 	mov    QWORD PTR [rbp-0xa8],rax
   140002855:	48 8b 85 58 ff ff ff 	mov    rax,QWORD PTR [rbp-0xa8]
   14000285c:	8b 40 04             	mov    eax,DWORD PTR [rax+0x4]
   14000285f:	83 f8 01             	cmp    eax,0x1
   140002862:	75 67                	jne    1400028cb <_ZN5rvm643elf17patch_elf_importsEv+0x65e>
   140002864:	48 8b 85 58 ff ff ff 	mov    rax,QWORD PTR [rbp-0xa8]
   14000286b:	8b 00                	mov    eax,DWORD PTR [rax]
   14000286d:	89 c2                	mov    edx,eax
   14000286f:	48 8b 45 b8          	mov    rax,QWORD PTR [rbp-0x48]
   140002873:	48 01 d0             	add    rax,rdx
   140002876:	48 8d 15 7f e8 00 00 	lea    rdx,[rip+0xe87f]        # 1400110fc <_ZL8memcheck+0xf4>
   14000287d:	48 89 c1             	mov    rcx,rax
   140002880:	e8 a3 aa 00 00       	call   14000d328 <strcmp>
   140002885:	85 c0                	test   eax,eax
   140002887:	75 42                	jne    1400028cb <_ZN5rvm643elf17patch_elf_importsEv+0x65e>
   140002889:	48 8b 05 78 d7 00 00 	mov    rax,QWORD PTR [rip+0xd778]        # 140010008 <vmcs>
   140002890:	48 8b 95 58 ff ff ff 	mov    rdx,QWORD PTR [rbp-0xa8]
   140002897:	48 8b 52 10          	mov    rdx,QWORD PTR [rdx+0x10]
   14000289b:	48 89 90 68 03 80 00 	mov    QWORD PTR [rax+0x800368],rdx
   1400028a2:	48 8b 85 58 ff ff ff 	mov    rax,QWORD PTR [rbp-0xa8]
   1400028a9:	48 8b 48 10          	mov    rcx,QWORD PTR [rax+0x10]
   1400028ad:	48 8b 85 58 ff ff ff 	mov    rax,QWORD PTR [rbp-0xa8]
   1400028b4:	48 8b 50 20          	mov    rdx,QWORD PTR [rax+0x20]
   1400028b8:	48 8b 05 49 d7 00 00 	mov    rax,QWORD PTR [rip+0xd749]        # 140010008 <vmcs>
   1400028bf:	48 01 ca             	add    rdx,rcx
   1400028c2:	48 89 90 70 03 80 00 	mov    QWORD PTR [rax+0x800370],rdx
   1400028c9:	eb 19                	jmp    1400028e4 <_ZN5rvm643elf17patch_elf_importsEv+0x677>
   1400028cb:	83 45 ac 01          	add    DWORD PTR [rbp-0x54],0x1
   1400028cf:	48 8b 45 98          	mov    rax,QWORD PTR [rbp-0x68]
   1400028d3:	0f b7 40 3c          	movzx  eax,WORD PTR [rax+0x3c]
   1400028d7:	0f b7 c0             	movzx  eax,ax
   1400028da:	39 45 ac             	cmp    DWORD PTR [rbp-0x54],eax
   1400028dd:	0f 8c 55 ff ff ff    	jl     140002838 <_ZN5rvm643elf17patch_elf_importsEv+0x5cb>
   1400028e3:	90                   	nop
   1400028e4:	90                   	nop
   1400028e5:	48 81 c4 f0 00 00 00 	add    rsp,0xf0
   1400028ec:	5d                   	pop    rbp
   1400028ed:	c3                   	ret

00000001400028ee <_ZN5rvm643elf14load_elf_imageEPvy>:
   1400028ee:	55                   	push   rbp
   1400028ef:	48 89 e5             	mov    rbp,rsp
   1400028f2:	48 83 ec 60          	sub    rsp,0x60
   1400028f6:	48 89 4d 10          	mov    QWORD PTR [rbp+0x10],rcx
   1400028fa:	48 89 55 18          	mov    QWORD PTR [rbp+0x18],rdx
   1400028fe:	48 8b 45 10          	mov    rax,QWORD PTR [rbp+0x10]
   140002902:	48 89 45 e0          	mov    QWORD PTR [rbp-0x20],rax
   140002906:	48 8b 45 e0          	mov    rax,QWORD PTR [rbp-0x20]
   14000290a:	0f b6 00             	movzx  eax,BYTE PTR [rax]
   14000290d:	3c 7f                	cmp    al,0x7f
   14000290f:	75 24                	jne    140002935 <_ZN5rvm643elf14load_elf_imageEPvy+0x47>
   140002911:	48 8b 45 e0          	mov    rax,QWORD PTR [rbp-0x20]
   140002915:	0f b6 40 01          	movzx  eax,BYTE PTR [rax+0x1]
   140002919:	3c 45                	cmp    al,0x45
   14000291b:	75 18                	jne    140002935 <_ZN5rvm643elf14load_elf_imageEPvy+0x47>
   14000291d:	48 8b 45 e0          	mov    rax,QWORD PTR [rbp-0x20]
   140002921:	0f b6 40 02          	movzx  eax,BYTE PTR [rax+0x2]
   140002925:	3c 4c                	cmp    al,0x4c
   140002927:	75 0c                	jne    140002935 <_ZN5rvm643elf14load_elf_imageEPvy+0x47>
   140002929:	48 8b 45 e0          	mov    rax,QWORD PTR [rbp-0x20]
   14000292d:	0f b6 40 03          	movzx  eax,BYTE PTR [rax+0x3]
   140002931:	3c 46                	cmp    al,0x46
   140002933:	74 5b                	je     140002990 <_ZN5rvm643elf14load_elf_imageEPvy+0xa2>
   140002935:	48 8b 05 cc d6 00 00 	mov    rax,QWORD PTR [rip+0xd6cc]        # 140010008 <vmcs>
   14000293c:	48 c7 80 90 03 80 00 	mov    QWORD PTR [rax+0x800390],0x0
   140002943:	00 00 00 00 
   140002947:	48 8b 05 ba d6 00 00 	mov    rax,QWORD PTR [rip+0xd6ba]        # 140010008 <vmcs>
   14000294e:	48 c7 80 98 03 80 00 	mov    QWORD PTR [rax+0x800398],0xb027
   140002955:	27 b0 00 00 
   140002959:	48 8b 05 a8 d6 00 00 	mov    rax,QWORD PTR [rip+0xd6a8]        # 140010008 <vmcs>
   140002960:	48 c7 80 a0 03 80 00 	mov    QWORD PTR [rax+0x8003a0],0x0
   140002967:	00 00 00 00 
   14000296b:	48 8b 05 96 d6 00 00 	mov    rax,QWORD PTR [rip+0xd696]        # 140010008 <vmcs>
   140002972:	48 c7 80 a8 03 80 00 	mov    QWORD PTR [rax+0x8003a8],0x0
   140002979:	00 00 00 00 
   14000297d:	48 8b 05 84 d6 00 00 	mov    rax,QWORD PTR [rip+0xd684]        # 140010008 <vmcs>
   140002984:	c7 80 b0 03 80 00 01 	mov    DWORD PTR [rax+0x8003b0],0x1
   14000298b:	00 00 00 
   14000298e:	cc                   	int3
   14000298f:	90                   	nop
   140002990:	48 8b 45 e0          	mov    rax,QWORD PTR [rbp-0x20]
   140002994:	0f b6 40 04          	movzx  eax,BYTE PTR [rax+0x4]
   140002998:	3c 02                	cmp    al,0x2
   14000299a:	75 0e                	jne    1400029aa <_ZN5rvm643elf14load_elf_imageEPvy+0xbc>
   14000299c:	48 8b 45 e0          	mov    rax,QWORD PTR [rbp-0x20]
   1400029a0:	0f b7 40 12          	movzx  eax,WORD PTR [rax+0x12]
   1400029a4:	66 3d f3 00          	cmp    ax,0xf3
   1400029a8:	74 5b                	je     140002a05 <_ZN5rvm643elf14load_elf_imageEPvy+0x117>
   1400029aa:	48 8b 05 57 d6 00 00 	mov    rax,QWORD PTR [rip+0xd657]        # 140010008 <vmcs>
   1400029b1:	48 c7 80 90 03 80 00 	mov    QWORD PTR [rax+0x800390],0x0
   1400029b8:	00 00 00 00 
   1400029bc:	48 8b 05 45 d6 00 00 	mov    rax,QWORD PTR [rip+0xd645]        # 140010008 <vmcs>
   1400029c3:	48 c7 80 98 03 80 00 	mov    QWORD PTR [rax+0x800398],0xb027
   1400029ca:	27 b0 00 00 
   1400029ce:	48 8b 05 33 d6 00 00 	mov    rax,QWORD PTR [rip+0xd633]        # 140010008 <vmcs>
   1400029d5:	48 c7 80 a0 03 80 00 	mov    QWORD PTR [rax+0x8003a0],0x0
   1400029dc:	00 00 00 00 
   1400029e0:	48 8b 05 21 d6 00 00 	mov    rax,QWORD PTR [rip+0xd621]        # 140010008 <vmcs>
   1400029e7:	48 c7 80 a8 03 80 00 	mov    QWORD PTR [rax+0x8003a8],0x0
   1400029ee:	00 00 00 00 
   1400029f2:	48 8b 05 0f d6 00 00 	mov    rax,QWORD PTR [rip+0xd60f]        # 140010008 <vmcs>
   1400029f9:	c7 80 b0 03 80 00 01 	mov    DWORD PTR [rax+0x8003b0],0x1
   140002a00:	00 00 00 
   140002a03:	cc                   	int3
   140002a04:	90                   	nop
   140002a05:	48 8b 45 e0          	mov    rax,QWORD PTR [rbp-0x20]
   140002a09:	48 8b 50 20          	mov    rdx,QWORD PTR [rax+0x20]
   140002a0d:	48 8b 45 10          	mov    rax,QWORD PTR [rbp+0x10]
   140002a11:	48 01 d0             	add    rax,rdx
   140002a14:	48 89 45 d8          	mov    QWORD PTR [rbp-0x28],rax
   140002a18:	48 c7 45 f8 ff ff ff 	mov    QWORD PTR [rbp-0x8],0xffffffffffffffff
   140002a1f:	ff 
   140002a20:	48 c7 45 f0 00 00 00 	mov    QWORD PTR [rbp-0x10],0x0
   140002a27:	00 
   140002a28:	c7 45 ec 00 00 00 00 	mov    DWORD PTR [rbp-0x14],0x0
   140002a2f:	e9 d7 00 00 00       	jmp    140002b0b <_ZN5rvm643elf14load_elf_imageEPvy+0x21d>
   140002a34:	8b 45 ec             	mov    eax,DWORD PTR [rbp-0x14]
   140002a37:	48 63 d0             	movsxd rdx,eax
   140002a3a:	48 89 d0             	mov    rax,rdx
   140002a3d:	48 c1 e0 03          	shl    rax,0x3
   140002a41:	48 29 d0             	sub    rax,rdx
   140002a44:	48 c1 e0 03          	shl    rax,0x3
   140002a48:	48 89 c2             	mov    rdx,rax
   140002a4b:	48 8b 45 d8          	mov    rax,QWORD PTR [rbp-0x28]
   140002a4f:	48 01 d0             	add    rax,rdx
   140002a52:	8b 00                	mov    eax,DWORD PTR [rax]
   140002a54:	83 f8 01             	cmp    eax,0x1
   140002a57:	0f 85 aa 00 00 00    	jne    140002b07 <_ZN5rvm643elf14load_elf_imageEPvy+0x219>
   140002a5d:	8b 45 ec             	mov    eax,DWORD PTR [rbp-0x14]
   140002a60:	48 63 d0             	movsxd rdx,eax
   140002a63:	48 89 d0             	mov    rax,rdx
   140002a66:	48 c1 e0 03          	shl    rax,0x3
   140002a6a:	48 29 d0             	sub    rax,rdx
   140002a6d:	48 c1 e0 03          	shl    rax,0x3
   140002a71:	48 89 c2             	mov    rdx,rax
   140002a74:	48 8b 45 d8          	mov    rax,QWORD PTR [rbp-0x28]
   140002a78:	48 01 d0             	add    rax,rdx
   140002a7b:	48 8b 40 10          	mov    rax,QWORD PTR [rax+0x10]
   140002a7f:	48 39 45 f8          	cmp    QWORD PTR [rbp-0x8],rax
   140002a83:	72 24                	jb     140002aa9 <_ZN5rvm643elf14load_elf_imageEPvy+0x1bb>
   140002a85:	8b 45 ec             	mov    eax,DWORD PTR [rbp-0x14]
   140002a88:	48 63 d0             	movsxd rdx,eax
   140002a8b:	48 89 d0             	mov    rax,rdx
   140002a8e:	48 c1 e0 03          	shl    rax,0x3
   140002a92:	48 29 d0             	sub    rax,rdx
   140002a95:	48 c1 e0 03          	shl    rax,0x3
   140002a99:	48 89 c2             	mov    rdx,rax
   140002a9c:	48 8b 45 d8          	mov    rax,QWORD PTR [rbp-0x28]
   140002aa0:	48 01 d0             	add    rax,rdx
   140002aa3:	48 8b 40 10          	mov    rax,QWORD PTR [rax+0x10]
   140002aa7:	eb 04                	jmp    140002aad <_ZN5rvm643elf14load_elf_imageEPvy+0x1bf>
   140002aa9:	48 8b 45 f8          	mov    rax,QWORD PTR [rbp-0x8]
   140002aad:	48 89 45 f8          	mov    QWORD PTR [rbp-0x8],rax
   140002ab1:	8b 45 ec             	mov    eax,DWORD PTR [rbp-0x14]
   140002ab4:	48 63 d0             	movsxd rdx,eax
   140002ab7:	48 89 d0             	mov    rax,rdx
   140002aba:	48 c1 e0 03          	shl    rax,0x3
   140002abe:	48 29 d0             	sub    rax,rdx
   140002ac1:	48 c1 e0 03          	shl    rax,0x3
   140002ac5:	48 89 c2             	mov    rdx,rax
   140002ac8:	48 8b 45 d8          	mov    rax,QWORD PTR [rbp-0x28]
   140002acc:	48 01 d0             	add    rax,rdx
   140002acf:	48 8b 48 10          	mov    rcx,QWORD PTR [rax+0x10]
   140002ad3:	8b 45 ec             	mov    eax,DWORD PTR [rbp-0x14]
   140002ad6:	48 63 d0             	movsxd rdx,eax
   140002ad9:	48 89 d0             	mov    rax,rdx
   140002adc:	48 c1 e0 03          	shl    rax,0x3
   140002ae0:	48 29 d0             	sub    rax,rdx
   140002ae3:	48 c1 e0 03          	shl    rax,0x3
   140002ae7:	48 89 c2             	mov    rdx,rax
   140002aea:	48 8b 45 d8          	mov    rax,QWORD PTR [rbp-0x28]
   140002aee:	48 01 d0             	add    rax,rdx
   140002af1:	48 8b 40 28          	mov    rax,QWORD PTR [rax+0x28]
   140002af5:	48 01 c8             	add    rax,rcx
   140002af8:	48 8b 55 f0          	mov    rdx,QWORD PTR [rbp-0x10]
   140002afc:	48 39 c2             	cmp    rdx,rax
   140002aff:	48 0f 43 c2          	cmovae rax,rdx
   140002b03:	48 89 45 f0          	mov    QWORD PTR [rbp-0x10],rax
   140002b07:	83 45 ec 01          	add    DWORD PTR [rbp-0x14],0x1
   140002b0b:	48 8b 45 e0          	mov    rax,QWORD PTR [rbp-0x20]
   140002b0f:	0f b7 40 38          	movzx  eax,WORD PTR [rax+0x38]
   140002b13:	0f b7 c0             	movzx  eax,ax
   140002b16:	39 45 ec             	cmp    DWORD PTR [rbp-0x14],eax
   140002b19:	0f 8c 15 ff ff ff    	jl     140002a34 <_ZN5rvm643elf14load_elf_imageEPvy+0x146>
   140002b1f:	48 83 7d f8 ff       	cmp    QWORD PTR [rbp-0x8],0xffffffffffffffff
   140002b24:	74 0a                	je     140002b30 <_ZN5rvm643elf14load_elf_imageEPvy+0x242>
   140002b26:	48 8b 45 f0          	mov    rax,QWORD PTR [rbp-0x10]
   140002b2a:	48 39 45 f8          	cmp    QWORD PTR [rbp-0x8],rax
   140002b2e:	72 5b                	jb     140002b8b <_ZN5rvm643elf14load_elf_imageEPvy+0x29d>
   140002b30:	48 8b 05 d1 d4 00 00 	mov    rax,QWORD PTR [rip+0xd4d1]        # 140010008 <vmcs>
   140002b37:	48 c7 80 90 03 80 00 	mov    QWORD PTR [rax+0x800390],0x0
   140002b3e:	00 00 00 00 
   140002b42:	48 8b 05 bf d4 00 00 	mov    rax,QWORD PTR [rip+0xd4bf]        # 140010008 <vmcs>
   140002b49:	48 c7 80 98 03 80 00 	mov    QWORD PTR [rax+0x800398],0xb026
   140002b50:	26 b0 00 00 
   140002b54:	48 8b 05 ad d4 00 00 	mov    rax,QWORD PTR [rip+0xd4ad]        # 140010008 <vmcs>
   140002b5b:	48 c7 80 a0 03 80 00 	mov    QWORD PTR [rax+0x8003a0],0x0
   140002b62:	00 00 00 00 
   140002b66:	48 8b 05 9b d4 00 00 	mov    rax,QWORD PTR [rip+0xd49b]        # 140010008 <vmcs>
   140002b6d:	48 c7 80 a8 03 80 00 	mov    QWORD PTR [rax+0x8003a8],0x0
   140002b74:	00 00 00 00 
   140002b78:	48 8b 05 89 d4 00 00 	mov    rax,QWORD PTR [rip+0xd489]        # 140010008 <vmcs>
   140002b7f:	c7 80 b0 03 80 00 01 	mov    DWORD PTR [rax+0x8003b0],0x1
   140002b86:	00 00 00 
   140002b89:	cc                   	int3
   140002b8a:	90                   	nop
   140002b8b:	c7 45 e8 00 00 00 00 	mov    DWORD PTR [rbp-0x18],0x0
   140002b92:	e9 9d 01 00 00       	jmp    140002d34 <_ZN5rvm643elf14load_elf_imageEPvy+0x446>
   140002b97:	8b 45 e8             	mov    eax,DWORD PTR [rbp-0x18]
   140002b9a:	48 63 d0             	movsxd rdx,eax
   140002b9d:	48 89 d0             	mov    rax,rdx
   140002ba0:	48 c1 e0 03          	shl    rax,0x3
   140002ba4:	48 29 d0             	sub    rax,rdx
   140002ba7:	48 c1 e0 03          	shl    rax,0x3
   140002bab:	48 89 c2             	mov    rdx,rax
   140002bae:	48 8b 45 d8          	mov    rax,QWORD PTR [rbp-0x28]
   140002bb2:	48 01 d0             	add    rax,rdx
   140002bb5:	8b 00                	mov    eax,DWORD PTR [rax]
   140002bb7:	83 f8 01             	cmp    eax,0x1
   140002bba:	0f 85 6f 01 00 00    	jne    140002d2f <_ZN5rvm643elf14load_elf_imageEPvy+0x441>
   140002bc0:	8b 45 e8             	mov    eax,DWORD PTR [rbp-0x18]
   140002bc3:	48 63 d0             	movsxd rdx,eax
   140002bc6:	48 89 d0             	mov    rax,rdx
   140002bc9:	48 c1 e0 03          	shl    rax,0x3
   140002bcd:	48 29 d0             	sub    rax,rdx
   140002bd0:	48 c1 e0 03          	shl    rax,0x3
   140002bd4:	48 89 c2             	mov    rdx,rax
   140002bd7:	48 8b 45 d8          	mov    rax,QWORD PTR [rbp-0x28]
   140002bdb:	48 01 d0             	add    rax,rdx
   140002bde:	48 8b 40 10          	mov    rax,QWORD PTR [rax+0x10]
   140002be2:	48 2b 45 f8          	sub    rax,QWORD PTR [rbp-0x8]
   140002be6:	48 89 c2             	mov    rdx,rax
   140002be9:	48 8b 05 18 d4 00 00 	mov    rax,QWORD PTR [rip+0xd418]        # 140010008 <vmcs>
   140002bf0:	48 8b 80 48 03 80 00 	mov    rax,QWORD PTR [rax+0x800348]
   140002bf7:	48 01 d0             	add    rax,rdx
   140002bfa:	48 89 45 d0          	mov    QWORD PTR [rbp-0x30],rax
   140002bfe:	8b 45 e8             	mov    eax,DWORD PTR [rbp-0x18]
   140002c01:	48 63 d0             	movsxd rdx,eax
   140002c04:	48 89 d0             	mov    rax,rdx
   140002c07:	48 c1 e0 03          	shl    rax,0x3
   140002c0b:	48 29 d0             	sub    rax,rdx
   140002c0e:	48 c1 e0 03          	shl    rax,0x3
   140002c12:	48 89 c2             	mov    rdx,rax
   140002c15:	48 8b 45 d8          	mov    rax,QWORD PTR [rbp-0x28]
   140002c19:	48 01 d0             	add    rax,rdx
   140002c1c:	48 8b 50 08          	mov    rdx,QWORD PTR [rax+0x8]
   140002c20:	48 8b 45 10          	mov    rax,QWORD PTR [rbp+0x10]
   140002c24:	48 01 d0             	add    rax,rdx
   140002c27:	48 89 45 c8          	mov    QWORD PTR [rbp-0x38],rax
   140002c2b:	8b 45 e8             	mov    eax,DWORD PTR [rbp-0x18]
   140002c2e:	48 63 d0             	movsxd rdx,eax
   140002c31:	48 89 d0             	mov    rax,rdx
   140002c34:	48 c1 e0 03          	shl    rax,0x3
   140002c38:	48 29 d0             	sub    rax,rdx
   140002c3b:	48 c1 e0 03          	shl    rax,0x3
   140002c3f:	48 89 c2             	mov    rdx,rax
   140002c42:	48 8b 45 d8          	mov    rax,QWORD PTR [rbp-0x28]
   140002c46:	48 01 d0             	add    rax,rdx
   140002c49:	48 8b 48 20          	mov    rcx,QWORD PTR [rax+0x20]
   140002c4d:	48 8b 55 c8          	mov    rdx,QWORD PTR [rbp-0x38]
   140002c51:	48 8b 45 d0          	mov    rax,QWORD PTR [rbp-0x30]
   140002c55:	49 89 c8             	mov    r8,rcx
   140002c58:	48 89 c1             	mov    rcx,rax
   140002c5b:	e8 b0 a6 00 00       	call   14000d310 <memcpy>
   140002c60:	8b 45 e8             	mov    eax,DWORD PTR [rbp-0x18]
   140002c63:	48 63 d0             	movsxd rdx,eax
   140002c66:	48 89 d0             	mov    rax,rdx
   140002c69:	48 c1 e0 03          	shl    rax,0x3
   140002c6d:	48 29 d0             	sub    rax,rdx
   140002c70:	48 c1 e0 03          	shl    rax,0x3
   140002c74:	48 89 c2             	mov    rdx,rax
   140002c77:	48 8b 45 d8          	mov    rax,QWORD PTR [rbp-0x28]
   140002c7b:	48 01 d0             	add    rax,rdx
   140002c7e:	48 8b 48 28          	mov    rcx,QWORD PTR [rax+0x28]
   140002c82:	8b 45 e8             	mov    eax,DWORD PTR [rbp-0x18]
   140002c85:	48 63 d0             	movsxd rdx,eax
   140002c88:	48 89 d0             	mov    rax,rdx
   140002c8b:	48 c1 e0 03          	shl    rax,0x3
   140002c8f:	48 29 d0             	sub    rax,rdx
   140002c92:	48 c1 e0 03          	shl    rax,0x3
   140002c96:	48 89 c2             	mov    rdx,rax
   140002c99:	48 8b 45 d8          	mov    rax,QWORD PTR [rbp-0x28]
   140002c9d:	48 01 d0             	add    rax,rdx
   140002ca0:	48 8b 40 20          	mov    rax,QWORD PTR [rax+0x20]
   140002ca4:	48 39 c8             	cmp    rax,rcx
   140002ca7:	0f 83 83 00 00 00    	jae    140002d30 <_ZN5rvm643elf14load_elf_imageEPvy+0x442>
   140002cad:	8b 45 e8             	mov    eax,DWORD PTR [rbp-0x18]
   140002cb0:	48 63 d0             	movsxd rdx,eax
   140002cb3:	48 89 d0             	mov    rax,rdx
   140002cb6:	48 c1 e0 03          	shl    rax,0x3
   140002cba:	48 29 d0             	sub    rax,rdx
   140002cbd:	48 c1 e0 03          	shl    rax,0x3
   140002cc1:	48 89 c2             	mov    rdx,rax
   140002cc4:	48 8b 45 d8          	mov    rax,QWORD PTR [rbp-0x28]
   140002cc8:	48 01 d0             	add    rax,rdx
   140002ccb:	48 8b 48 28          	mov    rcx,QWORD PTR [rax+0x28]
   140002ccf:	8b 45 e8             	mov    eax,DWORD PTR [rbp-0x18]
   140002cd2:	48 63 d0             	movsxd rdx,eax
   140002cd5:	48 89 d0             	mov    rax,rdx
   140002cd8:	48 c1 e0 03          	shl    rax,0x3
   140002cdc:	48 29 d0             	sub    rax,rdx
   140002cdf:	48 c1 e0 03          	shl    rax,0x3
   140002ce3:	48 89 c2             	mov    rdx,rax
   140002ce6:	48 8b 45 d8          	mov    rax,QWORD PTR [rbp-0x28]
   140002cea:	48 01 d0             	add    rax,rdx
   140002ced:	48 8b 40 20          	mov    rax,QWORD PTR [rax+0x20]
   140002cf1:	48 29 c1             	sub    rcx,rax
   140002cf4:	8b 45 e8             	mov    eax,DWORD PTR [rbp-0x18]
   140002cf7:	48 63 d0             	movsxd rdx,eax
   140002cfa:	48 89 d0             	mov    rax,rdx
   140002cfd:	48 c1 e0 03          	shl    rax,0x3
   140002d01:	48 29 d0             	sub    rax,rdx
   140002d04:	48 c1 e0 03          	shl    rax,0x3
   140002d08:	48 89 c2             	mov    rdx,rax
   140002d0b:	48 8b 45 d8          	mov    rax,QWORD PTR [rbp-0x28]
   140002d0f:	48 01 d0             	add    rax,rdx
   140002d12:	48 8b 50 20          	mov    rdx,QWORD PTR [rax+0x20]
   140002d16:	48 8b 45 d0          	mov    rax,QWORD PTR [rbp-0x30]
   140002d1a:	48 01 d0             	add    rax,rdx
   140002d1d:	49 89 c8             	mov    r8,rcx
   140002d20:	ba 00 00 00 00       	mov    edx,0x0
   140002d25:	48 89 c1             	mov    rcx,rax
   140002d28:	e8 eb a5 00 00       	call   14000d318 <memset>
   140002d2d:	eb 01                	jmp    140002d30 <_ZN5rvm643elf14load_elf_imageEPvy+0x442>
   140002d2f:	90                   	nop
   140002d30:	83 45 e8 01          	add    DWORD PTR [rbp-0x18],0x1
   140002d34:	48 8b 45 e0          	mov    rax,QWORD PTR [rbp-0x20]
   140002d38:	0f b7 40 38          	movzx  eax,WORD PTR [rax+0x38]
   140002d3c:	0f b7 c0             	movzx  eax,ax
   140002d3f:	39 45 e8             	cmp    DWORD PTR [rbp-0x18],eax
   140002d42:	0f 8c 4f fe ff ff    	jl     140002b97 <_ZN5rvm643elf14load_elf_imageEPvy+0x2a9>
   140002d48:	48 8b 05 b9 d2 00 00 	mov    rax,QWORD PTR [rip+0xd2b9]        # 140010008 <vmcs>
   140002d4f:	48 8b 55 18          	mov    rdx,QWORD PTR [rbp+0x18]
   140002d53:	48 89 90 60 03 80 00 	mov    QWORD PTR [rax+0x800360],rdx
   140002d5a:	48 8b 05 a7 d2 00 00 	mov    rax,QWORD PTR [rip+0xd2a7]        # 140010008 <vmcs>
   140002d61:	48 8b 55 f8          	mov    rdx,QWORD PTR [rbp-0x8]
   140002d65:	48 89 90 50 03 80 00 	mov    QWORD PTR [rax+0x800350],rdx
   140002d6c:	48 8b 05 95 d2 00 00 	mov    rax,QWORD PTR [rip+0xd295]        # 140010008 <vmcs>
   140002d73:	48 8b 88 48 03 80 00 	mov    rcx,QWORD PTR [rax+0x800348]
   140002d7a:	48 8b 45 e0          	mov    rax,QWORD PTR [rbp-0x20]
   140002d7e:	48 8b 40 18          	mov    rax,QWORD PTR [rax+0x18]
   140002d82:	48 2b 45 f8          	sub    rax,QWORD PTR [rbp-0x8]
   140002d86:	48 89 c2             	mov    rdx,rax
   140002d89:	48 8b 05 78 d2 00 00 	mov    rax,QWORD PTR [rip+0xd278]        # 140010008 <vmcs>
   140002d90:	48 01 ca             	add    rdx,rcx
   140002d93:	48 89 90 58 03 80 00 	mov    QWORD PTR [rax+0x800358],rdx
   140002d9a:	48 8b 15 67 d2 00 00 	mov    rdx,QWORD PTR [rip+0xd267]        # 140010008 <vmcs>
   140002da1:	48 8b 05 60 d2 00 00 	mov    rax,QWORD PTR [rip+0xd260]        # 140010008 <vmcs>
   140002da8:	48 8b 92 58 03 80 00 	mov    rdx,QWORD PTR [rdx+0x800358]
   140002daf:	48 89 10             	mov    QWORD PTR [rax],rdx
   140002db2:	e8 b6 f4 ff ff       	call   14000226d <_ZN5rvm643elf17patch_elf_importsEv>
   140002db7:	90                   	nop
   140002db8:	48 83 c4 60          	add    rsp,0x60
   140002dbc:	5d                   	pop    rbp
   140002dbd:	c3                   	ret

0000000140002dbe <_ZN5rvm646memory12context_initEv>:
   140002dbe:	55                   	push   rbp
   140002dbf:	53                   	push   rbx
   140002dc0:	48 83 ec 28          	sub    rsp,0x28
   140002dc4:	48 8d 6c 24 20       	lea    rbp,[rsp+0x20]
   140002dc9:	41 b9 04 00 00 00    	mov    r9d,0x4
   140002dcf:	41 b8 00 30 00 00    	mov    r8d,0x3000
   140002dd5:	ba 08 00 00 00       	mov    edx,0x8
   140002dda:	b9 00 00 00 00       	mov    ecx,0x0
   140002ddf:	48 8b 05 d2 34 01 00 	mov    rax,QWORD PTR [rip+0x134d2]        # 1400162b8 <__imp_VirtualAlloc>
   140002de6:	ff d0                	call   rax
   140002de8:	48 89 05 11 d2 00 00 	mov    QWORD PTR [rip+0xd211],rax        # 140010000 <__data_start__>
   140002def:	48 8d 05 6e e3 00 00 	lea    rax,[rip+0xe36e]        # 140011164 <_ZL8memcheck+0x15c>
   140002df6:	48 89 c1             	mov    rcx,rax
   140002df9:	48 8b 05 70 34 01 00 	mov    rax,QWORD PTR [rip+0x13470]        # 140016270 <__imp_GetModuleHandleA>
   140002e00:	ff d0                	call   rax
   140002e02:	48 89 c1             	mov    rcx,rax
   140002e05:	48 8b 1d f4 d1 00 00 	mov    rbx,QWORD PTR [rip+0xd1f4]        # 140010000 <__data_start__>
   140002e0c:	48 8d 05 5b e3 00 00 	lea    rax,[rip+0xe35b]        # 14001116e <_ZL8memcheck+0x166>
   140002e13:	48 89 c2             	mov    rdx,rax
   140002e16:	48 8b 05 5b 34 01 00 	mov    rax,QWORD PTR [rip+0x1345b]        # 140016278 <__imp_GetProcAddress>
   140002e1d:	ff d0                	call   rax
   140002e1f:	48 89 43 28          	mov    QWORD PTR [rbx+0x28],rax
   140002e23:	48 8d 05 3a e3 00 00 	lea    rax,[rip+0xe33a]        # 140011164 <_ZL8memcheck+0x15c>
   140002e2a:	48 89 c1             	mov    rcx,rax
   140002e2d:	48 8b 05 3c 34 01 00 	mov    rax,QWORD PTR [rip+0x1343c]        # 140016270 <__imp_GetModuleHandleA>
   140002e34:	ff d0                	call   rax
   140002e36:	48 89 c1             	mov    rcx,rax
   140002e39:	48 8b 1d c0 d1 00 00 	mov    rbx,QWORD PTR [rip+0xd1c0]        # 140010000 <__data_start__>
   140002e40:	48 8d 05 37 e3 00 00 	lea    rax,[rip+0xe337]        # 14001117e <_ZL8memcheck+0x176>
   140002e47:	48 89 c2             	mov    rdx,rax
   140002e4a:	48 8b 05 27 34 01 00 	mov    rax,QWORD PTR [rip+0x13427]        # 140016278 <__imp_GetProcAddress>
   140002e51:	ff d0                	call   rax
   140002e53:	48 89 43 08          	mov    QWORD PTR [rbx+0x8],rax
   140002e57:	48 8d 05 06 e3 00 00 	lea    rax,[rip+0xe306]        # 140011164 <_ZL8memcheck+0x15c>
   140002e5e:	48 89 c1             	mov    rcx,rax
   140002e61:	48 8b 05 08 34 01 00 	mov    rax,QWORD PTR [rip+0x13408]        # 140016270 <__imp_GetModuleHandleA>
   140002e68:	ff d0                	call   rax
   140002e6a:	48 89 c1             	mov    rcx,rax
   140002e6d:	48 8b 1d 8c d1 00 00 	mov    rbx,QWORD PTR [rip+0xd18c]        # 140010000 <__data_start__>
   140002e74:	48 8d 05 16 e3 00 00 	lea    rax,[rip+0xe316]        # 140011191 <_ZL8memcheck+0x189>
   140002e7b:	48 89 c2             	mov    rdx,rax
   140002e7e:	48 8b 05 f3 33 01 00 	mov    rax,QWORD PTR [rip+0x133f3]        # 140016278 <__imp_GetProcAddress>
   140002e85:	ff d0                	call   rax
   140002e87:	48 89 43 10          	mov    QWORD PTR [rbx+0x10],rax
   140002e8b:	48 8d 05 d2 e2 00 00 	lea    rax,[rip+0xe2d2]        # 140011164 <_ZL8memcheck+0x15c>
   140002e92:	48 89 c1             	mov    rcx,rax
   140002e95:	48 8b 05 d4 33 01 00 	mov    rax,QWORD PTR [rip+0x133d4]        # 140016270 <__imp_GetModuleHandleA>
   140002e9c:	ff d0                	call   rax
   140002e9e:	48 89 c1             	mov    rcx,rax
   140002ea1:	48 8b 1d 58 d1 00 00 	mov    rbx,QWORD PTR [rip+0xd158]        # 140010000 <__data_start__>
   140002ea8:	48 8d 05 f5 e2 00 00 	lea    rax,[rip+0xe2f5]        # 1400111a4 <_ZL8memcheck+0x19c>
   140002eaf:	48 89 c2             	mov    rdx,rax
   140002eb2:	48 8b 05 bf 33 01 00 	mov    rax,QWORD PTR [rip+0x133bf]        # 140016278 <__imp_GetProcAddress>
   140002eb9:	ff d0                	call   rax
   140002ebb:	48 89 43 18          	mov    QWORD PTR [rbx+0x18],rax
   140002ebf:	48 8d 05 9e e2 00 00 	lea    rax,[rip+0xe29e]        # 140011164 <_ZL8memcheck+0x15c>
   140002ec6:	48 89 c1             	mov    rcx,rax
   140002ec9:	48 8b 05 a0 33 01 00 	mov    rax,QWORD PTR [rip+0x133a0]        # 140016270 <__imp_GetModuleHandleA>
   140002ed0:	ff d0                	call   rax
   140002ed2:	48 89 c1             	mov    rcx,rax
   140002ed5:	48 8b 1d 24 d1 00 00 	mov    rbx,QWORD PTR [rip+0xd124]        # 140010000 <__data_start__>
   140002edc:	48 8d 05 d9 e2 00 00 	lea    rax,[rip+0xe2d9]        # 1400111bc <_ZL8memcheck+0x1b4>
   140002ee3:	48 89 c2             	mov    rdx,rax
   140002ee6:	48 8b 05 8b 33 01 00 	mov    rax,QWORD PTR [rip+0x1338b]        # 140016278 <__imp_GetProcAddress>
   140002eed:	ff d0                	call   rax
   140002eef:	48 89 43 20          	mov    QWORD PTR [rbx+0x20],rax
   140002ef3:	48 8d 05 d6 e2 00 00 	lea    rax,[rip+0xe2d6]        # 1400111d0 <_ZL8memcheck+0x1c8>
   140002efa:	48 89 c1             	mov    rcx,rax
   140002efd:	48 8b 05 6c 33 01 00 	mov    rax,QWORD PTR [rip+0x1336c]        # 140016270 <__imp_GetModuleHandleA>
   140002f04:	ff d0                	call   rax
   140002f06:	48 89 c1             	mov    rcx,rax
   140002f09:	48 8b 1d f0 d0 00 00 	mov    rbx,QWORD PTR [rip+0xd0f0]        # 140010000 <__data_start__>
   140002f10:	48 8d 05 c6 e2 00 00 	lea    rax,[rip+0xe2c6]        # 1400111dd <_ZL8memcheck+0x1d5>
   140002f17:	48 89 c2             	mov    rdx,rax
   140002f1a:	48 8b 05 57 33 01 00 	mov    rax,QWORD PTR [rip+0x13357]        # 140016278 <__imp_GetProcAddress>
   140002f21:	ff d0                	call   rax
   140002f23:	48 89 43 50          	mov    QWORD PTR [rbx+0x50],rax
   140002f27:	48 8d 05 a2 e2 00 00 	lea    rax,[rip+0xe2a2]        # 1400111d0 <_ZL8memcheck+0x1c8>
   140002f2e:	48 89 c1             	mov    rcx,rax
   140002f31:	48 8b 05 38 33 01 00 	mov    rax,QWORD PTR [rip+0x13338]        # 140016270 <__imp_GetModuleHandleA>
   140002f38:	ff d0                	call   rax
   140002f3a:	48 89 c1             	mov    rcx,rax
   140002f3d:	48 8b 1d bc d0 00 00 	mov    rbx,QWORD PTR [rip+0xd0bc]        # 140010000 <__data_start__>
   140002f44:	48 8d 05 9e e2 00 00 	lea    rax,[rip+0xe29e]        # 1400111e9 <_ZL8memcheck+0x1e1>
   140002f4b:	48 89 c2             	mov    rdx,rax
   140002f4e:	48 8b 05 23 33 01 00 	mov    rax,QWORD PTR [rip+0x13323]        # 140016278 <__imp_GetProcAddress>
   140002f55:	ff d0                	call   rax
   140002f57:	48 89 43 58          	mov    QWORD PTR [rbx+0x58],rax
   140002f5b:	48 8d 05 6e e2 00 00 	lea    rax,[rip+0xe26e]        # 1400111d0 <_ZL8memcheck+0x1c8>
   140002f62:	48 89 c1             	mov    rcx,rax
   140002f65:	48 8b 05 04 33 01 00 	mov    rax,QWORD PTR [rip+0x13304]        # 140016270 <__imp_GetModuleHandleA>
   140002f6c:	ff d0                	call   rax
   140002f6e:	48 89 c1             	mov    rcx,rax
   140002f71:	48 8b 1d 88 d0 00 00 	mov    rbx,QWORD PTR [rip+0xd088]        # 140010000 <__data_start__>
   140002f78:	48 8d 05 73 e2 00 00 	lea    rax,[rip+0xe273]        # 1400111f2 <_ZL8memcheck+0x1ea>
   140002f7f:	48 89 c2             	mov    rdx,rax
   140002f82:	48 8b 05 ef 32 01 00 	mov    rax,QWORD PTR [rip+0x132ef]        # 140016278 <__imp_GetProcAddress>
   140002f89:	ff d0                	call   rax
   140002f8b:	48 89 43 48          	mov    QWORD PTR [rbx+0x48],rax
   140002f8f:	48 8d 05 3a e2 00 00 	lea    rax,[rip+0xe23a]        # 1400111d0 <_ZL8memcheck+0x1c8>
   140002f96:	48 89 c1             	mov    rcx,rax
   140002f99:	48 8b 05 d0 32 01 00 	mov    rax,QWORD PTR [rip+0x132d0]        # 140016270 <__imp_GetModuleHandleA>
   140002fa0:	ff d0                	call   rax
   140002fa2:	48 89 c1             	mov    rcx,rax
   140002fa5:	48 8b 1d 54 d0 00 00 	mov    rbx,QWORD PTR [rip+0xd054]        # 140010000 <__data_start__>
   140002fac:	48 8d 05 4b e2 00 00 	lea    rax,[rip+0xe24b]        # 1400111fe <_ZL8memcheck+0x1f6>
   140002fb3:	48 89 c2             	mov    rdx,rax
   140002fb6:	48 8b 05 bb 32 01 00 	mov    rax,QWORD PTR [rip+0x132bb]        # 140016278 <__imp_GetProcAddress>
   140002fbd:	ff d0                	call   rax
   140002fbf:	48 89 43 38          	mov    QWORD PTR [rbx+0x38],rax
   140002fc3:	48 8d 05 06 e2 00 00 	lea    rax,[rip+0xe206]        # 1400111d0 <_ZL8memcheck+0x1c8>
   140002fca:	48 89 c1             	mov    rcx,rax
   140002fcd:	48 8b 05 9c 32 01 00 	mov    rax,QWORD PTR [rip+0x1329c]        # 140016270 <__imp_GetModuleHandleA>
   140002fd4:	ff d0                	call   rax
   140002fd6:	48 89 c1             	mov    rcx,rax
   140002fd9:	48 8b 1d 20 d0 00 00 	mov    rbx,QWORD PTR [rip+0xd020]        # 140010000 <__data_start__>
   140002fe0:	48 8d 05 24 e2 00 00 	lea    rax,[rip+0xe224]        # 14001120b <_ZL8memcheck+0x203>
   140002fe7:	48 89 c2             	mov    rdx,rax
   140002fea:	48 8b 05 87 32 01 00 	mov    rax,QWORD PTR [rip+0x13287]        # 140016278 <__imp_GetProcAddress>
   140002ff1:	ff d0                	call   rax
   140002ff3:	48 89 43 40          	mov    QWORD PTR [rbx+0x40],rax
   140002ff7:	48 8d 05 d2 e1 00 00 	lea    rax,[rip+0xe1d2]        # 1400111d0 <_ZL8memcheck+0x1c8>
   140002ffe:	48 89 c1             	mov    rcx,rax
   140003001:	48 8b 05 68 32 01 00 	mov    rax,QWORD PTR [rip+0x13268]        # 140016270 <__imp_GetModuleHandleA>
   140003008:	ff d0                	call   rax
   14000300a:	48 89 c1             	mov    rcx,rax
   14000300d:	48 8b 1d ec cf 00 00 	mov    rbx,QWORD PTR [rip+0xcfec]        # 140010000 <__data_start__>
   140003014:	48 8d 05 fd e1 00 00 	lea    rax,[rip+0xe1fd]        # 140011218 <_ZL8memcheck+0x210>
   14000301b:	48 89 c2             	mov    rdx,rax
   14000301e:	48 8b 05 53 32 01 00 	mov    rax,QWORD PTR [rip+0x13253]        # 140016278 <__imp_GetProcAddress>
   140003025:	ff d0                	call   rax
   140003027:	48 89 43 30          	mov    QWORD PTR [rbx+0x30],rax
   14000302b:	90                   	nop
   14000302c:	48 83 c4 28          	add    rsp,0x28
   140003030:	5b                   	pop    rbx
   140003031:	5d                   	pop    rbp
   140003032:	c3                   	ret

0000000140003033 <_ZN5rvm646memory15vm_set_load_rsvEiy>:
   140003033:	55                   	push   rbp
   140003034:	48 89 e5             	mov    rbp,rsp
   140003037:	48 83 ec 20          	sub    rsp,0x20
   14000303b:	89 4d 10             	mov    DWORD PTR [rbp+0x10],ecx
   14000303e:	48 89 55 18          	mov    QWORD PTR [rbp+0x18],rdx
   140003042:	48 8b 05 b7 cf 00 00 	mov    rax,QWORD PTR [rip+0xcfb7]        # 140010000 <__data_start__>
   140003049:	4c 8b 40 30          	mov    r8,QWORD PTR [rax+0x30]
   14000304d:	48 8b 05 bc cf 00 00 	mov    rax,QWORD PTR [rip+0xcfbc]        # 140010010 <vmcs_mutex>
   140003054:	ba ff ff ff ff       	mov    edx,0xffffffff
   140003059:	48 89 c1             	mov    rcx,rax
   14000305c:	41 ff d0             	call   r8
   14000305f:	48 8b 05 a2 cf 00 00 	mov    rax,QWORD PTR [rip+0xcfa2]        # 140010008 <vmcs>
   140003066:	48 8b 55 18          	mov    rdx,QWORD PTR [rbp+0x18]
   14000306a:	48 89 90 80 03 80 00 	mov    QWORD PTR [rax+0x800380],rdx
   140003071:	48 8b 05 90 cf 00 00 	mov    rax,QWORD PTR [rip+0xcf90]        # 140010008 <vmcs>
   140003078:	c7 80 88 03 80 00 01 	mov    DWORD PTR [rax+0x800388],0x1
   14000307f:	00 00 00 
   140003082:	48 8b 05 77 cf 00 00 	mov    rax,QWORD PTR [rip+0xcf77]        # 140010000 <__data_start__>
   140003089:	48 8b 50 40          	mov    rdx,QWORD PTR [rax+0x40]
   14000308d:	48 8b 05 7c cf 00 00 	mov    rax,QWORD PTR [rip+0xcf7c]        # 140010010 <vmcs_mutex>
   140003094:	48 89 c1             	mov    rcx,rax
   140003097:	ff d2                	call   rdx
   140003099:	90                   	nop
   14000309a:	48 83 c4 20          	add    rsp,0x20
   14000309e:	5d                   	pop    rbp
   14000309f:	c3                   	ret

00000001400030a0 <_ZN5rvm646memory17vm_clear_load_rsvEi>:
   1400030a0:	55                   	push   rbp
   1400030a1:	48 89 e5             	mov    rbp,rsp
   1400030a4:	48 83 ec 20          	sub    rsp,0x20
   1400030a8:	89 4d 10             	mov    DWORD PTR [rbp+0x10],ecx
   1400030ab:	48 8b 05 4e cf 00 00 	mov    rax,QWORD PTR [rip+0xcf4e]        # 140010000 <__data_start__>
   1400030b2:	4c 8b 40 30          	mov    r8,QWORD PTR [rax+0x30]
   1400030b6:	48 8b 05 53 cf 00 00 	mov    rax,QWORD PTR [rip+0xcf53]        # 140010010 <vmcs_mutex>
   1400030bd:	ba ff ff ff ff       	mov    edx,0xffffffff
   1400030c2:	48 89 c1             	mov    rcx,rax
   1400030c5:	41 ff d0             	call   r8
   1400030c8:	48 8b 05 39 cf 00 00 	mov    rax,QWORD PTR [rip+0xcf39]        # 140010008 <vmcs>
   1400030cf:	48 c7 80 80 03 80 00 	mov    QWORD PTR [rax+0x800380],0x0
   1400030d6:	00 00 00 00 
   1400030da:	48 8b 05 27 cf 00 00 	mov    rax,QWORD PTR [rip+0xcf27]        # 140010008 <vmcs>
   1400030e1:	c7 80 88 03 80 00 00 	mov    DWORD PTR [rax+0x800388],0x0
   1400030e8:	00 00 00 
   1400030eb:	48 8b 05 0e cf 00 00 	mov    rax,QWORD PTR [rip+0xcf0e]        # 140010000 <__data_start__>
   1400030f2:	48 8b 50 40          	mov    rdx,QWORD PTR [rax+0x40]
   1400030f6:	48 8b 05 13 cf 00 00 	mov    rax,QWORD PTR [rip+0xcf13]        # 140010010 <vmcs_mutex>
   1400030fd:	48 89 c1             	mov    rcx,rax
   140003100:	ff d2                	call   rdx
   140003102:	90                   	nop
   140003103:	48 83 c4 20          	add    rsp,0x20
   140003107:	5d                   	pop    rbp
   140003108:	c3                   	ret

0000000140003109 <_ZN5rvm646memory17vm_check_load_rsvEiy>:
   140003109:	55                   	push   rbp
   14000310a:	48 89 e5             	mov    rbp,rsp
   14000310d:	48 83 ec 30          	sub    rsp,0x30
   140003111:	89 4d 10             	mov    DWORD PTR [rbp+0x10],ecx
   140003114:	48 89 55 18          	mov    QWORD PTR [rbp+0x18],rdx
   140003118:	c7 45 fc 00 00 00 00 	mov    DWORD PTR [rbp-0x4],0x0
   14000311f:	48 8b 05 da ce 00 00 	mov    rax,QWORD PTR [rip+0xceda]        # 140010000 <__data_start__>
   140003126:	4c 8b 40 30          	mov    r8,QWORD PTR [rax+0x30]
   14000312a:	48 8b 05 df ce 00 00 	mov    rax,QWORD PTR [rip+0xcedf]        # 140010010 <vmcs_mutex>
   140003131:	ba ff ff ff ff       	mov    edx,0xffffffff
   140003136:	48 89 c1             	mov    rcx,rax
   140003139:	41 ff d0             	call   r8
   14000313c:	48 8b 05 c5 ce 00 00 	mov    rax,QWORD PTR [rip+0xcec5]        # 140010008 <vmcs>
   140003143:	8b 80 88 03 80 00    	mov    eax,DWORD PTR [rax+0x800388]
   140003149:	85 c0                	test   eax,eax
   14000314b:	74 1b                	je     140003168 <_ZN5rvm646memory17vm_check_load_rsvEiy+0x5f>
   14000314d:	48 8b 05 b4 ce 00 00 	mov    rax,QWORD PTR [rip+0xceb4]        # 140010008 <vmcs>
   140003154:	48 8b 80 80 03 80 00 	mov    rax,QWORD PTR [rax+0x800380]
   14000315b:	48 39 45 18          	cmp    QWORD PTR [rbp+0x18],rax
   14000315f:	75 07                	jne    140003168 <_ZN5rvm646memory17vm_check_load_rsvEiy+0x5f>
   140003161:	b8 01 00 00 00       	mov    eax,0x1
   140003166:	eb 05                	jmp    14000316d <_ZN5rvm646memory17vm_check_load_rsvEiy+0x64>
   140003168:	b8 00 00 00 00       	mov    eax,0x0
   14000316d:	0f b6 c0             	movzx  eax,al
   140003170:	89 45 fc             	mov    DWORD PTR [rbp-0x4],eax
   140003173:	48 8b 05 86 ce 00 00 	mov    rax,QWORD PTR [rip+0xce86]        # 140010000 <__data_start__>
   14000317a:	48 8b 50 40          	mov    rdx,QWORD PTR [rax+0x40]
   14000317e:	48 8b 05 8b ce 00 00 	mov    rax,QWORD PTR [rip+0xce8b]        # 140010010 <vmcs_mutex>
   140003185:	48 89 c1             	mov    rcx,rax
   140003188:	ff d2                	call   rdx
   14000318a:	83 7d fc 00          	cmp    DWORD PTR [rbp-0x4],0x0
   14000318e:	0f 95 c0             	setne  al
   140003191:	48 83 c4 30          	add    rsp,0x30
   140003195:	5d                   	pop    rbp
   140003196:	c3                   	ret

0000000140003197 <_ZN5rvm646memory11memory_initEy>:
   140003197:	55                   	push   rbp
   140003198:	48 89 e5             	mov    rbp,rsp
   14000319b:	48 83 ec 40          	sub    rsp,0x40
   14000319f:	48 89 4d 10          	mov    QWORD PTR [rbp+0x10],rcx
   1400031a3:	c7 45 fc 00 00 00 00 	mov    DWORD PTR [rbp-0x4],0x0
   1400031aa:	48 8b 05 57 ce 00 00 	mov    rax,QWORD PTR [rip+0xce57]        # 140010008 <vmcs>
   1400031b1:	48 8b 55 10          	mov    rdx,QWORD PTR [rbp+0x10]
   1400031b5:	48 89 90 60 03 80 00 	mov    QWORD PTR [rax+0x800360],rdx
   1400031bc:	48 8b 05 3d ce 00 00 	mov    rax,QWORD PTR [rip+0xce3d]        # 140010000 <__data_start__>
   1400031c3:	48 8b 40 18          	mov    rax,QWORD PTR [rax+0x18]
   1400031c7:	48 8b 15 3a ce 00 00 	mov    rdx,QWORD PTR [rip+0xce3a]        # 140010008 <vmcs>
   1400031ce:	48 8d 8a 60 03 80 00 	lea    rcx,[rdx+0x800360]
   1400031d5:	48 8b 15 2c ce 00 00 	mov    rdx,QWORD PTR [rip+0xce2c]        # 140010008 <vmcs>
   1400031dc:	48 81 c2 48 03 80 00 	add    rdx,0x800348
   1400031e3:	c7 44 24 28 04 00 00 	mov    DWORD PTR [rsp+0x28],0x4
   1400031ea:	00 
   1400031eb:	c7 44 24 20 00 30 00 	mov    DWORD PTR [rsp+0x20],0x3000
   1400031f2:	00 
   1400031f3:	49 89 c9             	mov    r9,rcx
   1400031f6:	41 b8 00 00 00 00    	mov    r8d,0x0
   1400031fc:	48 c7 c1 ff ff ff ff 	mov    rcx,0xffffffffffffffff
   140003203:	ff d0                	call   rax
   140003205:	89 45 fc             	mov    DWORD PTR [rbp-0x4],eax
   140003208:	8b 45 fc             	mov    eax,DWORD PTR [rbp-0x4]
   14000320b:	c1 e8 1f             	shr    eax,0x1f
   14000320e:	84 c0                	test   al,al
   140003210:	74 64                	je     140003276 <_ZN5rvm646memory11memory_initEy+0xdf>
   140003212:	48 8b 05 ef cd 00 00 	mov    rax,QWORD PTR [rip+0xcdef]        # 140010008 <vmcs>
   140003219:	48 c7 80 90 03 80 00 	mov    QWORD PTR [rax+0x800390],0x0
   140003220:	00 00 00 00 
   140003224:	48 8b 05 dd cd 00 00 	mov    rax,QWORD PTR [rip+0xcddd]        # 140010008 <vmcs>
   14000322b:	48 c7 80 98 03 80 00 	mov    QWORD PTR [rax+0x800398],0xb05
   140003232:	05 0b 00 00 
   140003236:	48 8b 05 cb cd 00 00 	mov    rax,QWORD PTR [rip+0xcdcb]        # 140010008 <vmcs>
   14000323d:	8b 55 fc             	mov    edx,DWORD PTR [rbp-0x4]
   140003240:	48 63 d2             	movsxd rdx,edx
   140003243:	48 89 90 a0 03 80 00 	mov    QWORD PTR [rax+0x8003a0],rdx
   14000324a:	48 8b 05 b7 cd 00 00 	mov    rax,QWORD PTR [rip+0xcdb7]        # 140010008 <vmcs>
   140003251:	48 c7 80 a8 03 80 00 	mov    QWORD PTR [rax+0x8003a8],0x0
   140003258:	00 00 00 00 
   14000325c:	48 8b 05 a5 cd 00 00 	mov    rax,QWORD PTR [rip+0xcda5]        # 140010008 <vmcs>
   140003263:	c7 80 b0 03 80 00 01 	mov    DWORD PTR [rax+0x8003b0],0x1
   14000326a:	00 00 00 
   14000326d:	cc                   	int3
   14000326e:	90                   	nop
   14000326f:	b8 00 00 00 00       	mov    eax,0x0
   140003274:	eb 05                	jmp    14000327b <_ZN5rvm646memory11memory_initEy+0xe4>
   140003276:	b8 01 00 00 00       	mov    eax,0x1
   14000327b:	48 83 c4 40          	add    rsp,0x40
   14000327f:	5d                   	pop    rbp
   140003280:	c3                   	ret

0000000140003281 <_ZN5rvm646memory10memory_endEv>:
   140003281:	55                   	push   rbp
   140003282:	48 89 e5             	mov    rbp,rsp
   140003285:	48 83 ec 30          	sub    rsp,0x30
   140003289:	c7 45 fc 00 00 00 00 	mov    DWORD PTR [rbp-0x4],0x0
   140003290:	48 8b 05 69 cd 00 00 	mov    rax,QWORD PTR [rip+0xcd69]        # 140010000 <__data_start__>
   140003297:	48 8b 40 20          	mov    rax,QWORD PTR [rax+0x20]
   14000329b:	48 8b 15 66 cd 00 00 	mov    rdx,QWORD PTR [rip+0xcd66]        # 140010008 <vmcs>
   1400032a2:	48 8d 8a 60 03 80 00 	lea    rcx,[rdx+0x800360]
   1400032a9:	48 8b 15 58 cd 00 00 	mov    rdx,QWORD PTR [rip+0xcd58]        # 140010008 <vmcs>
   1400032b0:	48 81 c2 48 03 80 00 	add    rdx,0x800348
   1400032b7:	41 b9 00 80 00 00    	mov    r9d,0x8000
   1400032bd:	49 89 c8             	mov    r8,rcx
   1400032c0:	48 c7 c1 ff ff ff ff 	mov    rcx,0xffffffffffffffff
   1400032c7:	ff d0                	call   rax
   1400032c9:	89 45 fc             	mov    DWORD PTR [rbp-0x4],eax
   1400032cc:	8b 45 fc             	mov    eax,DWORD PTR [rbp-0x4]
   1400032cf:	c1 e8 1f             	shr    eax,0x1f
   1400032d2:	84 c0                	test   al,al
   1400032d4:	74 5d                	je     140003333 <_ZN5rvm646memory10memory_endEv+0xb2>
   1400032d6:	48 8b 05 2b cd 00 00 	mov    rax,QWORD PTR [rip+0xcd2b]        # 140010008 <vmcs>
   1400032dd:	48 c7 80 90 03 80 00 	mov    QWORD PTR [rax+0x800390],0x0
   1400032e4:	00 00 00 00 
   1400032e8:	48 8b 05 19 cd 00 00 	mov    rax,QWORD PTR [rip+0xcd19]        # 140010008 <vmcs>
   1400032ef:	48 c7 80 98 03 80 00 	mov    QWORD PTR [rax+0x800398],0xb05
   1400032f6:	05 0b 00 00 
   1400032fa:	48 8b 05 07 cd 00 00 	mov    rax,QWORD PTR [rip+0xcd07]        # 140010008 <vmcs>
   140003301:	8b 55 fc             	mov    edx,DWORD PTR [rbp-0x4]
   140003304:	48 63 d2             	movsxd rdx,edx
   140003307:	48 89 90 a0 03 80 00 	mov    QWORD PTR [rax+0x8003a0],rdx
   14000330e:	48 8b 05 f3 cc 00 00 	mov    rax,QWORD PTR [rip+0xccf3]        # 140010008 <vmcs>
   140003315:	48 c7 80 a8 03 80 00 	mov    QWORD PTR [rax+0x8003a8],0x0
   14000331c:	00 00 00 00 
   140003320:	48 8b 05 e1 cc 00 00 	mov    rax,QWORD PTR [rip+0xcce1]        # 140010008 <vmcs>
   140003327:	c7 80 b0 03 80 00 01 	mov    DWORD PTR [rax+0x8003b0],0x1
   14000332e:	00 00 00 
   140003331:	cc                   	int3
   140003332:	90                   	nop
   140003333:	90                   	nop
   140003334:	48 83 c4 30          	add    rsp,0x30
   140003338:	5d                   	pop    rbp
   140003339:	c3                   	ret

000000014000333a <_ZN5rvm647decoder9vm_decodeEj>:
   14000333a:	55                   	push   rbp
   14000333b:	48 81 ec 90 0a 00 00 	sub    rsp,0xa90
   140003342:	48 8d ac 24 80 00 00 	lea    rbp,[rsp+0x80]
   140003349:	00 
   14000334a:	89 8d 20 0a 00 00    	mov    DWORD PTR [rbp+0xa20],ecx
   140003350:	c6 85 0f 0a 00 00 00 	mov    BYTE PTR [rbp+0xa0f],0x0
   140003357:	8b 85 20 0a 00 00    	mov    eax,DWORD PTR [rbp+0xa20]
   14000335d:	83 e0 7f             	and    eax,0x7f
   140003360:	88 85 07 0a 00 00    	mov    BYTE PTR [rbp+0xa07],al
   140003366:	c7 85 08 0a 00 00 00 	mov    DWORD PTR [rbp+0xa08],0x0
   14000336d:	00 00 00 
   140003370:	eb 4c                	jmp    1400033be <_ZN5rvm647decoder9vm_decodeEj+0x84>
   140003372:	8b 85 08 0a 00 00    	mov    eax,DWORD PTR [rbp+0xa08]
   140003378:	48 98                	cdqe
   14000337a:	48 8d 14 c5 00 00 00 	lea    rdx,[rax*8+0x0]
   140003381:	00 
   140003382:	48 8d 05 b7 de 00 00 	lea    rax,[rip+0xdeb7]        # 140011240 <_ZL8encoding>
   140003389:	0f b6 04 02          	movzx  eax,BYTE PTR [rdx+rax*1]
   14000338d:	38 85 07 0a 00 00    	cmp    BYTE PTR [rbp+0xa07],al
   140003393:	75 22                	jne    1400033b7 <_ZN5rvm647decoder9vm_decodeEj+0x7d>
   140003395:	8b 85 08 0a 00 00    	mov    eax,DWORD PTR [rbp+0xa08]
   14000339b:	48 98                	cdqe
   14000339d:	48 8d 14 c5 00 00 00 	lea    rdx,[rax*8+0x0]
   1400033a4:	00 
   1400033a5:	48 8d 05 98 de 00 00 	lea    rax,[rip+0xde98]        # 140011244 <_ZL8encoding+0x4>
   1400033ac:	8b 04 02             	mov    eax,DWORD PTR [rdx+rax*1]
   1400033af:	88 85 0f 0a 00 00    	mov    BYTE PTR [rbp+0xa0f],al
   1400033b5:	eb 17                	jmp    1400033ce <_ZN5rvm647decoder9vm_decodeEj+0x94>
   1400033b7:	83 85 08 0a 00 00 01 	add    DWORD PTR [rbp+0xa08],0x1
   1400033be:	8b 85 08 0a 00 00    	mov    eax,DWORD PTR [rbp+0xa08]
   1400033c4:	48 98                	cdqe
   1400033c6:	48 3d 87 00 00 00    	cmp    rax,0x87
   1400033cc:	76 a4                	jbe    140003372 <_ZN5rvm647decoder9vm_decodeEj+0x38>
   1400033ce:	80 bd 0f 0a 00 00 00 	cmp    BYTE PTR [rbp+0xa0f],0x0
   1400033d5:	75 63                	jne    14000343a <_ZN5rvm647decoder9vm_decodeEj+0x100>
   1400033d7:	48 8b 15 2a cc 00 00 	mov    rdx,QWORD PTR [rip+0xcc2a]        # 140010008 <vmcs>
   1400033de:	48 8b 05 23 cc 00 00 	mov    rax,QWORD PTR [rip+0xcc23]        # 140010008 <vmcs>
   1400033e5:	48 8b 12             	mov    rdx,QWORD PTR [rdx]
   1400033e8:	48 89 90 90 03 80 00 	mov    QWORD PTR [rax+0x800390],rdx
   1400033ef:	48 8b 05 12 cc 00 00 	mov    rax,QWORD PTR [rip+0xcc12]        # 140010008 <vmcs>
   1400033f6:	48 c7 80 98 03 80 00 	mov    QWORD PTR [rax+0x800398],0xb02
   1400033fd:	02 0b 00 00 
   140003401:	48 8b 05 00 cc 00 00 	mov    rax,QWORD PTR [rip+0xcc00]        # 140010008 <vmcs>
   140003408:	48 c7 80 a0 03 80 00 	mov    QWORD PTR [rax+0x8003a0],0x0
   14000340f:	00 00 00 00 
   140003413:	48 8b 05 ee cb 00 00 	mov    rax,QWORD PTR [rip+0xcbee]        # 140010008 <vmcs>
   14000341a:	8b 95 20 0a 00 00    	mov    edx,DWORD PTR [rbp+0xa20]
   140003420:	48 89 90 a8 03 80 00 	mov    QWORD PTR [rax+0x8003a8],rdx
   140003427:	48 8b 05 da cb 00 00 	mov    rax,QWORD PTR [rip+0xcbda]        # 140010008 <vmcs>
   14000342e:	c7 80 b0 03 80 00 01 	mov    DWORD PTR [rax+0x8003b0],0x1
   140003435:	00 00 00 
   140003438:	cc                   	int3
   140003439:	90                   	nop
   14000343a:	0f b6 85 0f 0a 00 00 	movzx  eax,BYTE PTR [rbp+0xa0f]
   140003441:	83 f8 07             	cmp    eax,0x7
   140003444:	0f 87 7b 28 00 00    	ja     140005cc5 <_ZN5rvm647decoder9vm_decodeEj+0x298b>
   14000344a:	89 c0                	mov    eax,eax
   14000344c:	48 8d 14 85 00 00 00 	lea    rdx,[rax*4+0x0]
   140003453:	00 
   140003454:	48 8d 05 6d de 00 00 	lea    rax,[rip+0xde6d]        # 1400112c8 <_ZL8encoding+0x88>
   14000345b:	8b 04 02             	mov    eax,DWORD PTR [rdx+rax*1]
   14000345e:	48 98                	cdqe
   140003460:	48 8d 15 61 de 00 00 	lea    rdx,[rip+0xde61]        # 1400112c8 <_ZL8encoding+0x88>
   140003467:	48 01 d0             	add    rax,rdx
   14000346a:	ff e0                	jmp    rax
   14000346c:	8b 85 20 0a 00 00    	mov    eax,DWORD PTR [rbp+0xa20]
   140003472:	c1 e8 0c             	shr    eax,0xc
   140003475:	83 e0 07             	and    eax,0x7
   140003478:	88 85 06 0a 00 00    	mov    BYTE PTR [rbp+0xa06],al
   14000347e:	8b 85 20 0a 00 00    	mov    eax,DWORD PTR [rbp+0xa20]
   140003484:	c1 e8 0f             	shr    eax,0xf
   140003487:	0f b6 d0             	movzx  edx,al
   14000348a:	48 8b 05 77 cb 00 00 	mov    rax,QWORD PTR [rip+0xcb77]        # 140010008 <vmcs>
   140003491:	83 e2 1f             	and    edx,0x1f
   140003494:	48 89 50 20          	mov    QWORD PTR [rax+0x20],rdx
   140003498:	0f b6 85 07 0a 00 00 	movzx  eax,BYTE PTR [rbp+0xa07]
   14000349f:	83 f8 1b             	cmp    eax,0x1b
   1400034a2:	0f 84 11 04 00 00    	je     1400038b9 <_ZN5rvm647decoder9vm_decodeEj+0x57f>
   1400034a8:	83 f8 1b             	cmp    eax,0x1b
   1400034ab:	0f 8f f8 08 00 00    	jg     140003da9 <_ZN5rvm647decoder9vm_decodeEj+0xa6f>
   1400034b1:	83 f8 03             	cmp    eax,0x3
   1400034b4:	0f 84 e6 05 00 00    	je     140003aa0 <_ZN5rvm647decoder9vm_decodeEj+0x766>
   1400034ba:	83 f8 13             	cmp    eax,0x13
   1400034bd:	0f 85 e6 08 00 00    	jne    140003da9 <_ZN5rvm647decoder9vm_decodeEj+0xa6f>
   1400034c3:	0f b6 85 06 0a 00 00 	movzx  eax,BYTE PTR [rbp+0xa06]
   1400034ca:	83 f8 07             	cmp    eax,0x7
   1400034cd:	0f 87 e6 03 00 00    	ja     1400038b9 <_ZN5rvm647decoder9vm_decodeEj+0x57f>
   1400034d3:	89 c0                	mov    eax,eax
   1400034d5:	48 8d 14 85 00 00 00 	lea    rdx,[rax*4+0x0]
   1400034dc:	00 
   1400034dd:	48 8d 05 04 de 00 00 	lea    rax,[rip+0xde04]        # 1400112e8 <_ZL8encoding+0xa8>
   1400034e4:	8b 04 02             	mov    eax,DWORD PTR [rdx+rax*1]
   1400034e7:	48 98                	cdqe
   1400034e9:	48 8d 15 f8 dd 00 00 	lea    rdx,[rip+0xddf8]        # 1400112e8 <_ZL8encoding+0xa8>
   1400034f0:	48 01 d0             	add    rax,rdx
   1400034f3:	ff e0                	jmp    rax
   1400034f5:	8b 85 20 0a 00 00    	mov    eax,DWORD PTR [rbp+0xa20]
   1400034fb:	89 c1                	mov    ecx,eax
   1400034fd:	e8 7e 9f 00 00       	call   14000d480 <_Z5imm_ij>
   140003502:	89 c2                	mov    edx,eax
   140003504:	48 8b 05 fd ca 00 00 	mov    rax,QWORD PTR [rip+0xcafd]        # 140010008 <vmcs>
   14000350b:	48 63 d2             	movsxd rdx,edx
   14000350e:	48 89 50 38          	mov    QWORD PTR [rax+0x38],rdx
   140003512:	48 8b 05 ef ca 00 00 	mov    rax,QWORD PTR [rip+0xcaef]        # 140010008 <vmcs>
   140003519:	48 8b 40 08          	mov    rax,QWORD PTR [rax+0x8]
   14000351d:	48 8b 00             	mov    rax,QWORD PTR [rax]
   140003520:	48 89 85 30 09 00 00 	mov    QWORD PTR [rbp+0x930],rax
   140003527:	48 8b 85 30 09 00 00 	mov    rax,QWORD PTR [rbp+0x930]
   14000352e:	48 89 c1             	mov    rcx,rax
   140003531:	e8 4a df ff ff       	call   140001480 <_ZN5rvm645crypt11decrypt_ptrEy>
   140003536:	48 89 85 28 09 00 00 	mov    QWORD PTR [rbp+0x928],rax
   14000353d:	48 8b 85 28 09 00 00 	mov    rax,QWORD PTR [rbp+0x928]
   140003544:	48 89 85 20 09 00 00 	mov    QWORD PTR [rbp+0x920],rax
   14000354b:	48 8b 85 20 09 00 00 	mov    rax,QWORD PTR [rbp+0x920]
   140003552:	ff d0                	call   rax
   140003554:	e9 60 03 00 00       	jmp    1400038b9 <_ZN5rvm647decoder9vm_decodeEj+0x57f>
   140003559:	8b 85 20 0a 00 00    	mov    eax,DWORD PTR [rbp+0xa20]
   14000355f:	89 c1                	mov    ecx,eax
   140003561:	e8 1a 9f 00 00       	call   14000d480 <_Z5imm_ij>
   140003566:	89 c2                	mov    edx,eax
   140003568:	48 8b 05 99 ca 00 00 	mov    rax,QWORD PTR [rip+0xca99]        # 140010008 <vmcs>
   14000356f:	48 63 d2             	movsxd rdx,edx
   140003572:	48 89 50 38          	mov    QWORD PTR [rax+0x38],rdx
   140003576:	48 8b 05 8b ca 00 00 	mov    rax,QWORD PTR [rip+0xca8b]        # 140010008 <vmcs>
   14000357d:	48 8b 40 08          	mov    rax,QWORD PTR [rax+0x8]
   140003581:	48 83 c0 08          	add    rax,0x8
   140003585:	48 8b 00             	mov    rax,QWORD PTR [rax]
   140003588:	48 89 85 60 09 00 00 	mov    QWORD PTR [rbp+0x960],rax
   14000358f:	48 8b 85 60 09 00 00 	mov    rax,QWORD PTR [rbp+0x960]
   140003596:	48 89 c1             	mov    rcx,rax
   140003599:	e8 e2 de ff ff       	call   140001480 <_ZN5rvm645crypt11decrypt_ptrEy>
   14000359e:	48 89 85 58 09 00 00 	mov    QWORD PTR [rbp+0x958],rax
   1400035a5:	48 8b 85 58 09 00 00 	mov    rax,QWORD PTR [rbp+0x958]
   1400035ac:	48 89 85 50 09 00 00 	mov    QWORD PTR [rbp+0x950],rax
   1400035b3:	48 8b 85 50 09 00 00 	mov    rax,QWORD PTR [rbp+0x950]
   1400035ba:	ff d0                	call   rax
   1400035bc:	e9 f8 02 00 00       	jmp    1400038b9 <_ZN5rvm647decoder9vm_decodeEj+0x57f>
   1400035c1:	8b 85 20 0a 00 00    	mov    eax,DWORD PTR [rbp+0xa20]
   1400035c7:	89 c1                	mov    ecx,eax
   1400035c9:	e8 b2 9e 00 00       	call   14000d480 <_Z5imm_ij>
   1400035ce:	89 c2                	mov    edx,eax
   1400035d0:	48 8b 05 31 ca 00 00 	mov    rax,QWORD PTR [rip+0xca31]        # 140010008 <vmcs>
   1400035d7:	48 63 d2             	movsxd rdx,edx
   1400035da:	48 89 50 38          	mov    QWORD PTR [rax+0x38],rdx
   1400035de:	48 8b 05 23 ca 00 00 	mov    rax,QWORD PTR [rip+0xca23]        # 140010008 <vmcs>
   1400035e5:	48 8b 40 08          	mov    rax,QWORD PTR [rax+0x8]
   1400035e9:	48 83 c0 10          	add    rax,0x10
   1400035ed:	48 8b 00             	mov    rax,QWORD PTR [rax]
   1400035f0:	48 89 85 78 09 00 00 	mov    QWORD PTR [rbp+0x978],rax
   1400035f7:	48 8b 85 78 09 00 00 	mov    rax,QWORD PTR [rbp+0x978]
   1400035fe:	48 89 c1             	mov    rcx,rax
   140003601:	e8 7a de ff ff       	call   140001480 <_ZN5rvm645crypt11decrypt_ptrEy>
   140003606:	48 89 85 70 09 00 00 	mov    QWORD PTR [rbp+0x970],rax
   14000360d:	48 8b 85 70 09 00 00 	mov    rax,QWORD PTR [rbp+0x970]
   140003614:	48 89 85 68 09 00 00 	mov    QWORD PTR [rbp+0x968],rax
   14000361b:	48 8b 85 68 09 00 00 	mov    rax,QWORD PTR [rbp+0x968]
   140003622:	ff d0                	call   rax
   140003624:	e9 90 02 00 00       	jmp    1400038b9 <_ZN5rvm647decoder9vm_decodeEj+0x57f>
   140003629:	8b 85 20 0a 00 00    	mov    eax,DWORD PTR [rbp+0xa20]
   14000362f:	89 c1                	mov    ecx,eax
   140003631:	e8 4a 9e 00 00       	call   14000d480 <_Z5imm_ij>
   140003636:	89 c2                	mov    edx,eax
   140003638:	48 8b 05 c9 c9 00 00 	mov    rax,QWORD PTR [rip+0xc9c9]        # 140010008 <vmcs>
   14000363f:	48 63 d2             	movsxd rdx,edx
   140003642:	48 89 50 38          	mov    QWORD PTR [rax+0x38],rdx
   140003646:	48 8b 05 bb c9 00 00 	mov    rax,QWORD PTR [rip+0xc9bb]        # 140010008 <vmcs>
   14000364d:	48 8b 40 08          	mov    rax,QWORD PTR [rax+0x8]
   140003651:	48 83 c0 18          	add    rax,0x18
   140003655:	48 8b 00             	mov    rax,QWORD PTR [rax]
   140003658:	48 89 85 90 09 00 00 	mov    QWORD PTR [rbp+0x990],rax
   14000365f:	48 8b 85 90 09 00 00 	mov    rax,QWORD PTR [rbp+0x990]
   140003666:	48 89 c1             	mov    rcx,rax
   140003669:	e8 12 de ff ff       	call   140001480 <_ZN5rvm645crypt11decrypt_ptrEy>
   14000366e:	48 89 85 88 09 00 00 	mov    QWORD PTR [rbp+0x988],rax
   140003675:	48 8b 85 88 09 00 00 	mov    rax,QWORD PTR [rbp+0x988]
   14000367c:	48 89 85 80 09 00 00 	mov    QWORD PTR [rbp+0x980],rax
   140003683:	48 8b 85 80 09 00 00 	mov    rax,QWORD PTR [rbp+0x980]
   14000368a:	ff d0                	call   rax
   14000368c:	e9 28 02 00 00       	jmp    1400038b9 <_ZN5rvm647decoder9vm_decodeEj+0x57f>
   140003691:	8b 85 20 0a 00 00    	mov    eax,DWORD PTR [rbp+0xa20]
   140003697:	89 c1                	mov    ecx,eax
   140003699:	e8 e2 9d 00 00       	call   14000d480 <_Z5imm_ij>
   14000369e:	89 c2                	mov    edx,eax
   1400036a0:	48 8b 05 61 c9 00 00 	mov    rax,QWORD PTR [rip+0xc961]        # 140010008 <vmcs>
   1400036a7:	48 63 d2             	movsxd rdx,edx
   1400036aa:	48 89 50 38          	mov    QWORD PTR [rax+0x38],rdx
   1400036ae:	48 8b 05 53 c9 00 00 	mov    rax,QWORD PTR [rip+0xc953]        # 140010008 <vmcs>
   1400036b5:	48 8b 40 08          	mov    rax,QWORD PTR [rax+0x8]
   1400036b9:	48 83 c0 20          	add    rax,0x20
   1400036bd:	48 8b 00             	mov    rax,QWORD PTR [rax]
   1400036c0:	48 89 85 e0 09 00 00 	mov    QWORD PTR [rbp+0x9e0],rax
   1400036c7:	48 8b 85 e0 09 00 00 	mov    rax,QWORD PTR [rbp+0x9e0]
   1400036ce:	48 89 c1             	mov    rcx,rax
   1400036d1:	e8 aa dd ff ff       	call   140001480 <_ZN5rvm645crypt11decrypt_ptrEy>
   1400036d6:	48 89 85 d8 09 00 00 	mov    QWORD PTR [rbp+0x9d8],rax
   1400036dd:	48 8b 85 d8 09 00 00 	mov    rax,QWORD PTR [rbp+0x9d8]
   1400036e4:	48 89 85 d0 09 00 00 	mov    QWORD PTR [rbp+0x9d0],rax
   1400036eb:	48 8b 85 d0 09 00 00 	mov    rax,QWORD PTR [rbp+0x9d0]
   1400036f2:	ff d0                	call   rax
   1400036f4:	e9 c0 01 00 00       	jmp    1400038b9 <_ZN5rvm647decoder9vm_decodeEj+0x57f>
   1400036f9:	8b 85 20 0a 00 00    	mov    eax,DWORD PTR [rbp+0xa20]
   1400036ff:	89 c1                	mov    ecx,eax
   140003701:	e8 7a 9d 00 00       	call   14000d480 <_Z5imm_ij>
   140003706:	89 c2                	mov    edx,eax
   140003708:	48 8b 05 f9 c8 00 00 	mov    rax,QWORD PTR [rip+0xc8f9]        # 140010008 <vmcs>
   14000370f:	48 63 d2             	movsxd rdx,edx
   140003712:	48 89 50 38          	mov    QWORD PTR [rax+0x38],rdx
   140003716:	48 8b 05 eb c8 00 00 	mov    rax,QWORD PTR [rip+0xc8eb]        # 140010008 <vmcs>
   14000371d:	48 8b 40 08          	mov    rax,QWORD PTR [rax+0x8]
   140003721:	48 83 c0 28          	add    rax,0x28
   140003725:	48 8b 00             	mov    rax,QWORD PTR [rax]
   140003728:	48 89 85 f8 09 00 00 	mov    QWORD PTR [rbp+0x9f8],rax
   14000372f:	48 8b 85 f8 09 00 00 	mov    rax,QWORD PTR [rbp+0x9f8]
   140003736:	48 89 c1             	mov    rcx,rax
   140003739:	e8 42 dd ff ff       	call   140001480 <_ZN5rvm645crypt11decrypt_ptrEy>
   14000373e:	48 89 85 f0 09 00 00 	mov    QWORD PTR [rbp+0x9f0],rax
   140003745:	48 8b 85 f0 09 00 00 	mov    rax,QWORD PTR [rbp+0x9f0]
   14000374c:	48 89 85 e8 09 00 00 	mov    QWORD PTR [rbp+0x9e8],rax
   140003753:	48 8b 85 e8 09 00 00 	mov    rax,QWORD PTR [rbp+0x9e8]
   14000375a:	ff d0                	call   rax
   14000375c:	e9 58 01 00 00       	jmp    1400038b9 <_ZN5rvm647decoder9vm_decodeEj+0x57f>
   140003761:	8b 85 20 0a 00 00    	mov    eax,DWORD PTR [rbp+0xa20]
   140003767:	89 c1                	mov    ecx,eax
   140003769:	e8 02 9e 00 00       	call   14000d570 <_Z7shamt_ij>
   14000376e:	89 c2                	mov    edx,eax
   140003770:	48 8b 05 91 c8 00 00 	mov    rax,QWORD PTR [rip+0xc891]        # 140010008 <vmcs>
   140003777:	0f b6 d2             	movzx  edx,dl
   14000377a:	48 89 50 38          	mov    QWORD PTR [rax+0x38],rdx
   14000377e:	48 8b 05 83 c8 00 00 	mov    rax,QWORD PTR [rip+0xc883]        # 140010008 <vmcs>
   140003785:	48 8b 40 08          	mov    rax,QWORD PTR [rax+0x8]
   140003789:	48 83 c0 30          	add    rax,0x30
   14000378d:	48 8b 00             	mov    rax,QWORD PTR [rax]
   140003790:	48 89 85 48 09 00 00 	mov    QWORD PTR [rbp+0x948],rax
   140003797:	48 8b 85 48 09 00 00 	mov    rax,QWORD PTR [rbp+0x948]
   14000379e:	48 89 c1             	mov    rcx,rax
   1400037a1:	e8 da dc ff ff       	call   140001480 <_ZN5rvm645crypt11decrypt_ptrEy>
   1400037a6:	48 89 85 40 09 00 00 	mov    QWORD PTR [rbp+0x940],rax
   1400037ad:	48 8b 85 40 09 00 00 	mov    rax,QWORD PTR [rbp+0x940]
   1400037b4:	48 89 85 38 09 00 00 	mov    QWORD PTR [rbp+0x938],rax
   1400037bb:	48 8b 85 38 09 00 00 	mov    rax,QWORD PTR [rbp+0x938]
   1400037c2:	ff d0                	call   rax
   1400037c4:	e9 f0 00 00 00       	jmp    1400038b9 <_ZN5rvm647decoder9vm_decodeEj+0x57f>
   1400037c9:	8b 85 20 0a 00 00    	mov    eax,DWORD PTR [rbp+0xa20]
   1400037cf:	c1 e8 18             	shr    eax,0x18
   1400037d2:	83 e0 7f             	and    eax,0x7f
   1400037d5:	88 85 cf 09 00 00    	mov    BYTE PTR [rbp+0x9cf],al
   1400037db:	0f b6 85 cf 09 00 00 	movzx  eax,BYTE PTR [rbp+0x9cf]
   1400037e2:	85 c0                	test   eax,eax
   1400037e4:	74 0a                	je     1400037f0 <_ZN5rvm647decoder9vm_decodeEj+0x4b6>
   1400037e6:	83 f8 20             	cmp    eax,0x20
   1400037e9:	74 6a                	je     140003855 <_ZN5rvm647decoder9vm_decodeEj+0x51b>
   1400037eb:	e9 c9 00 00 00       	jmp    1400038b9 <_ZN5rvm647decoder9vm_decodeEj+0x57f>
   1400037f0:	8b 85 20 0a 00 00    	mov    eax,DWORD PTR [rbp+0xa20]
   1400037f6:	89 c1                	mov    ecx,eax
   1400037f8:	e8 73 9d 00 00       	call   14000d570 <_Z7shamt_ij>
   1400037fd:	89 c2                	mov    edx,eax
   1400037ff:	48 8b 05 02 c8 00 00 	mov    rax,QWORD PTR [rip+0xc802]        # 140010008 <vmcs>
   140003806:	0f b6 d2             	movzx  edx,dl
   140003809:	48 89 50 38          	mov    QWORD PTR [rax+0x38],rdx
   14000380d:	48 8b 05 f4 c7 00 00 	mov    rax,QWORD PTR [rip+0xc7f4]        # 140010008 <vmcs>
   140003814:	48 8b 40 08          	mov    rax,QWORD PTR [rax+0x8]
   140003818:	48 83 c0 38          	add    rax,0x38
   14000381c:	48 8b 00             	mov    rax,QWORD PTR [rax]
   14000381f:	48 89 85 a8 09 00 00 	mov    QWORD PTR [rbp+0x9a8],rax
   140003826:	48 8b 85 a8 09 00 00 	mov    rax,QWORD PTR [rbp+0x9a8]
   14000382d:	48 89 c1             	mov    rcx,rax
   140003830:	e8 4b dc ff ff       	call   140001480 <_ZN5rvm645crypt11decrypt_ptrEy>
   140003835:	48 89 85 a0 09 00 00 	mov    QWORD PTR [rbp+0x9a0],rax
   14000383c:	48 8b 85 a0 09 00 00 	mov    rax,QWORD PTR [rbp+0x9a0]
   140003843:	48 89 85 98 09 00 00 	mov    QWORD PTR [rbp+0x998],rax
   14000384a:	48 8b 85 98 09 00 00 	mov    rax,QWORD PTR [rbp+0x998]
   140003851:	ff d0                	call   rax
   140003853:	eb 64                	jmp    1400038b9 <_ZN5rvm647decoder9vm_decodeEj+0x57f>
   140003855:	8b 85 20 0a 00 00    	mov    eax,DWORD PTR [rbp+0xa20]
   14000385b:	89 c1                	mov    ecx,eax
   14000385d:	e8 0e 9d 00 00       	call   14000d570 <_Z7shamt_ij>
   140003862:	89 c2                	mov    edx,eax
   140003864:	48 8b 05 9d c7 00 00 	mov    rax,QWORD PTR [rip+0xc79d]        # 140010008 <vmcs>
   14000386b:	0f b6 d2             	movzx  edx,dl
   14000386e:	48 89 50 38          	mov    QWORD PTR [rax+0x38],rdx
   140003872:	48 8b 05 8f c7 00 00 	mov    rax,QWORD PTR [rip+0xc78f]        # 140010008 <vmcs>
   140003879:	48 8b 40 08          	mov    rax,QWORD PTR [rax+0x8]
   14000387d:	48 83 c0 40          	add    rax,0x40
   140003881:	48 8b 00             	mov    rax,QWORD PTR [rax]
   140003884:	48 89 85 c0 09 00 00 	mov    QWORD PTR [rbp+0x9c0],rax
   14000388b:	48 8b 85 c0 09 00 00 	mov    rax,QWORD PTR [rbp+0x9c0]
   140003892:	48 89 c1             	mov    rcx,rax
   140003895:	e8 e6 db ff ff       	call   140001480 <_ZN5rvm645crypt11decrypt_ptrEy>
   14000389a:	48 89 85 b8 09 00 00 	mov    QWORD PTR [rbp+0x9b8],rax
   1400038a1:	48 8b 85 b8 09 00 00 	mov    rax,QWORD PTR [rbp+0x9b8]
   1400038a8:	48 89 85 b0 09 00 00 	mov    QWORD PTR [rbp+0x9b0],rax
   1400038af:	48 8b 85 b0 09 00 00 	mov    rax,QWORD PTR [rbp+0x9b0]
   1400038b6:	ff d0                	call   rax
   1400038b8:	90                   	nop
   1400038b9:	0f b6 85 06 0a 00 00 	movzx  eax,BYTE PTR [rbp+0xa06]
   1400038c0:	83 f8 05             	cmp    eax,0x5
   1400038c3:	0f 84 e7 00 00 00    	je     1400039b0 <_ZN5rvm647decoder9vm_decodeEj+0x676>
   1400038c9:	83 f8 05             	cmp    eax,0x5
   1400038cc:	0f 8f ce 01 00 00    	jg     140003aa0 <_ZN5rvm647decoder9vm_decodeEj+0x766>
   1400038d2:	85 c0                	test   eax,eax
   1400038d4:	74 0a                	je     1400038e0 <_ZN5rvm647decoder9vm_decodeEj+0x5a6>
   1400038d6:	83 f8 01             	cmp    eax,0x1
   1400038d9:	74 6d                	je     140003948 <_ZN5rvm647decoder9vm_decodeEj+0x60e>
   1400038db:	e9 c0 01 00 00       	jmp    140003aa0 <_ZN5rvm647decoder9vm_decodeEj+0x766>
   1400038e0:	8b 85 20 0a 00 00    	mov    eax,DWORD PTR [rbp+0xa20]
   1400038e6:	89 c1                	mov    ecx,eax
   1400038e8:	e8 93 9b 00 00       	call   14000d480 <_Z5imm_ij>
   1400038ed:	89 c2                	mov    edx,eax
   1400038ef:	48 8b 05 12 c7 00 00 	mov    rax,QWORD PTR [rip+0xc712]        # 140010008 <vmcs>
   1400038f6:	48 63 d2             	movsxd rdx,edx
   1400038f9:	48 89 50 38          	mov    QWORD PTR [rax+0x38],rdx
   1400038fd:	48 8b 05 04 c7 00 00 	mov    rax,QWORD PTR [rip+0xc704]        # 140010008 <vmcs>
   140003904:	48 8b 40 08          	mov    rax,QWORD PTR [rax+0x8]
   140003908:	48 83 c0 48          	add    rax,0x48
   14000390c:	48 8b 00             	mov    rax,QWORD PTR [rax]
   14000390f:	48 89 85 c8 08 00 00 	mov    QWORD PTR [rbp+0x8c8],rax
   140003916:	48 8b 85 c8 08 00 00 	mov    rax,QWORD PTR [rbp+0x8c8]
   14000391d:	48 89 c1             	mov    rcx,rax
   140003920:	e8 5b db ff ff       	call   140001480 <_ZN5rvm645crypt11decrypt_ptrEy>
   140003925:	48 89 85 c0 08 00 00 	mov    QWORD PTR [rbp+0x8c0],rax
   14000392c:	48 8b 85 c0 08 00 00 	mov    rax,QWORD PTR [rbp+0x8c0]
   140003933:	48 89 85 b8 08 00 00 	mov    QWORD PTR [rbp+0x8b8],rax
   14000393a:	48 8b 85 b8 08 00 00 	mov    rax,QWORD PTR [rbp+0x8b8]
   140003941:	ff d0                	call   rax
   140003943:	e9 58 01 00 00       	jmp    140003aa0 <_ZN5rvm647decoder9vm_decodeEj+0x766>
   140003948:	8b 85 20 0a 00 00    	mov    eax,DWORD PTR [rbp+0xa20]
   14000394e:	89 c1                	mov    ecx,eax
   140003950:	e8 1b 9c 00 00       	call   14000d570 <_Z7shamt_ij>
   140003955:	89 c2                	mov    edx,eax
   140003957:	48 8b 05 aa c6 00 00 	mov    rax,QWORD PTR [rip+0xc6aa]        # 140010008 <vmcs>
   14000395e:	0f b6 d2             	movzx  edx,dl
   140003961:	48 89 50 38          	mov    QWORD PTR [rax+0x38],rdx
   140003965:	48 8b 05 9c c6 00 00 	mov    rax,QWORD PTR [rip+0xc69c]        # 140010008 <vmcs>
   14000396c:	48 8b 40 08          	mov    rax,QWORD PTR [rax+0x8]
   140003970:	48 83 c0 50          	add    rax,0x50
   140003974:	48 8b 00             	mov    rax,QWORD PTR [rax]
   140003977:	48 89 85 e0 08 00 00 	mov    QWORD PTR [rbp+0x8e0],rax
   14000397e:	48 8b 85 e0 08 00 00 	mov    rax,QWORD PTR [rbp+0x8e0]
   140003985:	48 89 c1             	mov    rcx,rax
   140003988:	e8 f3 da ff ff       	call   140001480 <_ZN5rvm645crypt11decrypt_ptrEy>
   14000398d:	48 89 85 d8 08 00 00 	mov    QWORD PTR [rbp+0x8d8],rax
   140003994:	48 8b 85 d8 08 00 00 	mov    rax,QWORD PTR [rbp+0x8d8]
   14000399b:	48 89 85 d0 08 00 00 	mov    QWORD PTR [rbp+0x8d0],rax
   1400039a2:	48 8b 85 d0 08 00 00 	mov    rax,QWORD PTR [rbp+0x8d0]
   1400039a9:	ff d0                	call   rax
   1400039ab:	e9 f0 00 00 00       	jmp    140003aa0 <_ZN5rvm647decoder9vm_decodeEj+0x766>
   1400039b0:	8b 85 20 0a 00 00    	mov    eax,DWORD PTR [rbp+0xa20]
   1400039b6:	c1 e8 18             	shr    eax,0x18
   1400039b9:	83 e0 7f             	and    eax,0x7f
   1400039bc:	88 85 1f 09 00 00    	mov    BYTE PTR [rbp+0x91f],al
   1400039c2:	0f b6 85 1f 09 00 00 	movzx  eax,BYTE PTR [rbp+0x91f]
   1400039c9:	85 c0                	test   eax,eax
   1400039cb:	74 0a                	je     1400039d7 <_ZN5rvm647decoder9vm_decodeEj+0x69d>
   1400039cd:	83 f8 20             	cmp    eax,0x20
   1400039d0:	74 6a                	je     140003a3c <_ZN5rvm647decoder9vm_decodeEj+0x702>
   1400039d2:	e9 c9 00 00 00       	jmp    140003aa0 <_ZN5rvm647decoder9vm_decodeEj+0x766>
   1400039d7:	8b 85 20 0a 00 00    	mov    eax,DWORD PTR [rbp+0xa20]
   1400039dd:	89 c1                	mov    ecx,eax
   1400039df:	e8 8c 9b 00 00       	call   14000d570 <_Z7shamt_ij>
   1400039e4:	89 c2                	mov    edx,eax
   1400039e6:	48 8b 05 1b c6 00 00 	mov    rax,QWORD PTR [rip+0xc61b]        # 140010008 <vmcs>
   1400039ed:	0f b6 d2             	movzx  edx,dl
   1400039f0:	48 89 50 38          	mov    QWORD PTR [rax+0x38],rdx
   1400039f4:	48 8b 05 0d c6 00 00 	mov    rax,QWORD PTR [rip+0xc60d]        # 140010008 <vmcs>
   1400039fb:	48 8b 40 08          	mov    rax,QWORD PTR [rax+0x8]
   1400039ff:	48 83 c0 58          	add    rax,0x58
   140003a03:	48 8b 00             	mov    rax,QWORD PTR [rax]
   140003a06:	48 89 85 f8 08 00 00 	mov    QWORD PTR [rbp+0x8f8],rax
   140003a0d:	48 8b 85 f8 08 00 00 	mov    rax,QWORD PTR [rbp+0x8f8]
   140003a14:	48 89 c1             	mov    rcx,rax
   140003a17:	e8 64 da ff ff       	call   140001480 <_ZN5rvm645crypt11decrypt_ptrEy>
   140003a1c:	48 89 85 f0 08 00 00 	mov    QWORD PTR [rbp+0x8f0],rax
   140003a23:	48 8b 85 f0 08 00 00 	mov    rax,QWORD PTR [rbp+0x8f0]
   140003a2a:	48 89 85 e8 08 00 00 	mov    QWORD PTR [rbp+0x8e8],rax
   140003a31:	48 8b 85 e8 08 00 00 	mov    rax,QWORD PTR [rbp+0x8e8]
   140003a38:	ff d0                	call   rax
   140003a3a:	eb 64                	jmp    140003aa0 <_ZN5rvm647decoder9vm_decodeEj+0x766>
   140003a3c:	8b 85 20 0a 00 00    	mov    eax,DWORD PTR [rbp+0xa20]
   140003a42:	89 c1                	mov    ecx,eax
   140003a44:	e8 27 9b 00 00       	call   14000d570 <_Z7shamt_ij>
   140003a49:	89 c2                	mov    edx,eax
   140003a4b:	48 8b 05 b6 c5 00 00 	mov    rax,QWORD PTR [rip+0xc5b6]        # 140010008 <vmcs>
   140003a52:	0f b6 d2             	movzx  edx,dl
   140003a55:	48 89 50 38          	mov    QWORD PTR [rax+0x38],rdx
   140003a59:	48 8b 05 a8 c5 00 00 	mov    rax,QWORD PTR [rip+0xc5a8]        # 140010008 <vmcs>
   140003a60:	48 8b 40 08          	mov    rax,QWORD PTR [rax+0x8]
   140003a64:	48 83 c0 60          	add    rax,0x60
   140003a68:	48 8b 00             	mov    rax,QWORD PTR [rax]
   140003a6b:	48 89 85 10 09 00 00 	mov    QWORD PTR [rbp+0x910],rax
   140003a72:	48 8b 85 10 09 00 00 	mov    rax,QWORD PTR [rbp+0x910]
   140003a79:	48 89 c1             	mov    rcx,rax
   140003a7c:	e8 ff d9 ff ff       	call   140001480 <_ZN5rvm645crypt11decrypt_ptrEy>
   140003a81:	48 89 85 08 09 00 00 	mov    QWORD PTR [rbp+0x908],rax
   140003a88:	48 8b 85 08 09 00 00 	mov    rax,QWORD PTR [rbp+0x908]
   140003a8f:	48 89 85 00 09 00 00 	mov    QWORD PTR [rbp+0x900],rax
   140003a96:	48 8b 85 00 09 00 00 	mov    rax,QWORD PTR [rbp+0x900]
   140003a9d:	ff d0                	call   rax
   140003a9f:	90                   	nop
   140003aa0:	0f b6 85 06 0a 00 00 	movzx  eax,BYTE PTR [rbp+0xa06]
   140003aa7:	83 f8 06             	cmp    eax,0x6
   140003aaa:	0f 87 f9 02 00 00    	ja     140003da9 <_ZN5rvm647decoder9vm_decodeEj+0xa6f>
   140003ab0:	89 c0                	mov    eax,eax
   140003ab2:	48 8d 14 85 00 00 00 	lea    rdx,[rax*4+0x0]
   140003ab9:	00 
   140003aba:	48 8d 05 47 d8 00 00 	lea    rax,[rip+0xd847]        # 140011308 <_ZL8encoding+0xc8>
   140003ac1:	8b 04 02             	mov    eax,DWORD PTR [rdx+rax*1]
   140003ac4:	48 98                	cdqe
   140003ac6:	48 8d 15 3b d8 00 00 	lea    rdx,[rip+0xd83b]        # 140011308 <_ZL8encoding+0xc8>
   140003acd:	48 01 d0             	add    rax,rdx
   140003ad0:	ff e0                	jmp    rax
   140003ad2:	8b 85 20 0a 00 00    	mov    eax,DWORD PTR [rbp+0xa20]
   140003ad8:	89 c1                	mov    ecx,eax
   140003ada:	e8 a1 99 00 00       	call   14000d480 <_Z5imm_ij>
   140003adf:	89 c2                	mov    edx,eax
   140003ae1:	48 8b 05 20 c5 00 00 	mov    rax,QWORD PTR [rip+0xc520]        # 140010008 <vmcs>
   140003ae8:	48 63 d2             	movsxd rdx,edx
   140003aeb:	48 89 50 38          	mov    QWORD PTR [rax+0x38],rdx
   140003aef:	48 8b 05 12 c5 00 00 	mov    rax,QWORD PTR [rip+0xc512]        # 140010008 <vmcs>
   140003af6:	48 8b 40 08          	mov    rax,QWORD PTR [rax+0x8]
   140003afa:	48 83 c0 68          	add    rax,0x68
   140003afe:	48 8b 00             	mov    rax,QWORD PTR [rax]
   140003b01:	48 89 85 20 08 00 00 	mov    QWORD PTR [rbp+0x820],rax
   140003b08:	48 8b 85 20 08 00 00 	mov    rax,QWORD PTR [rbp+0x820]
   140003b0f:	48 89 c1             	mov    rcx,rax
   140003b12:	e8 69 d9 ff ff       	call   140001480 <_ZN5rvm645crypt11decrypt_ptrEy>
   140003b17:	48 89 85 18 08 00 00 	mov    QWORD PTR [rbp+0x818],rax
   140003b1e:	48 8b 85 18 08 00 00 	mov    rax,QWORD PTR [rbp+0x818]
   140003b25:	48 89 85 10 08 00 00 	mov    QWORD PTR [rbp+0x810],rax
   140003b2c:	48 8b 85 10 08 00 00 	mov    rax,QWORD PTR [rbp+0x810]
   140003b33:	ff d0                	call   rax
   140003b35:	e9 6f 02 00 00       	jmp    140003da9 <_ZN5rvm647decoder9vm_decodeEj+0xa6f>
   140003b3a:	8b 85 20 0a 00 00    	mov    eax,DWORD PTR [rbp+0xa20]
   140003b40:	89 c1                	mov    ecx,eax
   140003b42:	e8 39 99 00 00       	call   14000d480 <_Z5imm_ij>
   140003b47:	89 c2                	mov    edx,eax
   140003b49:	48 8b 05 b8 c4 00 00 	mov    rax,QWORD PTR [rip+0xc4b8]        # 140010008 <vmcs>
   140003b50:	48 63 d2             	movsxd rdx,edx
   140003b53:	48 89 50 38          	mov    QWORD PTR [rax+0x38],rdx
   140003b57:	48 8b 05 aa c4 00 00 	mov    rax,QWORD PTR [rip+0xc4aa]        # 140010008 <vmcs>
   140003b5e:	48 8b 40 08          	mov    rax,QWORD PTR [rax+0x8]
   140003b62:	48 83 c0 70          	add    rax,0x70
   140003b66:	48 8b 00             	mov    rax,QWORD PTR [rax]
   140003b69:	48 89 85 38 08 00 00 	mov    QWORD PTR [rbp+0x838],rax
   140003b70:	48 8b 85 38 08 00 00 	mov    rax,QWORD PTR [rbp+0x838]
   140003b77:	48 89 c1             	mov    rcx,rax
   140003b7a:	e8 01 d9 ff ff       	call   140001480 <_ZN5rvm645crypt11decrypt_ptrEy>
   140003b7f:	48 89 85 30 08 00 00 	mov    QWORD PTR [rbp+0x830],rax
   140003b86:	48 8b 85 30 08 00 00 	mov    rax,QWORD PTR [rbp+0x830]
   140003b8d:	48 89 85 28 08 00 00 	mov    QWORD PTR [rbp+0x828],rax
   140003b94:	48 8b 85 28 08 00 00 	mov    rax,QWORD PTR [rbp+0x828]
   140003b9b:	ff d0                	call   rax
   140003b9d:	e9 07 02 00 00       	jmp    140003da9 <_ZN5rvm647decoder9vm_decodeEj+0xa6f>
   140003ba2:	8b 85 20 0a 00 00    	mov    eax,DWORD PTR [rbp+0xa20]
   140003ba8:	89 c1                	mov    ecx,eax
   140003baa:	e8 d1 98 00 00       	call   14000d480 <_Z5imm_ij>
   140003baf:	89 c2                	mov    edx,eax
   140003bb1:	48 8b 05 50 c4 00 00 	mov    rax,QWORD PTR [rip+0xc450]        # 140010008 <vmcs>
   140003bb8:	48 63 d2             	movsxd rdx,edx
   140003bbb:	48 89 50 38          	mov    QWORD PTR [rax+0x38],rdx
   140003bbf:	48 8b 05 42 c4 00 00 	mov    rax,QWORD PTR [rip+0xc442]        # 140010008 <vmcs>
   140003bc6:	48 8b 40 08          	mov    rax,QWORD PTR [rax+0x8]
   140003bca:	48 83 c0 78          	add    rax,0x78
   140003bce:	48 8b 00             	mov    rax,QWORD PTR [rax]
   140003bd1:	48 89 85 50 08 00 00 	mov    QWORD PTR [rbp+0x850],rax
   140003bd8:	48 8b 85 50 08 00 00 	mov    rax,QWORD PTR [rbp+0x850]
   140003bdf:	48 89 c1             	mov    rcx,rax
   140003be2:	e8 99 d8 ff ff       	call   140001480 <_ZN5rvm645crypt11decrypt_ptrEy>
   140003be7:	48 89 85 48 08 00 00 	mov    QWORD PTR [rbp+0x848],rax
   140003bee:	48 8b 85 48 08 00 00 	mov    rax,QWORD PTR [rbp+0x848]
   140003bf5:	48 89 85 40 08 00 00 	mov    QWORD PTR [rbp+0x840],rax
   140003bfc:	48 8b 85 40 08 00 00 	mov    rax,QWORD PTR [rbp+0x840]
   140003c03:	ff d0                	call   rax
   140003c05:	e9 9f 01 00 00       	jmp    140003da9 <_ZN5rvm647decoder9vm_decodeEj+0xa6f>
   140003c0a:	8b 85 20 0a 00 00    	mov    eax,DWORD PTR [rbp+0xa20]
   140003c10:	89 c1                	mov    ecx,eax
   140003c12:	e8 69 98 00 00       	call   14000d480 <_Z5imm_ij>
   140003c17:	89 c2                	mov    edx,eax
   140003c19:	48 8b 05 e8 c3 00 00 	mov    rax,QWORD PTR [rip+0xc3e8]        # 140010008 <vmcs>
   140003c20:	48 63 d2             	movsxd rdx,edx
   140003c23:	48 89 50 38          	mov    QWORD PTR [rax+0x38],rdx
   140003c27:	48 8b 05 da c3 00 00 	mov    rax,QWORD PTR [rip+0xc3da]        # 140010008 <vmcs>
   140003c2e:	48 8b 40 08          	mov    rax,QWORD PTR [rax+0x8]
   140003c32:	48 83 e8 80          	sub    rax,0xffffffffffffff80
   140003c36:	48 8b 00             	mov    rax,QWORD PTR [rax]
   140003c39:	48 89 85 80 08 00 00 	mov    QWORD PTR [rbp+0x880],rax
   140003c40:	48 8b 85 80 08 00 00 	mov    rax,QWORD PTR [rbp+0x880]
   140003c47:	48 89 c1             	mov    rcx,rax
   140003c4a:	e8 31 d8 ff ff       	call   140001480 <_ZN5rvm645crypt11decrypt_ptrEy>
   140003c4f:	48 89 85 78 08 00 00 	mov    QWORD PTR [rbp+0x878],rax
   140003c56:	48 8b 85 78 08 00 00 	mov    rax,QWORD PTR [rbp+0x878]
   140003c5d:	48 89 85 70 08 00 00 	mov    QWORD PTR [rbp+0x870],rax
   140003c64:	48 8b 85 70 08 00 00 	mov    rax,QWORD PTR [rbp+0x870]
   140003c6b:	ff d0                	call   rax
   140003c6d:	e9 37 01 00 00       	jmp    140003da9 <_ZN5rvm647decoder9vm_decodeEj+0xa6f>
   140003c72:	8b 85 20 0a 00 00    	mov    eax,DWORD PTR [rbp+0xa20]
   140003c78:	89 c1                	mov    ecx,eax
   140003c7a:	e8 01 98 00 00       	call   14000d480 <_Z5imm_ij>
   140003c7f:	89 c2                	mov    edx,eax
   140003c81:	48 8b 05 80 c3 00 00 	mov    rax,QWORD PTR [rip+0xc380]        # 140010008 <vmcs>
   140003c88:	48 63 d2             	movsxd rdx,edx
   140003c8b:	48 89 50 38          	mov    QWORD PTR [rax+0x38],rdx
   140003c8f:	48 8b 05 72 c3 00 00 	mov    rax,QWORD PTR [rip+0xc372]        # 140010008 <vmcs>
   140003c96:	48 8b 40 08          	mov    rax,QWORD PTR [rax+0x8]
   140003c9a:	48 05 88 00 00 00    	add    rax,0x88
   140003ca0:	48 8b 00             	mov    rax,QWORD PTR [rax]
   140003ca3:	48 89 85 98 08 00 00 	mov    QWORD PTR [rbp+0x898],rax
   140003caa:	48 8b 85 98 08 00 00 	mov    rax,QWORD PTR [rbp+0x898]
   140003cb1:	48 89 c1             	mov    rcx,rax
   140003cb4:	e8 c7 d7 ff ff       	call   140001480 <_ZN5rvm645crypt11decrypt_ptrEy>
   140003cb9:	48 89 85 90 08 00 00 	mov    QWORD PTR [rbp+0x890],rax
   140003cc0:	48 8b 85 90 08 00 00 	mov    rax,QWORD PTR [rbp+0x890]
   140003cc7:	48 89 85 88 08 00 00 	mov    QWORD PTR [rbp+0x888],rax
   140003cce:	48 8b 85 88 08 00 00 	mov    rax,QWORD PTR [rbp+0x888]
   140003cd5:	ff d0                	call   rax
   140003cd7:	e9 cd 00 00 00       	jmp    140003da9 <_ZN5rvm647decoder9vm_decodeEj+0xa6f>
   140003cdc:	8b 85 20 0a 00 00    	mov    eax,DWORD PTR [rbp+0xa20]
   140003ce2:	89 c1                	mov    ecx,eax
   140003ce4:	e8 97 97 00 00       	call   14000d480 <_Z5imm_ij>
   140003ce9:	89 c2                	mov    edx,eax
   140003ceb:	48 8b 05 16 c3 00 00 	mov    rax,QWORD PTR [rip+0xc316]        # 140010008 <vmcs>
   140003cf2:	48 63 d2             	movsxd rdx,edx
   140003cf5:	48 89 50 38          	mov    QWORD PTR [rax+0x38],rdx
   140003cf9:	48 8b 05 08 c3 00 00 	mov    rax,QWORD PTR [rip+0xc308]        # 140010008 <vmcs>
   140003d00:	48 8b 40 08          	mov    rax,QWORD PTR [rax+0x8]
   140003d04:	48 05 90 00 00 00    	add    rax,0x90
   140003d0a:	48 8b 00             	mov    rax,QWORD PTR [rax]
   140003d0d:	48 89 85 b0 08 00 00 	mov    QWORD PTR [rbp+0x8b0],rax
   140003d14:	48 8b 85 b0 08 00 00 	mov    rax,QWORD PTR [rbp+0x8b0]
   140003d1b:	48 89 c1             	mov    rcx,rax
   140003d1e:	e8 5d d7 ff ff       	call   140001480 <_ZN5rvm645crypt11decrypt_ptrEy>
   140003d23:	48 89 85 a8 08 00 00 	mov    QWORD PTR [rbp+0x8a8],rax
   140003d2a:	48 8b 85 a8 08 00 00 	mov    rax,QWORD PTR [rbp+0x8a8]
   140003d31:	48 89 85 a0 08 00 00 	mov    QWORD PTR [rbp+0x8a0],rax
   140003d38:	48 8b 85 a0 08 00 00 	mov    rax,QWORD PTR [rbp+0x8a0]
   140003d3f:	ff d0                	call   rax
   140003d41:	eb 66                	jmp    140003da9 <_ZN5rvm647decoder9vm_decodeEj+0xa6f>
   140003d43:	8b 85 20 0a 00 00    	mov    eax,DWORD PTR [rbp+0xa20]
   140003d49:	89 c1                	mov    ecx,eax
   140003d4b:	e8 30 97 00 00       	call   14000d480 <_Z5imm_ij>
   140003d50:	89 c2                	mov    edx,eax
   140003d52:	48 8b 05 af c2 00 00 	mov    rax,QWORD PTR [rip+0xc2af]        # 140010008 <vmcs>
   140003d59:	48 63 d2             	movsxd rdx,edx
   140003d5c:	48 89 50 38          	mov    QWORD PTR [rax+0x38],rdx
   140003d60:	48 8b 05 a1 c2 00 00 	mov    rax,QWORD PTR [rip+0xc2a1]        # 140010008 <vmcs>
   140003d67:	48 8b 40 08          	mov    rax,QWORD PTR [rax+0x8]
   140003d6b:	48 05 98 00 00 00    	add    rax,0x98
   140003d71:	48 8b 00             	mov    rax,QWORD PTR [rax]
   140003d74:	48 89 85 68 08 00 00 	mov    QWORD PTR [rbp+0x868],rax
   140003d7b:	48 8b 85 68 08 00 00 	mov    rax,QWORD PTR [rbp+0x868]
   140003d82:	48 89 c1             	mov    rcx,rax
   140003d85:	e8 f6 d6 ff ff       	call   140001480 <_ZN5rvm645crypt11decrypt_ptrEy>
   140003d8a:	48 89 85 60 08 00 00 	mov    QWORD PTR [rbp+0x860],rax
   140003d91:	48 8b 85 60 08 00 00 	mov    rax,QWORD PTR [rbp+0x860]
   140003d98:	48 89 85 58 08 00 00 	mov    QWORD PTR [rbp+0x858],rax
   140003d9f:	48 8b 85 58 08 00 00 	mov    rax,QWORD PTR [rbp+0x858]
   140003da6:	ff d0                	call   rax
   140003da8:	90                   	nop
   140003da9:	8b 85 20 0a 00 00    	mov    eax,DWORD PTR [rbp+0xa20]
   140003daf:	c1 e8 14             	shr    eax,0x14
   140003db2:	0f b6 d0             	movzx  edx,al
   140003db5:	48 8b 05 4c c2 00 00 	mov    rax,QWORD PTR [rip+0xc24c]        # 140010008 <vmcs>
   140003dbc:	83 e2 1f             	and    edx,0x1f
   140003dbf:	48 89 50 28          	mov    QWORD PTR [rax+0x28],rdx
   140003dc3:	8b 85 20 0a 00 00    	mov    eax,DWORD PTR [rbp+0xa20]
   140003dc9:	c1 e8 0f             	shr    eax,0xf
   140003dcc:	0f b6 d0             	movzx  edx,al
   140003dcf:	48 8b 05 32 c2 00 00 	mov    rax,QWORD PTR [rip+0xc232]        # 140010008 <vmcs>
   140003dd6:	83 e2 1f             	and    edx,0x1f
   140003dd9:	48 89 50 20          	mov    QWORD PTR [rax+0x20],rdx
   140003ddd:	8b 85 20 0a 00 00    	mov    eax,DWORD PTR [rbp+0xa20]
   140003de3:	c1 e8 07             	shr    eax,0x7
   140003de6:	0f b6 d0             	movzx  edx,al
   140003de9:	48 8b 05 18 c2 00 00 	mov    rax,QWORD PTR [rip+0xc218]        # 140010008 <vmcs>
   140003df0:	83 e2 1f             	and    edx,0x1f
   140003df3:	48 89 50 18          	mov    QWORD PTR [rax+0x18],rdx
   140003df7:	0f b6 85 07 0a 00 00 	movzx  eax,BYTE PTR [rbp+0xa07]
   140003dfe:	83 f8 53             	cmp    eax,0x53
   140003e01:	74 32                	je     140003e35 <_ZN5rvm647decoder9vm_decodeEj+0xafb>
   140003e03:	83 f8 53             	cmp    eax,0x53
   140003e06:	0f 8f 0f 19 00 00    	jg     14000571b <_ZN5rvm647decoder9vm_decodeEj+0x23e1>
   140003e0c:	83 f8 3b             	cmp    eax,0x3b
   140003e0f:	0f 84 21 0f 00 00    	je     140004d36 <_ZN5rvm647decoder9vm_decodeEj+0x19fc>
   140003e15:	83 f8 3b             	cmp    eax,0x3b
   140003e18:	0f 8f fd 18 00 00    	jg     14000571b <_ZN5rvm647decoder9vm_decodeEj+0x23e1>
   140003e1e:	83 f8 2f             	cmp    eax,0x2f
   140003e21:	0f 84 ca 07 00 00    	je     1400045f1 <_ZN5rvm647decoder9vm_decodeEj+0x12b7>
   140003e27:	83 f8 33             	cmp    eax,0x33
   140003e2a:	0f 84 97 12 00 00    	je     1400050c7 <_ZN5rvm647decoder9vm_decodeEj+0x1d8d>
   140003e30:	e9 e6 18 00 00       	jmp    14000571b <_ZN5rvm647decoder9vm_decodeEj+0x23e1>
   140003e35:	8b 85 20 0a 00 00    	mov    eax,DWORD PTR [rbp+0xa20]
   140003e3b:	c1 e8 18             	shr    eax,0x18
   140003e3e:	83 e0 7f             	and    eax,0x7f
   140003e41:	88 85 0f 08 00 00    	mov    BYTE PTR [rbp+0x80f],al
   140003e47:	0f b6 85 0f 08 00 00 	movzx  eax,BYTE PTR [rbp+0x80f]
   140003e4e:	83 f8 79             	cmp    eax,0x79
   140003e51:	0f 84 b9 01 00 00    	je     140004010 <_ZN5rvm647decoder9vm_decodeEj+0xcd6>
   140003e57:	83 f8 79             	cmp    eax,0x79
   140003e5a:	0f 8f 91 07 00 00    	jg     1400045f1 <_ZN5rvm647decoder9vm_decodeEj+0x12b7>
   140003e60:	83 f8 71             	cmp    eax,0x71
   140003e63:	0f 84 21 07 00 00    	je     14000458a <_ZN5rvm647decoder9vm_decodeEj+0x1250>
   140003e69:	83 f8 71             	cmp    eax,0x71
   140003e6c:	0f 8f 7f 07 00 00    	jg     1400045f1 <_ZN5rvm647decoder9vm_decodeEj+0x12b7>
   140003e72:	83 f8 69             	cmp    eax,0x69
   140003e75:	0f 84 69 03 00 00    	je     1400041e4 <_ZN5rvm647decoder9vm_decodeEj+0xeaa>
   140003e7b:	83 f8 69             	cmp    eax,0x69
   140003e7e:	0f 8f 6d 07 00 00    	jg     1400045f1 <_ZN5rvm647decoder9vm_decodeEj+0x12b7>
   140003e84:	83 f8 61             	cmp    eax,0x61
   140003e87:	0f 84 9d 02 00 00    	je     14000412a <_ZN5rvm647decoder9vm_decodeEj+0xdf0>
   140003e8d:	83 f8 61             	cmp    eax,0x61
   140003e90:	0f 8f 5b 07 00 00    	jg     1400045f1 <_ZN5rvm647decoder9vm_decodeEj+0x12b7>
   140003e96:	83 f8 21             	cmp    eax,0x21
   140003e99:	7f 33                	jg     140003ece <_ZN5rvm647decoder9vm_decodeEj+0xb94>
   140003e9b:	85 c0                	test   eax,eax
   140003e9d:	0f 8e 4e 07 00 00    	jle    1400045f1 <_ZN5rvm647decoder9vm_decodeEj+0x12b7>
   140003ea3:	83 f8 21             	cmp    eax,0x21
   140003ea6:	0f 87 45 07 00 00    	ja     1400045f1 <_ZN5rvm647decoder9vm_decodeEj+0x12b7>
   140003eac:	89 c0                	mov    eax,eax
   140003eae:	48 8d 14 85 00 00 00 	lea    rdx,[rax*4+0x0]
   140003eb5:	00 
   140003eb6:	48 8d 05 67 d4 00 00 	lea    rax,[rip+0xd467]        # 140011324 <_ZL8encoding+0xe4>
   140003ebd:	8b 04 02             	mov    eax,DWORD PTR [rdx+rax*1]
   140003ec0:	48 98                	cdqe
   140003ec2:	48 8d 15 5b d4 00 00 	lea    rdx,[rip+0xd45b]        # 140011324 <_ZL8encoding+0xe4>
   140003ec9:	48 01 d0             	add    rax,rdx
   140003ecc:	ff e0                	jmp    rax
   140003ece:	83 f8 51             	cmp    eax,0x51
   140003ed1:	0f 84 9a 05 00 00    	je     140004471 <_ZN5rvm647decoder9vm_decodeEj+0x1137>
   140003ed7:	e9 15 07 00 00       	jmp    1400045f1 <_ZN5rvm647decoder9vm_decodeEj+0x12b7>
   140003edc:	48 8b 05 25 c1 00 00 	mov    rax,QWORD PTR [rip+0xc125]        # 140010008 <vmcs>
   140003ee3:	48 8b 40 08          	mov    rax,QWORD PTR [rax+0x8]
   140003ee7:	48 05 50 01 00 00    	add    rax,0x150
   140003eed:	48 8b 00             	mov    rax,QWORD PTR [rax]
   140003ef0:	48 89 85 f8 05 00 00 	mov    QWORD PTR [rbp+0x5f8],rax
   140003ef7:	48 8b 85 f8 05 00 00 	mov    rax,QWORD PTR [rbp+0x5f8]
   140003efe:	48 89 c1             	mov    rcx,rax
   140003f01:	e8 7a d5 ff ff       	call   140001480 <_ZN5rvm645crypt11decrypt_ptrEy>
   140003f06:	48 89 85 f0 05 00 00 	mov    QWORD PTR [rbp+0x5f0],rax
   140003f0d:	48 8b 85 f0 05 00 00 	mov    rax,QWORD PTR [rbp+0x5f0]
   140003f14:	48 89 85 e8 05 00 00 	mov    QWORD PTR [rbp+0x5e8],rax
   140003f1b:	48 8b 85 e8 05 00 00 	mov    rax,QWORD PTR [rbp+0x5e8]
   140003f22:	ff d0                	call   rax
   140003f24:	e9 c8 06 00 00       	jmp    1400045f1 <_ZN5rvm647decoder9vm_decodeEj+0x12b7>
   140003f29:	48 8b 05 d8 c0 00 00 	mov    rax,QWORD PTR [rip+0xc0d8]        # 140010008 <vmcs>
   140003f30:	48 8b 40 08          	mov    rax,QWORD PTR [rax+0x8]
   140003f34:	48 05 58 01 00 00    	add    rax,0x158
   140003f3a:	48 8b 00             	mov    rax,QWORD PTR [rax]
   140003f3d:	48 89 85 10 06 00 00 	mov    QWORD PTR [rbp+0x610],rax
   140003f44:	48 8b 85 10 06 00 00 	mov    rax,QWORD PTR [rbp+0x610]
   140003f4b:	48 89 c1             	mov    rcx,rax
   140003f4e:	e8 2d d5 ff ff       	call   140001480 <_ZN5rvm645crypt11decrypt_ptrEy>
   140003f53:	48 89 85 08 06 00 00 	mov    QWORD PTR [rbp+0x608],rax
   140003f5a:	48 8b 85 08 06 00 00 	mov    rax,QWORD PTR [rbp+0x608]
   140003f61:	48 89 85 00 06 00 00 	mov    QWORD PTR [rbp+0x600],rax
   140003f68:	48 8b 85 00 06 00 00 	mov    rax,QWORD PTR [rbp+0x600]
   140003f6f:	ff d0                	call   rax
   140003f71:	e9 7b 06 00 00       	jmp    1400045f1 <_ZN5rvm647decoder9vm_decodeEj+0x12b7>
   140003f76:	48 8b 05 8b c0 00 00 	mov    rax,QWORD PTR [rip+0xc08b]        # 140010008 <vmcs>
   140003f7d:	48 8b 40 08          	mov    rax,QWORD PTR [rax+0x8]
   140003f81:	48 05 60 01 00 00    	add    rax,0x160
   140003f87:	48 8b 00             	mov    rax,QWORD PTR [rax]
   140003f8a:	48 89 85 28 06 00 00 	mov    QWORD PTR [rbp+0x628],rax
   140003f91:	48 8b 85 28 06 00 00 	mov    rax,QWORD PTR [rbp+0x628]
   140003f98:	48 89 c1             	mov    rcx,rax
   140003f9b:	e8 e0 d4 ff ff       	call   140001480 <_ZN5rvm645crypt11decrypt_ptrEy>
   140003fa0:	48 89 85 20 06 00 00 	mov    QWORD PTR [rbp+0x620],rax
   140003fa7:	48 8b 85 20 06 00 00 	mov    rax,QWORD PTR [rbp+0x620]
   140003fae:	48 89 85 18 06 00 00 	mov    QWORD PTR [rbp+0x618],rax
   140003fb5:	48 8b 85 18 06 00 00 	mov    rax,QWORD PTR [rbp+0x618]
   140003fbc:	ff d0                	call   rax
   140003fbe:	e9 2e 06 00 00       	jmp    1400045f1 <_ZN5rvm647decoder9vm_decodeEj+0x12b7>
   140003fc3:	48 8b 05 3e c0 00 00 	mov    rax,QWORD PTR [rip+0xc03e]        # 140010008 <vmcs>
   140003fca:	48 8b 40 08          	mov    rax,QWORD PTR [rax+0x8]
   140003fce:	48 05 68 01 00 00    	add    rax,0x168
   140003fd4:	48 8b 00             	mov    rax,QWORD PTR [rax]
   140003fd7:	48 89 85 40 06 00 00 	mov    QWORD PTR [rbp+0x640],rax
   140003fde:	48 8b 85 40 06 00 00 	mov    rax,QWORD PTR [rbp+0x640]
   140003fe5:	48 89 c1             	mov    rcx,rax
   140003fe8:	e8 93 d4 ff ff       	call   140001480 <_ZN5rvm645crypt11decrypt_ptrEy>
   140003fed:	48 89 85 38 06 00 00 	mov    QWORD PTR [rbp+0x638],rax
   140003ff4:	48 8b 85 38 06 00 00 	mov    rax,QWORD PTR [rbp+0x638]
   140003ffb:	48 89 85 30 06 00 00 	mov    QWORD PTR [rbp+0x630],rax
   140004002:	48 8b 85 30 06 00 00 	mov    rax,QWORD PTR [rbp+0x630]
   140004009:	ff d0                	call   rax
   14000400b:	e9 e1 05 00 00       	jmp    1400045f1 <_ZN5rvm647decoder9vm_decodeEj+0x12b7>
   140004010:	48 8b 05 f1 bf 00 00 	mov    rax,QWORD PTR [rip+0xbff1]        # 140010008 <vmcs>
   140004017:	48 8b 40 08          	mov    rax,QWORD PTR [rax+0x8]
   14000401b:	48 05 18 01 00 00    	add    rax,0x118
   140004021:	48 8b 00             	mov    rax,QWORD PTR [rax]
   140004024:	48 89 85 00 08 00 00 	mov    QWORD PTR [rbp+0x800],rax
   14000402b:	48 8b 85 00 08 00 00 	mov    rax,QWORD PTR [rbp+0x800]
   140004032:	48 89 c1             	mov    rcx,rax
   140004035:	e8 46 d4 ff ff       	call   140001480 <_ZN5rvm645crypt11decrypt_ptrEy>
   14000403a:	48 89 85 f8 07 00 00 	mov    QWORD PTR [rbp+0x7f8],rax
   140004041:	48 8b 85 f8 07 00 00 	mov    rax,QWORD PTR [rbp+0x7f8]
   140004048:	48 89 85 f0 07 00 00 	mov    QWORD PTR [rbp+0x7f0],rax
   14000404f:	48 8b 85 f0 07 00 00 	mov    rax,QWORD PTR [rbp+0x7f0]
   140004056:	ff d0                	call   rax
   140004058:	e9 94 05 00 00       	jmp    1400045f1 <_ZN5rvm647decoder9vm_decodeEj+0x12b7>
   14000405d:	8b 85 20 0a 00 00    	mov    eax,DWORD PTR [rbp+0xa20]
   140004063:	c1 e8 14             	shr    eax,0x14
   140004066:	83 e0 1f             	and    eax,0x1f
   140004069:	88 85 ef 07 00 00    	mov    BYTE PTR [rbp+0x7ef],al
   14000406f:	0f b6 85 ef 07 00 00 	movzx  eax,BYTE PTR [rbp+0x7ef]
   140004076:	83 f8 01             	cmp    eax,0x1
   140004079:	75 49                	jne    1400040c4 <_ZN5rvm647decoder9vm_decodeEj+0xd8a>
   14000407b:	48 8b 05 86 bf 00 00 	mov    rax,QWORD PTR [rip+0xbf86]        # 140010008 <vmcs>
   140004082:	48 8b 40 08          	mov    rax,QWORD PTR [rax+0x8]
   140004086:	48 05 20 01 00 00    	add    rax,0x120
   14000408c:	48 8b 00             	mov    rax,QWORD PTR [rax]
   14000408f:	48 89 85 e0 07 00 00 	mov    QWORD PTR [rbp+0x7e0],rax
   140004096:	48 8b 85 e0 07 00 00 	mov    rax,QWORD PTR [rbp+0x7e0]
   14000409d:	48 89 c1             	mov    rcx,rax
   1400040a0:	e8 db d3 ff ff       	call   140001480 <_ZN5rvm645crypt11decrypt_ptrEy>
   1400040a5:	48 89 85 d8 07 00 00 	mov    QWORD PTR [rbp+0x7d8],rax
   1400040ac:	48 8b 85 d8 07 00 00 	mov    rax,QWORD PTR [rbp+0x7d8]
   1400040b3:	48 89 85 d0 07 00 00 	mov    QWORD PTR [rbp+0x7d0],rax
   1400040ba:	48 8b 85 d0 07 00 00 	mov    rax,QWORD PTR [rbp+0x7d0]
   1400040c1:	ff d0                	call   rax
   1400040c3:	90                   	nop
   1400040c4:	8b 85 20 0a 00 00    	mov    eax,DWORD PTR [rbp+0xa20]
   1400040ca:	c1 e8 14             	shr    eax,0x14
   1400040cd:	83 e0 1f             	and    eax,0x1f
   1400040d0:	88 85 cf 07 00 00    	mov    BYTE PTR [rbp+0x7cf],al
   1400040d6:	0f b6 85 cf 07 00 00 	movzx  eax,BYTE PTR [rbp+0x7cf]
   1400040dd:	85 c0                	test   eax,eax
   1400040df:	75 49                	jne    14000412a <_ZN5rvm647decoder9vm_decodeEj+0xdf0>
   1400040e1:	48 8b 05 20 bf 00 00 	mov    rax,QWORD PTR [rip+0xbf20]        # 140010008 <vmcs>
   1400040e8:	48 8b 40 08          	mov    rax,QWORD PTR [rax+0x8]
   1400040ec:	48 05 28 01 00 00    	add    rax,0x128
   1400040f2:	48 8b 00             	mov    rax,QWORD PTR [rax]
   1400040f5:	48 89 85 c0 07 00 00 	mov    QWORD PTR [rbp+0x7c0],rax
   1400040fc:	48 8b 85 c0 07 00 00 	mov    rax,QWORD PTR [rbp+0x7c0]
   140004103:	48 89 c1             	mov    rcx,rax
   140004106:	e8 75 d3 ff ff       	call   140001480 <_ZN5rvm645crypt11decrypt_ptrEy>
   14000410b:	48 89 85 b8 07 00 00 	mov    QWORD PTR [rbp+0x7b8],rax
   140004112:	48 8b 85 b8 07 00 00 	mov    rax,QWORD PTR [rbp+0x7b8]
   140004119:	48 89 85 b0 07 00 00 	mov    QWORD PTR [rbp+0x7b0],rax
   140004120:	48 8b 85 b0 07 00 00 	mov    rax,QWORD PTR [rbp+0x7b0]
   140004127:	ff d0                	call   rax
   140004129:	90                   	nop
   14000412a:	8b 85 20 0a 00 00    	mov    eax,DWORD PTR [rbp+0xa20]
   140004130:	c1 e8 14             	shr    eax,0x14
   140004133:	83 e0 1f             	and    eax,0x1f
   140004136:	88 85 af 07 00 00    	mov    BYTE PTR [rbp+0x7af],al
   14000413c:	0f b6 85 af 07 00 00 	movzx  eax,BYTE PTR [rbp+0x7af]
   140004143:	85 c0                	test   eax,eax
   140004145:	74 0a                	je     140004151 <_ZN5rvm647decoder9vm_decodeEj+0xe17>
   140004147:	83 f8 01             	cmp    eax,0x1
   14000414a:	74 4f                	je     14000419b <_ZN5rvm647decoder9vm_decodeEj+0xe61>
   14000414c:	e9 93 00 00 00       	jmp    1400041e4 <_ZN5rvm647decoder9vm_decodeEj+0xeaa>
   140004151:	48 8b 05 b0 be 00 00 	mov    rax,QWORD PTR [rip+0xbeb0]        # 140010008 <vmcs>
   140004158:	48 8b 40 08          	mov    rax,QWORD PTR [rax+0x8]
   14000415c:	48 05 30 01 00 00    	add    rax,0x130
   140004162:	48 8b 00             	mov    rax,QWORD PTR [rax]
   140004165:	48 89 85 88 07 00 00 	mov    QWORD PTR [rbp+0x788],rax
   14000416c:	48 8b 85 88 07 00 00 	mov    rax,QWORD PTR [rbp+0x788]
   140004173:	48 89 c1             	mov    rcx,rax
   140004176:	e8 05 d3 ff ff       	call   140001480 <_ZN5rvm645crypt11decrypt_ptrEy>
   14000417b:	48 89 85 80 07 00 00 	mov    QWORD PTR [rbp+0x780],rax
   140004182:	48 8b 85 80 07 00 00 	mov    rax,QWORD PTR [rbp+0x780]
   140004189:	48 89 85 78 07 00 00 	mov    QWORD PTR [rbp+0x778],rax
   140004190:	48 8b 85 78 07 00 00 	mov    rax,QWORD PTR [rbp+0x778]
   140004197:	ff d0                	call   rax
   140004199:	eb 49                	jmp    1400041e4 <_ZN5rvm647decoder9vm_decodeEj+0xeaa>
   14000419b:	48 8b 05 66 be 00 00 	mov    rax,QWORD PTR [rip+0xbe66]        # 140010008 <vmcs>
   1400041a2:	48 8b 40 08          	mov    rax,QWORD PTR [rax+0x8]
   1400041a6:	48 05 38 01 00 00    	add    rax,0x138
   1400041ac:	48 8b 00             	mov    rax,QWORD PTR [rax]
   1400041af:	48 89 85 a0 07 00 00 	mov    QWORD PTR [rbp+0x7a0],rax
   1400041b6:	48 8b 85 a0 07 00 00 	mov    rax,QWORD PTR [rbp+0x7a0]
   1400041bd:	48 89 c1             	mov    rcx,rax
   1400041c0:	e8 bb d2 ff ff       	call   140001480 <_ZN5rvm645crypt11decrypt_ptrEy>
   1400041c5:	48 89 85 98 07 00 00 	mov    QWORD PTR [rbp+0x798],rax
   1400041cc:	48 8b 85 98 07 00 00 	mov    rax,QWORD PTR [rbp+0x798]
   1400041d3:	48 89 85 90 07 00 00 	mov    QWORD PTR [rbp+0x790],rax
   1400041da:	48 8b 85 90 07 00 00 	mov    rax,QWORD PTR [rbp+0x790]
   1400041e1:	ff d0                	call   rax
   1400041e3:	90                   	nop
   1400041e4:	8b 85 20 0a 00 00    	mov    eax,DWORD PTR [rbp+0xa20]
   1400041ea:	c1 e8 14             	shr    eax,0x14
   1400041ed:	83 e0 1f             	and    eax,0x1f
   1400041f0:	88 85 77 07 00 00    	mov    BYTE PTR [rbp+0x777],al
   1400041f6:	0f b6 85 77 07 00 00 	movzx  eax,BYTE PTR [rbp+0x777]
   1400041fd:	85 c0                	test   eax,eax
   1400041ff:	74 0a                	je     14000420b <_ZN5rvm647decoder9vm_decodeEj+0xed1>
   140004201:	83 f8 01             	cmp    eax,0x1
   140004204:	74 4f                	je     140004255 <_ZN5rvm647decoder9vm_decodeEj+0xf1b>
   140004206:	e9 93 00 00 00       	jmp    14000429e <_ZN5rvm647decoder9vm_decodeEj+0xf64>
   14000420b:	48 8b 05 f6 bd 00 00 	mov    rax,QWORD PTR [rip+0xbdf6]        # 140010008 <vmcs>
   140004212:	48 8b 40 08          	mov    rax,QWORD PTR [rax+0x8]
   140004216:	48 05 40 01 00 00    	add    rax,0x140
   14000421c:	48 8b 00             	mov    rax,QWORD PTR [rax]
   14000421f:	48 89 85 50 07 00 00 	mov    QWORD PTR [rbp+0x750],rax
   140004226:	48 8b 85 50 07 00 00 	mov    rax,QWORD PTR [rbp+0x750]
   14000422d:	48 89 c1             	mov    rcx,rax
   140004230:	e8 4b d2 ff ff       	call   140001480 <_ZN5rvm645crypt11decrypt_ptrEy>
   140004235:	48 89 85 48 07 00 00 	mov    QWORD PTR [rbp+0x748],rax
   14000423c:	48 8b 85 48 07 00 00 	mov    rax,QWORD PTR [rbp+0x748]
   140004243:	48 89 85 40 07 00 00 	mov    QWORD PTR [rbp+0x740],rax
   14000424a:	48 8b 85 40 07 00 00 	mov    rax,QWORD PTR [rbp+0x740]
   140004251:	ff d0                	call   rax
   140004253:	eb 49                	jmp    14000429e <_ZN5rvm647decoder9vm_decodeEj+0xf64>
   140004255:	48 8b 05 ac bd 00 00 	mov    rax,QWORD PTR [rip+0xbdac]        # 140010008 <vmcs>
   14000425c:	48 8b 40 08          	mov    rax,QWORD PTR [rax+0x8]
   140004260:	48 05 48 01 00 00    	add    rax,0x148
   140004266:	48 8b 00             	mov    rax,QWORD PTR [rax]
   140004269:	48 89 85 68 07 00 00 	mov    QWORD PTR [rbp+0x768],rax
   140004270:	48 8b 85 68 07 00 00 	mov    rax,QWORD PTR [rbp+0x768]
   140004277:	48 89 c1             	mov    rcx,rax
   14000427a:	e8 01 d2 ff ff       	call   140001480 <_ZN5rvm645crypt11decrypt_ptrEy>
   14000427f:	48 89 85 60 07 00 00 	mov    QWORD PTR [rbp+0x760],rax
   140004286:	48 8b 85 60 07 00 00 	mov    rax,QWORD PTR [rbp+0x760]
   14000428d:	48 89 85 58 07 00 00 	mov    QWORD PTR [rbp+0x758],rax
   140004294:	48 8b 85 58 07 00 00 	mov    rax,QWORD PTR [rbp+0x758]
   14000429b:	ff d0                	call   rax
   14000429d:	90                   	nop
   14000429e:	8b 85 20 0a 00 00    	mov    eax,DWORD PTR [rbp+0xa20]
   1400042a4:	c1 e8 0c             	shr    eax,0xc
   1400042a7:	83 e0 07             	and    eax,0x7
   1400042aa:	88 85 3f 07 00 00    	mov    BYTE PTR [rbp+0x73f],al
   1400042b0:	0f b6 85 3f 07 00 00 	movzx  eax,BYTE PTR [rbp+0x73f]
   1400042b7:	83 f8 02             	cmp    eax,0x2
   1400042ba:	0f 84 ae 00 00 00    	je     14000436e <_ZN5rvm647decoder9vm_decodeEj+0x1034>
   1400042c0:	83 f8 02             	cmp    eax,0x2
   1400042c3:	0f 8f ee 00 00 00    	jg     1400043b7 <_ZN5rvm647decoder9vm_decodeEj+0x107d>
   1400042c9:	85 c0                	test   eax,eax
   1400042cb:	74 0a                	je     1400042d7 <_ZN5rvm647decoder9vm_decodeEj+0xf9d>
   1400042cd:	83 f8 01             	cmp    eax,0x1
   1400042d0:	74 52                	je     140004324 <_ZN5rvm647decoder9vm_decodeEj+0xfea>
   1400042d2:	e9 e0 00 00 00       	jmp    1400043b7 <_ZN5rvm647decoder9vm_decodeEj+0x107d>
   1400042d7:	48 8b 05 2a bd 00 00 	mov    rax,QWORD PTR [rip+0xbd2a]        # 140010008 <vmcs>
   1400042de:	48 8b 40 08          	mov    rax,QWORD PTR [rax+0x8]
   1400042e2:	48 05 70 01 00 00    	add    rax,0x170
   1400042e8:	48 8b 00             	mov    rax,QWORD PTR [rax]
   1400042eb:	48 89 85 00 07 00 00 	mov    QWORD PTR [rbp+0x700],rax
   1400042f2:	48 8b 85 00 07 00 00 	mov    rax,QWORD PTR [rbp+0x700]
   1400042f9:	48 89 c1             	mov    rcx,rax
   1400042fc:	e8 7f d1 ff ff       	call   140001480 <_ZN5rvm645crypt11decrypt_ptrEy>
   140004301:	48 89 85 f8 06 00 00 	mov    QWORD PTR [rbp+0x6f8],rax
   140004308:	48 8b 85 f8 06 00 00 	mov    rax,QWORD PTR [rbp+0x6f8]
   14000430f:	48 89 85 f0 06 00 00 	mov    QWORD PTR [rbp+0x6f0],rax
   140004316:	48 8b 85 f0 06 00 00 	mov    rax,QWORD PTR [rbp+0x6f0]
   14000431d:	ff d0                	call   rax
   14000431f:	e9 93 00 00 00       	jmp    1400043b7 <_ZN5rvm647decoder9vm_decodeEj+0x107d>
   140004324:	48 8b 05 dd bc 00 00 	mov    rax,QWORD PTR [rip+0xbcdd]        # 140010008 <vmcs>
   14000432b:	48 8b 40 08          	mov    rax,QWORD PTR [rax+0x8]
   14000432f:	48 05 78 01 00 00    	add    rax,0x178
   140004335:	48 8b 00             	mov    rax,QWORD PTR [rax]
   140004338:	48 89 85 18 07 00 00 	mov    QWORD PTR [rbp+0x718],rax
   14000433f:	48 8b 85 18 07 00 00 	mov    rax,QWORD PTR [rbp+0x718]
   140004346:	48 89 c1             	mov    rcx,rax
   140004349:	e8 32 d1 ff ff       	call   140001480 <_ZN5rvm645crypt11decrypt_ptrEy>
   14000434e:	48 89 85 10 07 00 00 	mov    QWORD PTR [rbp+0x710],rax
   140004355:	48 8b 85 10 07 00 00 	mov    rax,QWORD PTR [rbp+0x710]
   14000435c:	48 89 85 08 07 00 00 	mov    QWORD PTR [rbp+0x708],rax
   140004363:	48 8b 85 08 07 00 00 	mov    rax,QWORD PTR [rbp+0x708]
   14000436a:	ff d0                	call   rax
   14000436c:	eb 49                	jmp    1400043b7 <_ZN5rvm647decoder9vm_decodeEj+0x107d>
   14000436e:	48 8b 05 93 bc 00 00 	mov    rax,QWORD PTR [rip+0xbc93]        # 140010008 <vmcs>
   140004375:	48 8b 40 08          	mov    rax,QWORD PTR [rax+0x8]
   140004379:	48 05 80 01 00 00    	add    rax,0x180
   14000437f:	48 8b 00             	mov    rax,QWORD PTR [rax]
   140004382:	48 89 85 30 07 00 00 	mov    QWORD PTR [rbp+0x730],rax
   140004389:	48 8b 85 30 07 00 00 	mov    rax,QWORD PTR [rbp+0x730]
   140004390:	48 89 c1             	mov    rcx,rax
   140004393:	e8 e8 d0 ff ff       	call   140001480 <_ZN5rvm645crypt11decrypt_ptrEy>
   140004398:	48 89 85 28 07 00 00 	mov    QWORD PTR [rbp+0x728],rax
   14000439f:	48 8b 85 28 07 00 00 	mov    rax,QWORD PTR [rbp+0x728]
   1400043a6:	48 89 85 20 07 00 00 	mov    QWORD PTR [rbp+0x720],rax
   1400043ad:	48 8b 85 20 07 00 00 	mov    rax,QWORD PTR [rbp+0x720]
   1400043b4:	ff d0                	call   rax
   1400043b6:	90                   	nop
   1400043b7:	8b 85 20 0a 00 00    	mov    eax,DWORD PTR [rbp+0xa20]
   1400043bd:	c1 e8 0c             	shr    eax,0xc
   1400043c0:	83 e0 07             	and    eax,0x7
   1400043c3:	88 85 ef 06 00 00    	mov    BYTE PTR [rbp+0x6ef],al
   1400043c9:	0f b6 85 ef 06 00 00 	movzx  eax,BYTE PTR [rbp+0x6ef]
   1400043d0:	85 c0                	test   eax,eax
   1400043d2:	74 0a                	je     1400043de <_ZN5rvm647decoder9vm_decodeEj+0x10a4>
   1400043d4:	83 f8 01             	cmp    eax,0x1
   1400043d7:	74 4f                	je     140004428 <_ZN5rvm647decoder9vm_decodeEj+0x10ee>
   1400043d9:	e9 93 00 00 00       	jmp    140004471 <_ZN5rvm647decoder9vm_decodeEj+0x1137>
   1400043de:	48 8b 05 23 bc 00 00 	mov    rax,QWORD PTR [rip+0xbc23]        # 140010008 <vmcs>
   1400043e5:	48 8b 40 08          	mov    rax,QWORD PTR [rax+0x8]
   1400043e9:	48 05 88 01 00 00    	add    rax,0x188
   1400043ef:	48 8b 00             	mov    rax,QWORD PTR [rax]
   1400043f2:	48 89 85 c8 06 00 00 	mov    QWORD PTR [rbp+0x6c8],rax
   1400043f9:	48 8b 85 c8 06 00 00 	mov    rax,QWORD PTR [rbp+0x6c8]
   140004400:	48 89 c1             	mov    rcx,rax
   140004403:	e8 78 d0 ff ff       	call   140001480 <_ZN5rvm645crypt11decrypt_ptrEy>
   140004408:	48 89 85 c0 06 00 00 	mov    QWORD PTR [rbp+0x6c0],rax
   14000440f:	48 8b 85 c0 06 00 00 	mov    rax,QWORD PTR [rbp+0x6c0]
   140004416:	48 89 85 b8 06 00 00 	mov    QWORD PTR [rbp+0x6b8],rax
   14000441d:	48 8b 85 b8 06 00 00 	mov    rax,QWORD PTR [rbp+0x6b8]
   140004424:	ff d0                	call   rax
   140004426:	eb 49                	jmp    140004471 <_ZN5rvm647decoder9vm_decodeEj+0x1137>
   140004428:	48 8b 05 d9 bb 00 00 	mov    rax,QWORD PTR [rip+0xbbd9]        # 140010008 <vmcs>
   14000442f:	48 8b 40 08          	mov    rax,QWORD PTR [rax+0x8]
   140004433:	48 05 90 01 00 00    	add    rax,0x190
   140004439:	48 8b 00             	mov    rax,QWORD PTR [rax]
   14000443c:	48 89 85 e0 06 00 00 	mov    QWORD PTR [rbp+0x6e0],rax
   140004443:	48 8b 85 e0 06 00 00 	mov    rax,QWORD PTR [rbp+0x6e0]
   14000444a:	48 89 c1             	mov    rcx,rax
   14000444d:	e8 2e d0 ff ff       	call   140001480 <_ZN5rvm645crypt11decrypt_ptrEy>
   140004452:	48 89 85 d8 06 00 00 	mov    QWORD PTR [rbp+0x6d8],rax
   140004459:	48 8b 85 d8 06 00 00 	mov    rax,QWORD PTR [rbp+0x6d8]
   140004460:	48 89 85 d0 06 00 00 	mov    QWORD PTR [rbp+0x6d0],rax
   140004467:	48 8b 85 d0 06 00 00 	mov    rax,QWORD PTR [rbp+0x6d0]
   14000446e:	ff d0                	call   rax
   140004470:	90                   	nop
   140004471:	8b 85 20 0a 00 00    	mov    eax,DWORD PTR [rbp+0xa20]
   140004477:	c1 e8 0c             	shr    eax,0xc
   14000447a:	83 e0 07             	and    eax,0x7
   14000447d:	88 85 b7 06 00 00    	mov    BYTE PTR [rbp+0x6b7],al
   140004483:	0f b6 85 b7 06 00 00 	movzx  eax,BYTE PTR [rbp+0x6b7]
   14000448a:	83 f8 02             	cmp    eax,0x2
   14000448d:	74 1b                	je     1400044aa <_ZN5rvm647decoder9vm_decodeEj+0x1170>
   14000448f:	83 f8 02             	cmp    eax,0x2
   140004492:	0f 8f f2 00 00 00    	jg     14000458a <_ZN5rvm647decoder9vm_decodeEj+0x1250>
   140004498:	85 c0                	test   eax,eax
   14000449a:	0f 84 a1 00 00 00    	je     140004541 <_ZN5rvm647decoder9vm_decodeEj+0x1207>
   1400044a0:	83 f8 01             	cmp    eax,0x1
   1400044a3:	74 52                	je     1400044f7 <_ZN5rvm647decoder9vm_decodeEj+0x11bd>
   1400044a5:	e9 e0 00 00 00       	jmp    14000458a <_ZN5rvm647decoder9vm_decodeEj+0x1250>
   1400044aa:	48 8b 05 57 bb 00 00 	mov    rax,QWORD PTR [rip+0xbb57]        # 140010008 <vmcs>
   1400044b1:	48 8b 40 08          	mov    rax,QWORD PTR [rax+0x8]
   1400044b5:	48 05 98 01 00 00    	add    rax,0x198
   1400044bb:	48 8b 00             	mov    rax,QWORD PTR [rax]
   1400044be:	48 89 85 a8 06 00 00 	mov    QWORD PTR [rbp+0x6a8],rax
   1400044c5:	48 8b 85 a8 06 00 00 	mov    rax,QWORD PTR [rbp+0x6a8]
   1400044cc:	48 89 c1             	mov    rcx,rax
   1400044cf:	e8 ac cf ff ff       	call   140001480 <_ZN5rvm645crypt11decrypt_ptrEy>
   1400044d4:	48 89 85 a0 06 00 00 	mov    QWORD PTR [rbp+0x6a0],rax
   1400044db:	48 8b 85 a0 06 00 00 	mov    rax,QWORD PTR [rbp+0x6a0]
   1400044e2:	48 89 85 98 06 00 00 	mov    QWORD PTR [rbp+0x698],rax
   1400044e9:	48 8b 85 98 06 00 00 	mov    rax,QWORD PTR [rbp+0x698]
   1400044f0:	ff d0                	call   rax
   1400044f2:	e9 93 00 00 00       	jmp    14000458a <_ZN5rvm647decoder9vm_decodeEj+0x1250>
   1400044f7:	48 8b 05 0a bb 00 00 	mov    rax,QWORD PTR [rip+0xbb0a]        # 140010008 <vmcs>
   1400044fe:	48 8b 40 08          	mov    rax,QWORD PTR [rax+0x8]
   140004502:	48 05 a0 01 00 00    	add    rax,0x1a0
   140004508:	48 8b 00             	mov    rax,QWORD PTR [rax]
   14000450b:	48 89 85 90 06 00 00 	mov    QWORD PTR [rbp+0x690],rax
   140004512:	48 8b 85 90 06 00 00 	mov    rax,QWORD PTR [rbp+0x690]
   140004519:	48 89 c1             	mov    rcx,rax
   14000451c:	e8 5f cf ff ff       	call   140001480 <_ZN5rvm645crypt11decrypt_ptrEy>
   140004521:	48 89 85 88 06 00 00 	mov    QWORD PTR [rbp+0x688],rax
   140004528:	48 8b 85 88 06 00 00 	mov    rax,QWORD PTR [rbp+0x688]
   14000452f:	48 89 85 80 06 00 00 	mov    QWORD PTR [rbp+0x680],rax
   140004536:	48 8b 85 80 06 00 00 	mov    rax,QWORD PTR [rbp+0x680]
   14000453d:	ff d0                	call   rax
   14000453f:	eb 49                	jmp    14000458a <_ZN5rvm647decoder9vm_decodeEj+0x1250>
   140004541:	48 8b 05 c0 ba 00 00 	mov    rax,QWORD PTR [rip+0xbac0]        # 140010008 <vmcs>
   140004548:	48 8b 40 08          	mov    rax,QWORD PTR [rax+0x8]
   14000454c:	48 05 a8 01 00 00    	add    rax,0x1a8
   140004552:	48 8b 00             	mov    rax,QWORD PTR [rax]
   140004555:	48 89 85 78 06 00 00 	mov    QWORD PTR [rbp+0x678],rax
   14000455c:	48 8b 85 78 06 00 00 	mov    rax,QWORD PTR [rbp+0x678]
   140004563:	48 89 c1             	mov    rcx,rax
   140004566:	e8 15 cf ff ff       	call   140001480 <_ZN5rvm645crypt11decrypt_ptrEy>
   14000456b:	48 89 85 70 06 00 00 	mov    QWORD PTR [rbp+0x670],rax
   140004572:	48 8b 85 70 06 00 00 	mov    rax,QWORD PTR [rbp+0x670]
   140004579:	48 89 85 68 06 00 00 	mov    QWORD PTR [rbp+0x668],rax
   140004580:	48 8b 85 68 06 00 00 	mov    rax,QWORD PTR [rbp+0x668]
   140004587:	ff d0                	call   rax
   140004589:	90                   	nop
   14000458a:	8b 85 20 0a 00 00    	mov    eax,DWORD PTR [rbp+0xa20]
   140004590:	c1 e8 0c             	shr    eax,0xc
   140004593:	83 e0 07             	and    eax,0x7
   140004596:	88 85 67 06 00 00    	mov    BYTE PTR [rbp+0x667],al
   14000459c:	0f b6 85 67 06 00 00 	movzx  eax,BYTE PTR [rbp+0x667]
   1400045a3:	83 f8 01             	cmp    eax,0x1
   1400045a6:	75 49                	jne    1400045f1 <_ZN5rvm647decoder9vm_decodeEj+0x12b7>
   1400045a8:	48 8b 05 59 ba 00 00 	mov    rax,QWORD PTR [rip+0xba59]        # 140010008 <vmcs>
   1400045af:	48 8b 40 08          	mov    rax,QWORD PTR [rax+0x8]
   1400045b3:	48 05 00 01 00 00    	add    rax,0x100
   1400045b9:	48 8b 00             	mov    rax,QWORD PTR [rax]
   1400045bc:	48 89 85 58 06 00 00 	mov    QWORD PTR [rbp+0x658],rax
   1400045c3:	48 8b 85 58 06 00 00 	mov    rax,QWORD PTR [rbp+0x658]
   1400045ca:	48 89 c1             	mov    rcx,rax
   1400045cd:	e8 ae ce ff ff       	call   140001480 <_ZN5rvm645crypt11decrypt_ptrEy>
   1400045d2:	48 89 85 50 06 00 00 	mov    QWORD PTR [rbp+0x650],rax
   1400045d9:	48 8b 85 50 06 00 00 	mov    rax,QWORD PTR [rbp+0x650]
   1400045e0:	48 89 85 48 06 00 00 	mov    QWORD PTR [rbp+0x648],rax
   1400045e7:	48 8b 85 48 06 00 00 	mov    rax,QWORD PTR [rbp+0x648]
   1400045ee:	ff d0                	call   rax
   1400045f0:	90                   	nop
   1400045f1:	8b 85 20 0a 00 00    	mov    eax,DWORD PTR [rbp+0xa20]
   1400045f7:	c1 e8 18             	shr    eax,0x18
   1400045fa:	83 e0 7f             	and    eax,0x7f
   1400045fd:	88 85 e7 05 00 00    	mov    BYTE PTR [rbp+0x5e7],al
   140004603:	0f b6 85 e7 05 00 00 	movzx  eax,BYTE PTR [rbp+0x5e7]
   14000460a:	c0 e8 02             	shr    al,0x2
   14000460d:	83 e0 1f             	and    eax,0x1f
   140004610:	88 85 e6 05 00 00    	mov    BYTE PTR [rbp+0x5e6],al
   140004616:	8b 85 20 0a 00 00    	mov    eax,DWORD PTR [rbp+0xa20]
   14000461c:	c1 e8 0c             	shr    eax,0xc
   14000461f:	83 e0 07             	and    eax,0x7
   140004622:	88 85 e5 05 00 00    	mov    BYTE PTR [rbp+0x5e5],al
   140004628:	0f b6 85 e5 05 00 00 	movzx  eax,BYTE PTR [rbp+0x5e5]
   14000462f:	83 f8 02             	cmp    eax,0x2
   140004632:	74 0e                	je     140004642 <_ZN5rvm647decoder9vm_decodeEj+0x1308>
   140004634:	83 f8 03             	cmp    eax,0x3
   140004637:	0f 84 7f 03 00 00    	je     1400049bc <_ZN5rvm647decoder9vm_decodeEj+0x1682>
   14000463d:	e9 f4 06 00 00       	jmp    140004d36 <_ZN5rvm647decoder9vm_decodeEj+0x19fc>
   140004642:	0f b6 85 e6 05 00 00 	movzx  eax,BYTE PTR [rbp+0x5e6]
   140004649:	83 f8 1c             	cmp    eax,0x1c
   14000464c:	0f 87 6a 03 00 00    	ja     1400049bc <_ZN5rvm647decoder9vm_decodeEj+0x1682>
   140004652:	89 c0                	mov    eax,eax
   140004654:	48 8d 14 85 00 00 00 	lea    rdx,[rax*4+0x0]
   14000465b:	00 
   14000465c:	48 8d 05 49 cd 00 00 	lea    rax,[rip+0xcd49]        # 1400113ac <_ZL8encoding+0x16c>
   140004663:	8b 04 02             	mov    eax,DWORD PTR [rdx+rax*1]
   140004666:	48 98                	cdqe
   140004668:	48 8d 15 3d cd 00 00 	lea    rdx,[rip+0xcd3d]        # 1400113ac <_ZL8encoding+0x16c>
   14000466f:	48 01 d0             	add    rax,rdx
   140004672:	ff e0                	jmp    rax
   140004674:	48 8b 05 8d b9 00 00 	mov    rax,QWORD PTR [rip+0xb98d]        # 140010008 <vmcs>
   14000467b:	48 8b 40 08          	mov    rax,QWORD PTR [rax+0x8]
   14000467f:	48 05 08 01 00 00    	add    rax,0x108
   140004685:	48 8b 00             	mov    rax,QWORD PTR [rax]
   140004688:	48 89 85 18 05 00 00 	mov    QWORD PTR [rbp+0x518],rax
   14000468f:	48 8b 85 18 05 00 00 	mov    rax,QWORD PTR [rbp+0x518]
   140004696:	48 89 c1             	mov    rcx,rax
   140004699:	e8 e2 cd ff ff       	call   140001480 <_ZN5rvm645crypt11decrypt_ptrEy>
   14000469e:	48 89 85 10 05 00 00 	mov    QWORD PTR [rbp+0x510],rax
   1400046a5:	48 8b 85 10 05 00 00 	mov    rax,QWORD PTR [rbp+0x510]
   1400046ac:	48 89 85 08 05 00 00 	mov    QWORD PTR [rbp+0x508],rax
   1400046b3:	48 8b 85 08 05 00 00 	mov    rax,QWORD PTR [rbp+0x508]
   1400046ba:	ff d0                	call   rax
   1400046bc:	e9 fb 02 00 00       	jmp    1400049bc <_ZN5rvm647decoder9vm_decodeEj+0x1682>
   1400046c1:	48 8b 05 40 b9 00 00 	mov    rax,QWORD PTR [rip+0xb940]        # 140010008 <vmcs>
   1400046c8:	48 8b 40 08          	mov    rax,QWORD PTR [rax+0x8]
   1400046cc:	48 05 b0 01 00 00    	add    rax,0x1b0
   1400046d2:	48 8b 00             	mov    rax,QWORD PTR [rax]
   1400046d5:	48 89 85 30 05 00 00 	mov    QWORD PTR [rbp+0x530],rax
   1400046dc:	48 8b 85 30 05 00 00 	mov    rax,QWORD PTR [rbp+0x530]
   1400046e3:	48 89 c1             	mov    rcx,rax
   1400046e6:	e8 95 cd ff ff       	call   140001480 <_ZN5rvm645crypt11decrypt_ptrEy>
   1400046eb:	48 89 85 28 05 00 00 	mov    QWORD PTR [rbp+0x528],rax
   1400046f2:	48 8b 85 28 05 00 00 	mov    rax,QWORD PTR [rbp+0x528]
   1400046f9:	48 89 85 20 05 00 00 	mov    QWORD PTR [rbp+0x520],rax
   140004700:	48 8b 85 20 05 00 00 	mov    rax,QWORD PTR [rbp+0x520]
   140004707:	ff d0                	call   rax
   140004709:	e9 ae 02 00 00       	jmp    1400049bc <_ZN5rvm647decoder9vm_decodeEj+0x1682>
   14000470e:	48 8b 05 f3 b8 00 00 	mov    rax,QWORD PTR [rip+0xb8f3]        # 140010008 <vmcs>
   140004715:	48 8b 40 08          	mov    rax,QWORD PTR [rax+0x8]
   140004719:	48 05 b8 01 00 00    	add    rax,0x1b8
   14000471f:	48 8b 00             	mov    rax,QWORD PTR [rax]
   140004722:	48 89 85 00 05 00 00 	mov    QWORD PTR [rbp+0x500],rax
   140004729:	48 8b 85 00 05 00 00 	mov    rax,QWORD PTR [rbp+0x500]
   140004730:	48 89 c1             	mov    rcx,rax
   140004733:	e8 48 cd ff ff       	call   140001480 <_ZN5rvm645crypt11decrypt_ptrEy>
   140004738:	48 89 85 f8 04 00 00 	mov    QWORD PTR [rbp+0x4f8],rax
   14000473f:	48 8b 85 f8 04 00 00 	mov    rax,QWORD PTR [rbp+0x4f8]
   140004746:	48 89 85 f0 04 00 00 	mov    QWORD PTR [rbp+0x4f0],rax
   14000474d:	48 8b 85 f0 04 00 00 	mov    rax,QWORD PTR [rbp+0x4f0]
   140004754:	ff d0                	call   rax
   140004756:	e9 61 02 00 00       	jmp    1400049bc <_ZN5rvm647decoder9vm_decodeEj+0x1682>
   14000475b:	48 8b 05 a6 b8 00 00 	mov    rax,QWORD PTR [rip+0xb8a6]        # 140010008 <vmcs>
   140004762:	48 8b 40 08          	mov    rax,QWORD PTR [rax+0x8]
   140004766:	48 05 c0 01 00 00    	add    rax,0x1c0
   14000476c:	48 8b 00             	mov    rax,QWORD PTR [rax]
   14000476f:	48 89 85 e8 04 00 00 	mov    QWORD PTR [rbp+0x4e8],rax
   140004776:	48 8b 85 e8 04 00 00 	mov    rax,QWORD PTR [rbp+0x4e8]
   14000477d:	48 89 c1             	mov    rcx,rax
   140004780:	e8 fb cc ff ff       	call   140001480 <_ZN5rvm645crypt11decrypt_ptrEy>
   140004785:	48 89 85 e0 04 00 00 	mov    QWORD PTR [rbp+0x4e0],rax
   14000478c:	48 8b 85 e0 04 00 00 	mov    rax,QWORD PTR [rbp+0x4e0]
   140004793:	48 89 85 d8 04 00 00 	mov    QWORD PTR [rbp+0x4d8],rax
   14000479a:	48 8b 85 d8 04 00 00 	mov    rax,QWORD PTR [rbp+0x4d8]
   1400047a1:	ff d0                	call   rax
   1400047a3:	e9 14 02 00 00       	jmp    1400049bc <_ZN5rvm647decoder9vm_decodeEj+0x1682>
   1400047a8:	48 8b 05 59 b8 00 00 	mov    rax,QWORD PTR [rip+0xb859]        # 140010008 <vmcs>
   1400047af:	48 8b 40 08          	mov    rax,QWORD PTR [rax+0x8]
   1400047b3:	48 05 c8 01 00 00    	add    rax,0x1c8
   1400047b9:	48 8b 00             	mov    rax,QWORD PTR [rax]
   1400047bc:	48 89 85 48 05 00 00 	mov    QWORD PTR [rbp+0x548],rax
   1400047c3:	48 8b 85 48 05 00 00 	mov    rax,QWORD PTR [rbp+0x548]
   1400047ca:	48 89 c1             	mov    rcx,rax
   1400047cd:	e8 ae cc ff ff       	call   140001480 <_ZN5rvm645crypt11decrypt_ptrEy>
   1400047d2:	48 89 85 40 05 00 00 	mov    QWORD PTR [rbp+0x540],rax
   1400047d9:	48 8b 85 40 05 00 00 	mov    rax,QWORD PTR [rbp+0x540]
   1400047e0:	48 89 85 38 05 00 00 	mov    QWORD PTR [rbp+0x538],rax
   1400047e7:	48 8b 85 38 05 00 00 	mov    rax,QWORD PTR [rbp+0x538]
   1400047ee:	ff d0                	call   rax
   1400047f0:	e9 c7 01 00 00       	jmp    1400049bc <_ZN5rvm647decoder9vm_decodeEj+0x1682>
   1400047f5:	48 8b 05 0c b8 00 00 	mov    rax,QWORD PTR [rip+0xb80c]        # 140010008 <vmcs>
   1400047fc:	48 8b 40 08          	mov    rax,QWORD PTR [rax+0x8]
   140004800:	48 05 d0 01 00 00    	add    rax,0x1d0
   140004806:	48 8b 00             	mov    rax,QWORD PTR [rax]
   140004809:	48 89 85 78 05 00 00 	mov    QWORD PTR [rbp+0x578],rax
   140004810:	48 8b 85 78 05 00 00 	mov    rax,QWORD PTR [rbp+0x578]
   140004817:	48 89 c1             	mov    rcx,rax
   14000481a:	e8 61 cc ff ff       	call   140001480 <_ZN5rvm645crypt11decrypt_ptrEy>
   14000481f:	48 89 85 70 05 00 00 	mov    QWORD PTR [rbp+0x570],rax
   140004826:	48 8b 85 70 05 00 00 	mov    rax,QWORD PTR [rbp+0x570]
   14000482d:	48 89 85 68 05 00 00 	mov    QWORD PTR [rbp+0x568],rax
   140004834:	48 8b 85 68 05 00 00 	mov    rax,QWORD PTR [rbp+0x568]
   14000483b:	ff d0                	call   rax
   14000483d:	e9 7a 01 00 00       	jmp    1400049bc <_ZN5rvm647decoder9vm_decodeEj+0x1682>
   140004842:	48 8b 05 bf b7 00 00 	mov    rax,QWORD PTR [rip+0xb7bf]        # 140010008 <vmcs>
   140004849:	48 8b 40 08          	mov    rax,QWORD PTR [rax+0x8]
   14000484d:	48 05 d8 01 00 00    	add    rax,0x1d8
   140004853:	48 8b 00             	mov    rax,QWORD PTR [rax]
   140004856:	48 89 85 60 05 00 00 	mov    QWORD PTR [rbp+0x560],rax
   14000485d:	48 8b 85 60 05 00 00 	mov    rax,QWORD PTR [rbp+0x560]
   140004864:	48 89 c1             	mov    rcx,rax
   140004867:	e8 14 cc ff ff       	call   140001480 <_ZN5rvm645crypt11decrypt_ptrEy>
   14000486c:	48 89 85 58 05 00 00 	mov    QWORD PTR [rbp+0x558],rax
   140004873:	48 8b 85 58 05 00 00 	mov    rax,QWORD PTR [rbp+0x558]
   14000487a:	48 89 85 50 05 00 00 	mov    QWORD PTR [rbp+0x550],rax
   140004881:	48 8b 85 50 05 00 00 	mov    rax,QWORD PTR [rbp+0x550]
   140004888:	ff d0                	call   rax
   14000488a:	e9 2d 01 00 00       	jmp    1400049bc <_ZN5rvm647decoder9vm_decodeEj+0x1682>
   14000488f:	48 8b 05 72 b7 00 00 	mov    rax,QWORD PTR [rip+0xb772]        # 140010008 <vmcs>
   140004896:	48 8b 40 08          	mov    rax,QWORD PTR [rax+0x8]
   14000489a:	48 05 e0 01 00 00    	add    rax,0x1e0
   1400048a0:	48 8b 00             	mov    rax,QWORD PTR [rax]
   1400048a3:	48 89 85 90 05 00 00 	mov    QWORD PTR [rbp+0x590],rax
   1400048aa:	48 8b 85 90 05 00 00 	mov    rax,QWORD PTR [rbp+0x590]
   1400048b1:	48 89 c1             	mov    rcx,rax
   1400048b4:	e8 c7 cb ff ff       	call   140001480 <_ZN5rvm645crypt11decrypt_ptrEy>
   1400048b9:	48 89 85 88 05 00 00 	mov    QWORD PTR [rbp+0x588],rax
   1400048c0:	48 8b 85 88 05 00 00 	mov    rax,QWORD PTR [rbp+0x588]
   1400048c7:	48 89 85 80 05 00 00 	mov    QWORD PTR [rbp+0x580],rax
   1400048ce:	48 8b 85 80 05 00 00 	mov    rax,QWORD PTR [rbp+0x580]
   1400048d5:	ff d0                	call   rax
   1400048d7:	e9 e0 00 00 00       	jmp    1400049bc <_ZN5rvm647decoder9vm_decodeEj+0x1682>
   1400048dc:	48 8b 05 25 b7 00 00 	mov    rax,QWORD PTR [rip+0xb725]        # 140010008 <vmcs>
   1400048e3:	48 8b 40 08          	mov    rax,QWORD PTR [rax+0x8]
   1400048e7:	48 05 e8 01 00 00    	add    rax,0x1e8
   1400048ed:	48 8b 00             	mov    rax,QWORD PTR [rax]
   1400048f0:	48 89 85 a8 05 00 00 	mov    QWORD PTR [rbp+0x5a8],rax
   1400048f7:	48 8b 85 a8 05 00 00 	mov    rax,QWORD PTR [rbp+0x5a8]
   1400048fe:	48 89 c1             	mov    rcx,rax
   140004901:	e8 7a cb ff ff       	call   140001480 <_ZN5rvm645crypt11decrypt_ptrEy>
   140004906:	48 89 85 a0 05 00 00 	mov    QWORD PTR [rbp+0x5a0],rax
   14000490d:	48 8b 85 a0 05 00 00 	mov    rax,QWORD PTR [rbp+0x5a0]
   140004914:	48 89 85 98 05 00 00 	mov    QWORD PTR [rbp+0x598],rax
   14000491b:	48 8b 85 98 05 00 00 	mov    rax,QWORD PTR [rbp+0x598]
   140004922:	ff d0                	call   rax
   140004924:	e9 93 00 00 00       	jmp    1400049bc <_ZN5rvm647decoder9vm_decodeEj+0x1682>
   140004929:	48 8b 05 d8 b6 00 00 	mov    rax,QWORD PTR [rip+0xb6d8]        # 140010008 <vmcs>
   140004930:	48 8b 40 08          	mov    rax,QWORD PTR [rax+0x8]
   140004934:	48 05 f0 01 00 00    	add    rax,0x1f0
   14000493a:	48 8b 00             	mov    rax,QWORD PTR [rax]
   14000493d:	48 89 85 c0 05 00 00 	mov    QWORD PTR [rbp+0x5c0],rax
   140004944:	48 8b 85 c0 05 00 00 	mov    rax,QWORD PTR [rbp+0x5c0]
   14000494b:	48 89 c1             	mov    rcx,rax
   14000494e:	e8 2d cb ff ff       	call   140001480 <_ZN5rvm645crypt11decrypt_ptrEy>
   140004953:	48 89 85 b8 05 00 00 	mov    QWORD PTR [rbp+0x5b8],rax
   14000495a:	48 8b 85 b8 05 00 00 	mov    rax,QWORD PTR [rbp+0x5b8]
   140004961:	48 89 85 b0 05 00 00 	mov    QWORD PTR [rbp+0x5b0],rax
   140004968:	48 8b 85 b0 05 00 00 	mov    rax,QWORD PTR [rbp+0x5b0]
   14000496f:	ff d0                	call   rax
   140004971:	eb 49                	jmp    1400049bc <_ZN5rvm647decoder9vm_decodeEj+0x1682>
   140004973:	48 8b 05 8e b6 00 00 	mov    rax,QWORD PTR [rip+0xb68e]        # 140010008 <vmcs>
   14000497a:	48 8b 40 08          	mov    rax,QWORD PTR [rax+0x8]
   14000497e:	48 05 f8 01 00 00    	add    rax,0x1f8
   140004984:	48 8b 00             	mov    rax,QWORD PTR [rax]
   140004987:	48 89 85 d8 05 00 00 	mov    QWORD PTR [rbp+0x5d8],rax
   14000498e:	48 8b 85 d8 05 00 00 	mov    rax,QWORD PTR [rbp+0x5d8]
   140004995:	48 89 c1             	mov    rcx,rax
   140004998:	e8 e3 ca ff ff       	call   140001480 <_ZN5rvm645crypt11decrypt_ptrEy>
   14000499d:	48 89 85 d0 05 00 00 	mov    QWORD PTR [rbp+0x5d0],rax
   1400049a4:	48 8b 85 d0 05 00 00 	mov    rax,QWORD PTR [rbp+0x5d0]
   1400049ab:	48 89 85 c8 05 00 00 	mov    QWORD PTR [rbp+0x5c8],rax
   1400049b2:	48 8b 85 c8 05 00 00 	mov    rax,QWORD PTR [rbp+0x5c8]
   1400049b9:	ff d0                	call   rax
   1400049bb:	90                   	nop
   1400049bc:	0f b6 85 e6 05 00 00 	movzx  eax,BYTE PTR [rbp+0x5e6]
   1400049c3:	83 f8 1c             	cmp    eax,0x1c
   1400049c6:	0f 87 6a 03 00 00    	ja     140004d36 <_ZN5rvm647decoder9vm_decodeEj+0x19fc>
   1400049cc:	89 c0                	mov    eax,eax
   1400049ce:	48 8d 14 85 00 00 00 	lea    rdx,[rax*4+0x0]
   1400049d5:	00 
   1400049d6:	48 8d 05 43 ca 00 00 	lea    rax,[rip+0xca43]        # 140011420 <_ZL8encoding+0x1e0>
   1400049dd:	8b 04 02             	mov    eax,DWORD PTR [rdx+rax*1]
   1400049e0:	48 98                	cdqe
   1400049e2:	48 8d 15 37 ca 00 00 	lea    rdx,[rip+0xca37]        # 140011420 <_ZL8encoding+0x1e0>
   1400049e9:	48 01 d0             	add    rax,rdx
   1400049ec:	ff e0                	jmp    rax
   1400049ee:	48 8b 05 13 b6 00 00 	mov    rax,QWORD PTR [rip+0xb613]        # 140010008 <vmcs>
   1400049f5:	48 8b 40 08          	mov    rax,QWORD PTR [rax+0x8]
   1400049f9:	48 05 10 01 00 00    	add    rax,0x110
   1400049ff:	48 8b 00             	mov    rax,QWORD PTR [rax]
   140004a02:	48 89 85 10 04 00 00 	mov    QWORD PTR [rbp+0x410],rax
   140004a09:	48 8b 85 10 04 00 00 	mov    rax,QWORD PTR [rbp+0x410]
   140004a10:	48 89 c1             	mov    rcx,rax
   140004a13:	e8 68 ca ff ff       	call   140001480 <_ZN5rvm645crypt11decrypt_ptrEy>
   140004a18:	48 89 85 08 04 00 00 	mov    QWORD PTR [rbp+0x408],rax
   140004a1f:	48 8b 85 08 04 00 00 	mov    rax,QWORD PTR [rbp+0x408]
   140004a26:	48 89 85 00 04 00 00 	mov    QWORD PTR [rbp+0x400],rax
   140004a2d:	48 8b 85 00 04 00 00 	mov    rax,QWORD PTR [rbp+0x400]
   140004a34:	ff d0                	call   rax
   140004a36:	e9 fb 02 00 00       	jmp    140004d36 <_ZN5rvm647decoder9vm_decodeEj+0x19fc>
   140004a3b:	48 8b 05 c6 b5 00 00 	mov    rax,QWORD PTR [rip+0xb5c6]        # 140010008 <vmcs>
   140004a42:	48 8b 40 08          	mov    rax,QWORD PTR [rax+0x8]
   140004a46:	48 05 00 02 00 00    	add    rax,0x200
   140004a4c:	48 8b 00             	mov    rax,QWORD PTR [rax]
   140004a4f:	48 89 85 28 04 00 00 	mov    QWORD PTR [rbp+0x428],rax
   140004a56:	48 8b 85 28 04 00 00 	mov    rax,QWORD PTR [rbp+0x428]
   140004a5d:	48 89 c1             	mov    rcx,rax
   140004a60:	e8 1b ca ff ff       	call   140001480 <_ZN5rvm645crypt11decrypt_ptrEy>
   140004a65:	48 89 85 20 04 00 00 	mov    QWORD PTR [rbp+0x420],rax
   140004a6c:	48 8b 85 20 04 00 00 	mov    rax,QWORD PTR [rbp+0x420]
   140004a73:	48 89 85 18 04 00 00 	mov    QWORD PTR [rbp+0x418],rax
   140004a7a:	48 8b 85 18 04 00 00 	mov    rax,QWORD PTR [rbp+0x418]
   140004a81:	ff d0                	call   rax
   140004a83:	e9 ae 02 00 00       	jmp    140004d36 <_ZN5rvm647decoder9vm_decodeEj+0x19fc>
   140004a88:	48 8b 05 79 b5 00 00 	mov    rax,QWORD PTR [rip+0xb579]        # 140010008 <vmcs>
   140004a8f:	48 8b 40 08          	mov    rax,QWORD PTR [rax+0x8]
   140004a93:	48 05 08 02 00 00    	add    rax,0x208
   140004a99:	48 8b 00             	mov    rax,QWORD PTR [rax]
   140004a9c:	48 89 85 f8 03 00 00 	mov    QWORD PTR [rbp+0x3f8],rax
   140004aa3:	48 8b 85 f8 03 00 00 	mov    rax,QWORD PTR [rbp+0x3f8]
   140004aaa:	48 89 c1             	mov    rcx,rax
   140004aad:	e8 ce c9 ff ff       	call   140001480 <_ZN5rvm645crypt11decrypt_ptrEy>
   140004ab2:	48 89 85 f0 03 00 00 	mov    QWORD PTR [rbp+0x3f0],rax
   140004ab9:	48 8b 85 f0 03 00 00 	mov    rax,QWORD PTR [rbp+0x3f0]
   140004ac0:	48 89 85 e8 03 00 00 	mov    QWORD PTR [rbp+0x3e8],rax
   140004ac7:	48 8b 85 e8 03 00 00 	mov    rax,QWORD PTR [rbp+0x3e8]
   140004ace:	ff d0                	call   rax
   140004ad0:	e9 61 02 00 00       	jmp    140004d36 <_ZN5rvm647decoder9vm_decodeEj+0x19fc>
   140004ad5:	48 8b 05 2c b5 00 00 	mov    rax,QWORD PTR [rip+0xb52c]        # 140010008 <vmcs>
   140004adc:	48 8b 40 08          	mov    rax,QWORD PTR [rax+0x8]
   140004ae0:	48 05 10 02 00 00    	add    rax,0x210
   140004ae6:	48 8b 00             	mov    rax,QWORD PTR [rax]
   140004ae9:	48 89 85 e0 03 00 00 	mov    QWORD PTR [rbp+0x3e0],rax
   140004af0:	48 8b 85 e0 03 00 00 	mov    rax,QWORD PTR [rbp+0x3e0]
   140004af7:	48 89 c1             	mov    rcx,rax
   140004afa:	e8 81 c9 ff ff       	call   140001480 <_ZN5rvm645crypt11decrypt_ptrEy>
   140004aff:	48 89 85 d8 03 00 00 	mov    QWORD PTR [rbp+0x3d8],rax
   140004b06:	48 8b 85 d8 03 00 00 	mov    rax,QWORD PTR [rbp+0x3d8]
   140004b0d:	48 89 85 d0 03 00 00 	mov    QWORD PTR [rbp+0x3d0],rax
   140004b14:	48 8b 85 d0 03 00 00 	mov    rax,QWORD PTR [rbp+0x3d0]
   140004b1b:	ff d0                	call   rax
   140004b1d:	e9 14 02 00 00       	jmp    140004d36 <_ZN5rvm647decoder9vm_decodeEj+0x19fc>
   140004b22:	48 8b 05 df b4 00 00 	mov    rax,QWORD PTR [rip+0xb4df]        # 140010008 <vmcs>
   140004b29:	48 8b 40 08          	mov    rax,QWORD PTR [rax+0x8]
   140004b2d:	48 05 18 02 00 00    	add    rax,0x218
   140004b33:	48 8b 00             	mov    rax,QWORD PTR [rax]
   140004b36:	48 89 85 40 04 00 00 	mov    QWORD PTR [rbp+0x440],rax
   140004b3d:	48 8b 85 40 04 00 00 	mov    rax,QWORD PTR [rbp+0x440]
   140004b44:	48 89 c1             	mov    rcx,rax
   140004b47:	e8 34 c9 ff ff       	call   140001480 <_ZN5rvm645crypt11decrypt_ptrEy>
   140004b4c:	48 89 85 38 04 00 00 	mov    QWORD PTR [rbp+0x438],rax
   140004b53:	48 8b 85 38 04 00 00 	mov    rax,QWORD PTR [rbp+0x438]
   140004b5a:	48 89 85 30 04 00 00 	mov    QWORD PTR [rbp+0x430],rax
   140004b61:	48 8b 85 30 04 00 00 	mov    rax,QWORD PTR [rbp+0x430]
   140004b68:	ff d0                	call   rax
   140004b6a:	e9 c7 01 00 00       	jmp    140004d36 <_ZN5rvm647decoder9vm_decodeEj+0x19fc>
   140004b6f:	48 8b 05 92 b4 00 00 	mov    rax,QWORD PTR [rip+0xb492]        # 140010008 <vmcs>
   140004b76:	48 8b 40 08          	mov    rax,QWORD PTR [rax+0x8]
   140004b7a:	48 05 20 02 00 00    	add    rax,0x220
   140004b80:	48 8b 00             	mov    rax,QWORD PTR [rax]
   140004b83:	48 89 85 70 04 00 00 	mov    QWORD PTR [rbp+0x470],rax
   140004b8a:	48 8b 85 70 04 00 00 	mov    rax,QWORD PTR [rbp+0x470]
   140004b91:	48 89 c1             	mov    rcx,rax
   140004b94:	e8 e7 c8 ff ff       	call   140001480 <_ZN5rvm645crypt11decrypt_ptrEy>
   140004b99:	48 89 85 68 04 00 00 	mov    QWORD PTR [rbp+0x468],rax
   140004ba0:	48 8b 85 68 04 00 00 	mov    rax,QWORD PTR [rbp+0x468]
   140004ba7:	48 89 85 60 04 00 00 	mov    QWORD PTR [rbp+0x460],rax
   140004bae:	48 8b 85 60 04 00 00 	mov    rax,QWORD PTR [rbp+0x460]
   140004bb5:	ff d0                	call   rax
   140004bb7:	e9 7a 01 00 00       	jmp    140004d36 <_ZN5rvm647decoder9vm_decodeEj+0x19fc>
   140004bbc:	48 8b 05 45 b4 00 00 	mov    rax,QWORD PTR [rip+0xb445]        # 140010008 <vmcs>
   140004bc3:	48 8b 40 08          	mov    rax,QWORD PTR [rax+0x8]
   140004bc7:	48 05 28 02 00 00    	add    rax,0x228
   140004bcd:	48 8b 00             	mov    rax,QWORD PTR [rax]
   140004bd0:	48 89 85 58 04 00 00 	mov    QWORD PTR [rbp+0x458],rax
   140004bd7:	48 8b 85 58 04 00 00 	mov    rax,QWORD PTR [rbp+0x458]
   140004bde:	48 89 c1             	mov    rcx,rax
   140004be1:	e8 9a c8 ff ff       	call   140001480 <_ZN5rvm645crypt11decrypt_ptrEy>
   140004be6:	48 89 85 50 04 00 00 	mov    QWORD PTR [rbp+0x450],rax
   140004bed:	48 8b 85 50 04 00 00 	mov    rax,QWORD PTR [rbp+0x450]
   140004bf4:	48 89 85 48 04 00 00 	mov    QWORD PTR [rbp+0x448],rax
   140004bfb:	48 8b 85 48 04 00 00 	mov    rax,QWORD PTR [rbp+0x448]
   140004c02:	ff d0                	call   rax
   140004c04:	e9 2d 01 00 00       	jmp    140004d36 <_ZN5rvm647decoder9vm_decodeEj+0x19fc>
   140004c09:	48 8b 05 f8 b3 00 00 	mov    rax,QWORD PTR [rip+0xb3f8]        # 140010008 <vmcs>
   140004c10:	48 8b 40 08          	mov    rax,QWORD PTR [rax+0x8]
   140004c14:	48 05 30 02 00 00    	add    rax,0x230
   140004c1a:	48 8b 00             	mov    rax,QWORD PTR [rax]
   140004c1d:	48 89 85 88 04 00 00 	mov    QWORD PTR [rbp+0x488],rax
   140004c24:	48 8b 85 88 04 00 00 	mov    rax,QWORD PTR [rbp+0x488]
   140004c2b:	48 89 c1             	mov    rcx,rax
   140004c2e:	e8 4d c8 ff ff       	call   140001480 <_ZN5rvm645crypt11decrypt_ptrEy>
   140004c33:	48 89 85 80 04 00 00 	mov    QWORD PTR [rbp+0x480],rax
   140004c3a:	48 8b 85 80 04 00 00 	mov    rax,QWORD PTR [rbp+0x480]
   140004c41:	48 89 85 78 04 00 00 	mov    QWORD PTR [rbp+0x478],rax
   140004c48:	48 8b 85 78 04 00 00 	mov    rax,QWORD PTR [rbp+0x478]
   140004c4f:	ff d0                	call   rax
   140004c51:	e9 e0 00 00 00       	jmp    140004d36 <_ZN5rvm647decoder9vm_decodeEj+0x19fc>
   140004c56:	48 8b 05 ab b3 00 00 	mov    rax,QWORD PTR [rip+0xb3ab]        # 140010008 <vmcs>
   140004c5d:	48 8b 40 08          	mov    rax,QWORD PTR [rax+0x8]
   140004c61:	48 05 38 02 00 00    	add    rax,0x238
   140004c67:	48 8b 00             	mov    rax,QWORD PTR [rax]
   140004c6a:	48 89 85 a0 04 00 00 	mov    QWORD PTR [rbp+0x4a0],rax
   140004c71:	48 8b 85 a0 04 00 00 	mov    rax,QWORD PTR [rbp+0x4a0]
   140004c78:	48 89 c1             	mov    rcx,rax
   140004c7b:	e8 00 c8 ff ff       	call   140001480 <_ZN5rvm645crypt11decrypt_ptrEy>
   140004c80:	48 89 85 98 04 00 00 	mov    QWORD PTR [rbp+0x498],rax
   140004c87:	48 8b 85 98 04 00 00 	mov    rax,QWORD PTR [rbp+0x498]
   140004c8e:	48 89 85 90 04 00 00 	mov    QWORD PTR [rbp+0x490],rax
   140004c95:	48 8b 85 90 04 00 00 	mov    rax,QWORD PTR [rbp+0x490]
   140004c9c:	ff d0                	call   rax
   140004c9e:	e9 93 00 00 00       	jmp    140004d36 <_ZN5rvm647decoder9vm_decodeEj+0x19fc>
   140004ca3:	48 8b 05 5e b3 00 00 	mov    rax,QWORD PTR [rip+0xb35e]        # 140010008 <vmcs>
   140004caa:	48 8b 40 08          	mov    rax,QWORD PTR [rax+0x8]
   140004cae:	48 05 40 02 00 00    	add    rax,0x240
   140004cb4:	48 8b 00             	mov    rax,QWORD PTR [rax]
   140004cb7:	48 89 85 b8 04 00 00 	mov    QWORD PTR [rbp+0x4b8],rax
   140004cbe:	48 8b 85 b8 04 00 00 	mov    rax,QWORD PTR [rbp+0x4b8]
   140004cc5:	48 89 c1             	mov    rcx,rax
   140004cc8:	e8 b3 c7 ff ff       	call   140001480 <_ZN5rvm645crypt11decrypt_ptrEy>
   140004ccd:	48 89 85 b0 04 00 00 	mov    QWORD PTR [rbp+0x4b0],rax
   140004cd4:	48 8b 85 b0 04 00 00 	mov    rax,QWORD PTR [rbp+0x4b0]
   140004cdb:	48 89 85 a8 04 00 00 	mov    QWORD PTR [rbp+0x4a8],rax
   140004ce2:	48 8b 85 a8 04 00 00 	mov    rax,QWORD PTR [rbp+0x4a8]
   140004ce9:	ff d0                	call   rax
   140004ceb:	eb 49                	jmp    140004d36 <_ZN5rvm647decoder9vm_decodeEj+0x19fc>
   140004ced:	48 8b 05 14 b3 00 00 	mov    rax,QWORD PTR [rip+0xb314]        # 140010008 <vmcs>
   140004cf4:	48 8b 40 08          	mov    rax,QWORD PTR [rax+0x8]
   140004cf8:	48 05 48 02 00 00    	add    rax,0x248
   140004cfe:	48 8b 00             	mov    rax,QWORD PTR [rax]
   140004d01:	48 89 85 d0 04 00 00 	mov    QWORD PTR [rbp+0x4d0],rax
   140004d08:	48 8b 85 d0 04 00 00 	mov    rax,QWORD PTR [rbp+0x4d0]
   140004d0f:	48 89 c1             	mov    rcx,rax
   140004d12:	e8 69 c7 ff ff       	call   140001480 <_ZN5rvm645crypt11decrypt_ptrEy>
   140004d17:	48 89 85 c8 04 00 00 	mov    QWORD PTR [rbp+0x4c8],rax
   140004d1e:	48 8b 85 c8 04 00 00 	mov    rax,QWORD PTR [rbp+0x4c8]
   140004d25:	48 89 85 c0 04 00 00 	mov    QWORD PTR [rbp+0x4c0],rax
   140004d2c:	48 8b 85 c0 04 00 00 	mov    rax,QWORD PTR [rbp+0x4c0]
   140004d33:	ff d0                	call   rax
   140004d35:	90                   	nop
   140004d36:	8b 85 20 0a 00 00    	mov    eax,DWORD PTR [rbp+0xa20]
   140004d3c:	c1 e8 18             	shr    eax,0x18
   140004d3f:	83 e0 7f             	and    eax,0x7f
   140004d42:	88 85 cf 03 00 00    	mov    BYTE PTR [rbp+0x3cf],al
   140004d48:	8b 85 20 0a 00 00    	mov    eax,DWORD PTR [rbp+0xa20]
   140004d4e:	c1 e8 0c             	shr    eax,0xc
   140004d51:	83 e0 07             	and    eax,0x7
   140004d54:	88 85 ce 03 00 00    	mov    BYTE PTR [rbp+0x3ce],al
   140004d5a:	0f b6 85 ce 03 00 00 	movzx  eax,BYTE PTR [rbp+0x3ce]
   140004d61:	83 f8 07             	cmp    eax,0x7
   140004d64:	0f 87 5d 03 00 00    	ja     1400050c7 <_ZN5rvm647decoder9vm_decodeEj+0x1d8d>
   140004d6a:	89 c0                	mov    eax,eax
   140004d6c:	48 8d 14 85 00 00 00 	lea    rdx,[rax*4+0x0]
   140004d73:	00 
   140004d74:	48 8d 05 19 c7 00 00 	lea    rax,[rip+0xc719]        # 140011494 <_ZL8encoding+0x254>
   140004d7b:	8b 04 02             	mov    eax,DWORD PTR [rdx+rax*1]
   140004d7e:	48 98                	cdqe
   140004d80:	48 8d 15 0d c7 00 00 	lea    rdx,[rip+0xc70d]        # 140011494 <_ZL8encoding+0x254>
   140004d87:	48 01 d0             	add    rax,rdx
   140004d8a:	ff e0                	jmp    rax
   140004d8c:	0f b6 85 cf 03 00 00 	movzx  eax,BYTE PTR [rbp+0x3cf]
   140004d93:	83 f8 20             	cmp    eax,0x20
   140004d96:	74 68                	je     140004e00 <_ZN5rvm647decoder9vm_decodeEj+0x1ac6>
   140004d98:	83 f8 20             	cmp    eax,0x20
   140004d9b:	0f 8f f2 00 00 00    	jg     140004e93 <_ZN5rvm647decoder9vm_decodeEj+0x1b59>
   140004da1:	85 c0                	test   eax,eax
   140004da3:	74 0e                	je     140004db3 <_ZN5rvm647decoder9vm_decodeEj+0x1a79>
   140004da5:	83 f8 01             	cmp    eax,0x1
   140004da8:	0f 84 9c 00 00 00    	je     140004e4a <_ZN5rvm647decoder9vm_decodeEj+0x1b10>
   140004dae:	e9 e0 00 00 00       	jmp    140004e93 <_ZN5rvm647decoder9vm_decodeEj+0x1b59>
   140004db3:	48 8b 05 4e b2 00 00 	mov    rax,QWORD PTR [rip+0xb24e]        # 140010008 <vmcs>
   140004dba:	48 8b 40 08          	mov    rax,QWORD PTR [rax+0x8]
   140004dbe:	48 05 50 02 00 00    	add    rax,0x250
   140004dc4:	48 8b 00             	mov    rax,QWORD PTR [rax]
   140004dc7:	48 89 85 48 03 00 00 	mov    QWORD PTR [rbp+0x348],rax
   140004dce:	48 8b 85 48 03 00 00 	mov    rax,QWORD PTR [rbp+0x348]
   140004dd5:	48 89 c1             	mov    rcx,rax
   140004dd8:	e8 a3 c6 ff ff       	call   140001480 <_ZN5rvm645crypt11decrypt_ptrEy>
   140004ddd:	48 89 85 40 03 00 00 	mov    QWORD PTR [rbp+0x340],rax
   140004de4:	48 8b 85 40 03 00 00 	mov    rax,QWORD PTR [rbp+0x340]
   140004deb:	48 89 85 38 03 00 00 	mov    QWORD PTR [rbp+0x338],rax
   140004df2:	48 8b 85 38 03 00 00 	mov    rax,QWORD PTR [rbp+0x338]
   140004df9:	ff d0                	call   rax
   140004dfb:	e9 93 00 00 00       	jmp    140004e93 <_ZN5rvm647decoder9vm_decodeEj+0x1b59>
   140004e00:	48 8b 05 01 b2 00 00 	mov    rax,QWORD PTR [rip+0xb201]        # 140010008 <vmcs>
   140004e07:	48 8b 40 08          	mov    rax,QWORD PTR [rax+0x8]
   140004e0b:	48 05 58 02 00 00    	add    rax,0x258
   140004e11:	48 8b 00             	mov    rax,QWORD PTR [rax]
   140004e14:	48 89 85 78 03 00 00 	mov    QWORD PTR [rbp+0x378],rax
   140004e1b:	48 8b 85 78 03 00 00 	mov    rax,QWORD PTR [rbp+0x378]
   140004e22:	48 89 c1             	mov    rcx,rax
   140004e25:	e8 56 c6 ff ff       	call   140001480 <_ZN5rvm645crypt11decrypt_ptrEy>
   140004e2a:	48 89 85 70 03 00 00 	mov    QWORD PTR [rbp+0x370],rax
   140004e31:	48 8b 85 70 03 00 00 	mov    rax,QWORD PTR [rbp+0x370]
   140004e38:	48 89 85 68 03 00 00 	mov    QWORD PTR [rbp+0x368],rax
   140004e3f:	48 8b 85 68 03 00 00 	mov    rax,QWORD PTR [rbp+0x368]
   140004e46:	ff d0                	call   rax
   140004e48:	eb 49                	jmp    140004e93 <_ZN5rvm647decoder9vm_decodeEj+0x1b59>
   140004e4a:	48 8b 05 b7 b1 00 00 	mov    rax,QWORD PTR [rip+0xb1b7]        # 140010008 <vmcs>
   140004e51:	48 8b 40 08          	mov    rax,QWORD PTR [rax+0x8]
   140004e55:	48 05 60 02 00 00    	add    rax,0x260
   140004e5b:	48 8b 00             	mov    rax,QWORD PTR [rax]
   140004e5e:	48 89 85 60 03 00 00 	mov    QWORD PTR [rbp+0x360],rax
   140004e65:	48 8b 85 60 03 00 00 	mov    rax,QWORD PTR [rbp+0x360]
   140004e6c:	48 89 c1             	mov    rcx,rax
   140004e6f:	e8 0c c6 ff ff       	call   140001480 <_ZN5rvm645crypt11decrypt_ptrEy>
   140004e74:	48 89 85 58 03 00 00 	mov    QWORD PTR [rbp+0x358],rax
   140004e7b:	48 8b 85 58 03 00 00 	mov    rax,QWORD PTR [rbp+0x358]
   140004e82:	48 89 85 50 03 00 00 	mov    QWORD PTR [rbp+0x350],rax
   140004e89:	48 8b 85 50 03 00 00 	mov    rax,QWORD PTR [rbp+0x350]
   140004e90:	ff d0                	call   rax
   140004e92:	90                   	nop
   140004e93:	0f b6 85 cf 03 00 00 	movzx  eax,BYTE PTR [rbp+0x3cf]
   140004e9a:	83 f8 20             	cmp    eax,0x20
   140004e9d:	74 68                	je     140004f07 <_ZN5rvm647decoder9vm_decodeEj+0x1bcd>
   140004e9f:	83 f8 20             	cmp    eax,0x20
   140004ea2:	0f 8f f2 00 00 00    	jg     140004f9a <_ZN5rvm647decoder9vm_decodeEj+0x1c60>
   140004ea8:	85 c0                	test   eax,eax
   140004eaa:	74 0e                	je     140004eba <_ZN5rvm647decoder9vm_decodeEj+0x1b80>
   140004eac:	83 f8 01             	cmp    eax,0x1
   140004eaf:	0f 84 9c 00 00 00    	je     140004f51 <_ZN5rvm647decoder9vm_decodeEj+0x1c17>
   140004eb5:	e9 e0 00 00 00       	jmp    140004f9a <_ZN5rvm647decoder9vm_decodeEj+0x1c60>
   140004eba:	48 8b 05 47 b1 00 00 	mov    rax,QWORD PTR [rip+0xb147]        # 140010008 <vmcs>
   140004ec1:	48 8b 40 08          	mov    rax,QWORD PTR [rax+0x8]
   140004ec5:	48 05 68 02 00 00    	add    rax,0x268
   140004ecb:	48 8b 00             	mov    rax,QWORD PTR [rax]
   140004ece:	48 89 85 00 03 00 00 	mov    QWORD PTR [rbp+0x300],rax
   140004ed5:	48 8b 85 00 03 00 00 	mov    rax,QWORD PTR [rbp+0x300]
   140004edc:	48 89 c1             	mov    rcx,rax
   140004edf:	e8 9c c5 ff ff       	call   140001480 <_ZN5rvm645crypt11decrypt_ptrEy>
   140004ee4:	48 89 85 f8 02 00 00 	mov    QWORD PTR [rbp+0x2f8],rax
   140004eeb:	48 8b 85 f8 02 00 00 	mov    rax,QWORD PTR [rbp+0x2f8]
   140004ef2:	48 89 85 f0 02 00 00 	mov    QWORD PTR [rbp+0x2f0],rax
   140004ef9:	48 8b 85 f0 02 00 00 	mov    rax,QWORD PTR [rbp+0x2f0]
   140004f00:	ff d0                	call   rax
   140004f02:	e9 93 00 00 00       	jmp    140004f9a <_ZN5rvm647decoder9vm_decodeEj+0x1c60>
   140004f07:	48 8b 05 fa b0 00 00 	mov    rax,QWORD PTR [rip+0xb0fa]        # 140010008 <vmcs>
   140004f0e:	48 8b 40 08          	mov    rax,QWORD PTR [rax+0x8]
   140004f12:	48 05 70 02 00 00    	add    rax,0x270
   140004f18:	48 8b 00             	mov    rax,QWORD PTR [rax]
   140004f1b:	48 89 85 30 03 00 00 	mov    QWORD PTR [rbp+0x330],rax
   140004f22:	48 8b 85 30 03 00 00 	mov    rax,QWORD PTR [rbp+0x330]
   140004f29:	48 89 c1             	mov    rcx,rax
   140004f2c:	e8 4f c5 ff ff       	call   140001480 <_ZN5rvm645crypt11decrypt_ptrEy>
   140004f31:	48 89 85 28 03 00 00 	mov    QWORD PTR [rbp+0x328],rax
   140004f38:	48 8b 85 28 03 00 00 	mov    rax,QWORD PTR [rbp+0x328]
   140004f3f:	48 89 85 20 03 00 00 	mov    QWORD PTR [rbp+0x320],rax
   140004f46:	48 8b 85 20 03 00 00 	mov    rax,QWORD PTR [rbp+0x320]
   140004f4d:	ff d0                	call   rax
   140004f4f:	eb 49                	jmp    140004f9a <_ZN5rvm647decoder9vm_decodeEj+0x1c60>
   140004f51:	48 8b 05 b0 b0 00 00 	mov    rax,QWORD PTR [rip+0xb0b0]        # 140010008 <vmcs>
   140004f58:	48 8b 40 08          	mov    rax,QWORD PTR [rax+0x8]
   140004f5c:	48 05 78 02 00 00    	add    rax,0x278
   140004f62:	48 8b 00             	mov    rax,QWORD PTR [rax]
   140004f65:	48 89 85 18 03 00 00 	mov    QWORD PTR [rbp+0x318],rax
   140004f6c:	48 8b 85 18 03 00 00 	mov    rax,QWORD PTR [rbp+0x318]
   140004f73:	48 89 c1             	mov    rcx,rax
   140004f76:	e8 05 c5 ff ff       	call   140001480 <_ZN5rvm645crypt11decrypt_ptrEy>
   140004f7b:	48 89 85 10 03 00 00 	mov    QWORD PTR [rbp+0x310],rax
   140004f82:	48 8b 85 10 03 00 00 	mov    rax,QWORD PTR [rbp+0x310]
   140004f89:	48 89 85 08 03 00 00 	mov    QWORD PTR [rbp+0x308],rax
   140004f90:	48 8b 85 08 03 00 00 	mov    rax,QWORD PTR [rbp+0x308]
   140004f97:	ff d0                	call   rax
   140004f99:	90                   	nop
   140004f9a:	48 8b 05 67 b0 00 00 	mov    rax,QWORD PTR [rip+0xb067]        # 140010008 <vmcs>
   140004fa1:	48 8b 40 08          	mov    rax,QWORD PTR [rax+0x8]
   140004fa5:	48 05 80 02 00 00    	add    rax,0x280
   140004fab:	48 8b 00             	mov    rax,QWORD PTR [rax]
   140004fae:	48 89 85 e8 02 00 00 	mov    QWORD PTR [rbp+0x2e8],rax
   140004fb5:	48 8b 85 e8 02 00 00 	mov    rax,QWORD PTR [rbp+0x2e8]
   140004fbc:	48 89 c1             	mov    rcx,rax
   140004fbf:	e8 bc c4 ff ff       	call   140001480 <_ZN5rvm645crypt11decrypt_ptrEy>
   140004fc4:	48 89 85 e0 02 00 00 	mov    QWORD PTR [rbp+0x2e0],rax
   140004fcb:	48 8b 85 e0 02 00 00 	mov    rax,QWORD PTR [rbp+0x2e0]
   140004fd2:	48 89 85 d8 02 00 00 	mov    QWORD PTR [rbp+0x2d8],rax
   140004fd9:	48 8b 85 d8 02 00 00 	mov    rax,QWORD PTR [rbp+0x2d8]
   140004fe0:	ff d0                	call   rax
   140004fe2:	e9 e0 00 00 00       	jmp    1400050c7 <_ZN5rvm647decoder9vm_decodeEj+0x1d8d>
   140004fe7:	48 8b 05 1a b0 00 00 	mov    rax,QWORD PTR [rip+0xb01a]        # 140010008 <vmcs>
   140004fee:	48 8b 40 08          	mov    rax,QWORD PTR [rax+0x8]
   140004ff2:	48 05 88 02 00 00    	add    rax,0x288
   140004ff8:	48 8b 00             	mov    rax,QWORD PTR [rax]
   140004ffb:	48 89 85 90 03 00 00 	mov    QWORD PTR [rbp+0x390],rax
   140005002:	48 8b 85 90 03 00 00 	mov    rax,QWORD PTR [rbp+0x390]
   140005009:	48 89 c1             	mov    rcx,rax
   14000500c:	e8 6f c4 ff ff       	call   140001480 <_ZN5rvm645crypt11decrypt_ptrEy>
   140005011:	48 89 85 88 03 00 00 	mov    QWORD PTR [rbp+0x388],rax
   140005018:	48 8b 85 88 03 00 00 	mov    rax,QWORD PTR [rbp+0x388]
   14000501f:	48 89 85 80 03 00 00 	mov    QWORD PTR [rbp+0x380],rax
   140005026:	48 8b 85 80 03 00 00 	mov    rax,QWORD PTR [rbp+0x380]
   14000502d:	ff d0                	call   rax
   14000502f:	e9 93 00 00 00       	jmp    1400050c7 <_ZN5rvm647decoder9vm_decodeEj+0x1d8d>
   140005034:	48 8b 05 cd af 00 00 	mov    rax,QWORD PTR [rip+0xafcd]        # 140010008 <vmcs>
   14000503b:	48 8b 40 08          	mov    rax,QWORD PTR [rax+0x8]
   14000503f:	48 05 90 02 00 00    	add    rax,0x290
   140005045:	48 8b 00             	mov    rax,QWORD PTR [rax]
   140005048:	48 89 85 a8 03 00 00 	mov    QWORD PTR [rbp+0x3a8],rax
   14000504f:	48 8b 85 a8 03 00 00 	mov    rax,QWORD PTR [rbp+0x3a8]
   140005056:	48 89 c1             	mov    rcx,rax
   140005059:	e8 22 c4 ff ff       	call   140001480 <_ZN5rvm645crypt11decrypt_ptrEy>
   14000505e:	48 89 85 a0 03 00 00 	mov    QWORD PTR [rbp+0x3a0],rax
   140005065:	48 8b 85 a0 03 00 00 	mov    rax,QWORD PTR [rbp+0x3a0]
   14000506c:	48 89 85 98 03 00 00 	mov    QWORD PTR [rbp+0x398],rax
   140005073:	48 8b 85 98 03 00 00 	mov    rax,QWORD PTR [rbp+0x398]
   14000507a:	ff d0                	call   rax
   14000507c:	eb 49                	jmp    1400050c7 <_ZN5rvm647decoder9vm_decodeEj+0x1d8d>
   14000507e:	48 8b 05 83 af 00 00 	mov    rax,QWORD PTR [rip+0xaf83]        # 140010008 <vmcs>
   140005085:	48 8b 40 08          	mov    rax,QWORD PTR [rax+0x8]
   140005089:	48 05 98 02 00 00    	add    rax,0x298
   14000508f:	48 8b 00             	mov    rax,QWORD PTR [rax]
   140005092:	48 89 85 c0 03 00 00 	mov    QWORD PTR [rbp+0x3c0],rax
   140005099:	48 8b 85 c0 03 00 00 	mov    rax,QWORD PTR [rbp+0x3c0]
   1400050a0:	48 89 c1             	mov    rcx,rax
   1400050a3:	e8 d8 c3 ff ff       	call   140001480 <_ZN5rvm645crypt11decrypt_ptrEy>
   1400050a8:	48 89 85 b8 03 00 00 	mov    QWORD PTR [rbp+0x3b8],rax
   1400050af:	48 8b 85 b8 03 00 00 	mov    rax,QWORD PTR [rbp+0x3b8]
   1400050b6:	48 89 85 b0 03 00 00 	mov    QWORD PTR [rbp+0x3b0],rax
   1400050bd:	48 8b 85 b0 03 00 00 	mov    rax,QWORD PTR [rbp+0x3b0]
   1400050c4:	ff d0                	call   rax
   1400050c6:	90                   	nop
   1400050c7:	8b 85 20 0a 00 00    	mov    eax,DWORD PTR [rbp+0xa20]
   1400050cd:	c1 e8 18             	shr    eax,0x18
   1400050d0:	83 e0 7f             	and    eax,0x7f
   1400050d3:	88 85 d7 02 00 00    	mov    BYTE PTR [rbp+0x2d7],al
   1400050d9:	8b 85 20 0a 00 00    	mov    eax,DWORD PTR [rbp+0xa20]
   1400050df:	c1 e8 0c             	shr    eax,0xc
   1400050e2:	83 e0 07             	and    eax,0x7
   1400050e5:	88 85 d6 02 00 00    	mov    BYTE PTR [rbp+0x2d6],al
   1400050eb:	0f b6 85 d6 02 00 00 	movzx  eax,BYTE PTR [rbp+0x2d6]
   1400050f2:	83 f8 07             	cmp    eax,0x7
   1400050f5:	0f 87 20 06 00 00    	ja     14000571b <_ZN5rvm647decoder9vm_decodeEj+0x23e1>
   1400050fb:	89 c0                	mov    eax,eax
   1400050fd:	48 8d 14 85 00 00 00 	lea    rdx,[rax*4+0x0]
   140005104:	00 
   140005105:	48 8d 05 a8 c3 00 00 	lea    rax,[rip+0xc3a8]        # 1400114b4 <_ZL8encoding+0x274>
   14000510c:	8b 04 02             	mov    eax,DWORD PTR [rdx+rax*1]
   14000510f:	48 98                	cdqe
   140005111:	48 8d 15 9c c3 00 00 	lea    rdx,[rip+0xc39c]        # 1400114b4 <_ZL8encoding+0x274>
   140005118:	48 01 d0             	add    rax,rdx
   14000511b:	ff e0                	jmp    rax
   14000511d:	0f b6 85 d7 02 00 00 	movzx  eax,BYTE PTR [rbp+0x2d7]
   140005124:	83 f8 20             	cmp    eax,0x20
   140005127:	74 68                	je     140005191 <_ZN5rvm647decoder9vm_decodeEj+0x1e57>
   140005129:	83 f8 20             	cmp    eax,0x20
   14000512c:	0f 8f f2 00 00 00    	jg     140005224 <_ZN5rvm647decoder9vm_decodeEj+0x1eea>
   140005132:	85 c0                	test   eax,eax
   140005134:	74 0e                	je     140005144 <_ZN5rvm647decoder9vm_decodeEj+0x1e0a>
   140005136:	83 f8 01             	cmp    eax,0x1
   140005139:	0f 84 9c 00 00 00    	je     1400051db <_ZN5rvm647decoder9vm_decodeEj+0x1ea1>
   14000513f:	e9 e0 00 00 00       	jmp    140005224 <_ZN5rvm647decoder9vm_decodeEj+0x1eea>
   140005144:	48 8b 05 bd ae 00 00 	mov    rax,QWORD PTR [rip+0xaebd]        # 140010008 <vmcs>
   14000514b:	48 8b 40 08          	mov    rax,QWORD PTR [rax+0x8]
   14000514f:	48 05 a0 02 00 00    	add    rax,0x2a0
   140005155:	48 8b 00             	mov    rax,QWORD PTR [rax]
   140005158:	48 89 85 98 02 00 00 	mov    QWORD PTR [rbp+0x298],rax
   14000515f:	48 8b 85 98 02 00 00 	mov    rax,QWORD PTR [rbp+0x298]
   140005166:	48 89 c1             	mov    rcx,rax
   140005169:	e8 12 c3 ff ff       	call   140001480 <_ZN5rvm645crypt11decrypt_ptrEy>
   14000516e:	48 89 85 90 02 00 00 	mov    QWORD PTR [rbp+0x290],rax
   140005175:	48 8b 85 90 02 00 00 	mov    rax,QWORD PTR [rbp+0x290]
   14000517c:	48 89 85 88 02 00 00 	mov    QWORD PTR [rbp+0x288],rax
   140005183:	48 8b 85 88 02 00 00 	mov    rax,QWORD PTR [rbp+0x288]
   14000518a:	ff d0                	call   rax
   14000518c:	e9 93 00 00 00       	jmp    140005224 <_ZN5rvm647decoder9vm_decodeEj+0x1eea>
   140005191:	48 8b 05 70 ae 00 00 	mov    rax,QWORD PTR [rip+0xae70]        # 140010008 <vmcs>
   140005198:	48 8b 40 08          	mov    rax,QWORD PTR [rax+0x8]
   14000519c:	48 05 a8 02 00 00    	add    rax,0x2a8
   1400051a2:	48 8b 00             	mov    rax,QWORD PTR [rax]
   1400051a5:	48 89 85 c8 02 00 00 	mov    QWORD PTR [rbp+0x2c8],rax
   1400051ac:	48 8b 85 c8 02 00 00 	mov    rax,QWORD PTR [rbp+0x2c8]
   1400051b3:	48 89 c1             	mov    rcx,rax
   1400051b6:	e8 c5 c2 ff ff       	call   140001480 <_ZN5rvm645crypt11decrypt_ptrEy>
   1400051bb:	48 89 85 c0 02 00 00 	mov    QWORD PTR [rbp+0x2c0],rax
   1400051c2:	48 8b 85 c0 02 00 00 	mov    rax,QWORD PTR [rbp+0x2c0]
   1400051c9:	48 89 85 b8 02 00 00 	mov    QWORD PTR [rbp+0x2b8],rax
   1400051d0:	48 8b 85 b8 02 00 00 	mov    rax,QWORD PTR [rbp+0x2b8]
   1400051d7:	ff d0                	call   rax
   1400051d9:	eb 49                	jmp    140005224 <_ZN5rvm647decoder9vm_decodeEj+0x1eea>
   1400051db:	48 8b 05 26 ae 00 00 	mov    rax,QWORD PTR [rip+0xae26]        # 140010008 <vmcs>
   1400051e2:	48 8b 40 08          	mov    rax,QWORD PTR [rax+0x8]
   1400051e6:	48 05 b0 02 00 00    	add    rax,0x2b0
   1400051ec:	48 8b 00             	mov    rax,QWORD PTR [rax]
   1400051ef:	48 89 85 b0 02 00 00 	mov    QWORD PTR [rbp+0x2b0],rax
   1400051f6:	48 8b 85 b0 02 00 00 	mov    rax,QWORD PTR [rbp+0x2b0]
   1400051fd:	48 89 c1             	mov    rcx,rax
   140005200:	e8 7b c2 ff ff       	call   140001480 <_ZN5rvm645crypt11decrypt_ptrEy>
   140005205:	48 89 85 a8 02 00 00 	mov    QWORD PTR [rbp+0x2a8],rax
   14000520c:	48 8b 85 a8 02 00 00 	mov    rax,QWORD PTR [rbp+0x2a8]
   140005213:	48 89 85 a0 02 00 00 	mov    QWORD PTR [rbp+0x2a0],rax
   14000521a:	48 8b 85 a0 02 00 00 	mov    rax,QWORD PTR [rbp+0x2a0]
   140005221:	ff d0                	call   rax
   140005223:	90                   	nop
   140005224:	0f b6 85 d7 02 00 00 	movzx  eax,BYTE PTR [rbp+0x2d7]
   14000522b:	85 c0                	test   eax,eax
   14000522d:	74 0a                	je     140005239 <_ZN5rvm647decoder9vm_decodeEj+0x1eff>
   14000522f:	83 f8 01             	cmp    eax,0x1
   140005232:	74 4f                	je     140005283 <_ZN5rvm647decoder9vm_decodeEj+0x1f49>
   140005234:	e9 93 00 00 00       	jmp    1400052cc <_ZN5rvm647decoder9vm_decodeEj+0x1f92>
   140005239:	48 8b 05 c8 ad 00 00 	mov    rax,QWORD PTR [rip+0xadc8]        # 140010008 <vmcs>
   140005240:	48 8b 40 08          	mov    rax,QWORD PTR [rax+0x8]
   140005244:	48 05 b8 02 00 00    	add    rax,0x2b8
   14000524a:	48 8b 00             	mov    rax,QWORD PTR [rax]
   14000524d:	48 89 85 68 02 00 00 	mov    QWORD PTR [rbp+0x268],rax
   140005254:	48 8b 85 68 02 00 00 	mov    rax,QWORD PTR [rbp+0x268]
   14000525b:	48 89 c1             	mov    rcx,rax
   14000525e:	e8 1d c2 ff ff       	call   140001480 <_ZN5rvm645crypt11decrypt_ptrEy>
   140005263:	48 89 85 60 02 00 00 	mov    QWORD PTR [rbp+0x260],rax
   14000526a:	48 8b 85 60 02 00 00 	mov    rax,QWORD PTR [rbp+0x260]
   140005271:	48 89 85 58 02 00 00 	mov    QWORD PTR [rbp+0x258],rax
   140005278:	48 8b 85 58 02 00 00 	mov    rax,QWORD PTR [rbp+0x258]
   14000527f:	ff d0                	call   rax
   140005281:	eb 49                	jmp    1400052cc <_ZN5rvm647decoder9vm_decodeEj+0x1f92>
   140005283:	48 8b 05 7e ad 00 00 	mov    rax,QWORD PTR [rip+0xad7e]        # 140010008 <vmcs>
   14000528a:	48 8b 40 08          	mov    rax,QWORD PTR [rax+0x8]
   14000528e:	48 05 c0 02 00 00    	add    rax,0x2c0
   140005294:	48 8b 00             	mov    rax,QWORD PTR [rax]
   140005297:	48 89 85 80 02 00 00 	mov    QWORD PTR [rbp+0x280],rax
   14000529e:	48 8b 85 80 02 00 00 	mov    rax,QWORD PTR [rbp+0x280]
   1400052a5:	48 89 c1             	mov    rcx,rax
   1400052a8:	e8 d3 c1 ff ff       	call   140001480 <_ZN5rvm645crypt11decrypt_ptrEy>
   1400052ad:	48 89 85 78 02 00 00 	mov    QWORD PTR [rbp+0x278],rax
   1400052b4:	48 8b 85 78 02 00 00 	mov    rax,QWORD PTR [rbp+0x278]
   1400052bb:	48 89 85 70 02 00 00 	mov    QWORD PTR [rbp+0x270],rax
   1400052c2:	48 8b 85 70 02 00 00 	mov    rax,QWORD PTR [rbp+0x270]
   1400052c9:	ff d0                	call   rax
   1400052cb:	90                   	nop
   1400052cc:	0f b6 85 d7 02 00 00 	movzx  eax,BYTE PTR [rbp+0x2d7]
   1400052d3:	85 c0                	test   eax,eax
   1400052d5:	74 0a                	je     1400052e1 <_ZN5rvm647decoder9vm_decodeEj+0x1fa7>
   1400052d7:	83 f8 01             	cmp    eax,0x1
   1400052da:	74 4f                	je     14000532b <_ZN5rvm647decoder9vm_decodeEj+0x1ff1>
   1400052dc:	e9 93 00 00 00       	jmp    140005374 <_ZN5rvm647decoder9vm_decodeEj+0x203a>
   1400052e1:	48 8b 05 20 ad 00 00 	mov    rax,QWORD PTR [rip+0xad20]        # 140010008 <vmcs>
   1400052e8:	48 8b 40 08          	mov    rax,QWORD PTR [rax+0x8]
   1400052ec:	48 05 c8 02 00 00    	add    rax,0x2c8
   1400052f2:	48 8b 00             	mov    rax,QWORD PTR [rax]
   1400052f5:	48 89 85 38 02 00 00 	mov    QWORD PTR [rbp+0x238],rax
   1400052fc:	48 8b 85 38 02 00 00 	mov    rax,QWORD PTR [rbp+0x238]
   140005303:	48 89 c1             	mov    rcx,rax
   140005306:	e8 75 c1 ff ff       	call   140001480 <_ZN5rvm645crypt11decrypt_ptrEy>
   14000530b:	48 89 85 30 02 00 00 	mov    QWORD PTR [rbp+0x230],rax
   140005312:	48 8b 85 30 02 00 00 	mov    rax,QWORD PTR [rbp+0x230]
   140005319:	48 89 85 28 02 00 00 	mov    QWORD PTR [rbp+0x228],rax
   140005320:	48 8b 85 28 02 00 00 	mov    rax,QWORD PTR [rbp+0x228]
   140005327:	ff d0                	call   rax
   140005329:	eb 49                	jmp    140005374 <_ZN5rvm647decoder9vm_decodeEj+0x203a>
   14000532b:	48 8b 05 d6 ac 00 00 	mov    rax,QWORD PTR [rip+0xacd6]        # 140010008 <vmcs>
   140005332:	48 8b 40 08          	mov    rax,QWORD PTR [rax+0x8]
   140005336:	48 05 d0 02 00 00    	add    rax,0x2d0
   14000533c:	48 8b 00             	mov    rax,QWORD PTR [rax]
   14000533f:	48 89 85 50 02 00 00 	mov    QWORD PTR [rbp+0x250],rax
   140005346:	48 8b 85 50 02 00 00 	mov    rax,QWORD PTR [rbp+0x250]
   14000534d:	48 89 c1             	mov    rcx,rax
   140005350:	e8 2b c1 ff ff       	call   140001480 <_ZN5rvm645crypt11decrypt_ptrEy>
   140005355:	48 89 85 48 02 00 00 	mov    QWORD PTR [rbp+0x248],rax
   14000535c:	48 8b 85 48 02 00 00 	mov    rax,QWORD PTR [rbp+0x248]
   140005363:	48 89 85 40 02 00 00 	mov    QWORD PTR [rbp+0x240],rax
   14000536a:	48 8b 85 40 02 00 00 	mov    rax,QWORD PTR [rbp+0x240]
   140005371:	ff d0                	call   rax
   140005373:	90                   	nop
   140005374:	0f b6 85 d7 02 00 00 	movzx  eax,BYTE PTR [rbp+0x2d7]
   14000537b:	85 c0                	test   eax,eax
   14000537d:	74 0a                	je     140005389 <_ZN5rvm647decoder9vm_decodeEj+0x204f>
   14000537f:	83 f8 01             	cmp    eax,0x1
   140005382:	74 4f                	je     1400053d3 <_ZN5rvm647decoder9vm_decodeEj+0x2099>
   140005384:	e9 93 00 00 00       	jmp    14000541c <_ZN5rvm647decoder9vm_decodeEj+0x20e2>
   140005389:	48 8b 05 78 ac 00 00 	mov    rax,QWORD PTR [rip+0xac78]        # 140010008 <vmcs>
   140005390:	48 8b 40 08          	mov    rax,QWORD PTR [rax+0x8]
   140005394:	48 05 d8 02 00 00    	add    rax,0x2d8
   14000539a:	48 8b 00             	mov    rax,QWORD PTR [rax]
   14000539d:	48 89 85 08 02 00 00 	mov    QWORD PTR [rbp+0x208],rax
   1400053a4:	48 8b 85 08 02 00 00 	mov    rax,QWORD PTR [rbp+0x208]
   1400053ab:	48 89 c1             	mov    rcx,rax
